# lld --symbol-ordering-file: functions bun executes while starting up,
# in first-touch order, so they land together at the front of .text.
# Generated by `bun run orderfile` — see scripts/orderfile/generate.ts.
# 29970 functions from 4 workloads.
_RINvNvMs7_NtCs4YYdkJyg8hg_7bun_jsc15virtual_machineNtB8_14VirtualMachine17run_with_api_lock4callNCNvNtNtNtNtCs1yUlXPGwCKD_11bun_runtime3cli4test8parallel6runner13run_as_worker0uEB1I_
_start
_Z23us_no_password_callbackPciiPv
us_internal_raw_root_certs
_Z32us_get_root_extra_cert_instancesv
_Z33us_get_root_system_cert_instancesv
us_get_default_ca_store
us_get_shared_default_ca_store
us_get_default_ciphers
us_load_system_certificates_linux
_ZL25load_certs_from_directoryPKcP13stack_st_X509b
_Z10removeUserP8sni_nodejPSt17basic_string_viewIcSt11char_traitsIcEEj
_Z7getUserP8sni_nodejPSt17basic_string_viewIcSt11char_traitsIcEEj
__wrap_fcntl64
__wrap_dlsym
__wrap_dladdr
__wrap_dlerror
__wrap_pthread_key_create
__wrap_pthread_key_delete
__wrap_pthread_getspecific
__wrap_pthread_setspecific
__wrap_pthread_once
__wrap_pthread_mutexattr_init
__wrap_pthread_mutexattr_settype
__wrap_pthread_mutexattr_destroy
__wrap_pthread_mutex_trylock
__wrap_pthread_rwlock_rdlock
__wrap_pthread_rwlock_wrlock
__wrap_pthread_rwlock_unlock
__wrap_pthread_rwlock_destroy
__wrap_pthread_attr_setstacksize
__wrap_pthread_attr_setstack
__wrap_pthread_getattr_np
__wrap_pthread_kill
__wrap___pthread_key_create
__wrap_fstat
__wrap_fstat64
__wrap_statx
__wrap_memfd_create
__wrap__dl_find_object
__wrap___libc_start_main
_ZL17bun_libc_csu_initiPPcS0_
_ZN12_GLOBAL__N_19run_dtorsEPv
_ZZNSt9once_flag18_Prepare_executionC1IZSt9call_onceIZ14__wrap_fcntl64E3$_0JEEvRS_OT_DpOT0_EUlvE_EERS5_ENUlvE_8__invokeEv
_ZN3bun4xxh36N_SSE48HashLongEPKhmS3_
fde_unencoded_compare
fde_unencoded_extract
frame_downheap
version_lock_lock_exclusive
read_encoded_value_with_base
fde_radixsort
_ZNKSt9money_getIwSt19istreambuf_iteratorIwSt11char_traitsIwEEE10_M_extractILb0EEES3_S3_S3_RSt8ios_baseRSt12_Ios_IostateRSs
uw_install_context_1.cold
read_encoded_value.cold
execute_stack_op.cold
uw_update_context_1.cold
execute_cfa_program_specialized.cold
execute_cfa_program_generic.cold
uw_frame_state_for.cold
uw_init_context_1.cold
_Unwind_RaiseException_Phase2.cold
_Unwind_ForcedUnwind_Phase2.cold
_Unwind_GetGR.cold
_Unwind_SetGR.cold
_Unwind_RaiseException.cold
_Unwind_Resume.cold
_Unwind_Resume_or_Rethrow.cold
_Unwind_Backtrace.cold
btree_release_tree_recursively
btree_destroy
release_registered_frames
_ZNK10__cxxabiv121__vmi_class_type_info12__do_dyncastElNS_17__class_type_info10__sub_kindEPKS1_PKvS4_S6_RNS1_16__dyncast_resultE
_ZNK10__cxxabiv121__vmi_class_type_info11__do_upcastEPKNS_17__class_type_infoEPKvRNS1_15__upcast_resultE
_ZN9__gnu_cxx27__verbose_terminate_handlerEv.cold
_ZN9__gnu_cxx27__verbose_terminate_handlerEv
__cxa_current_exception_type
_GLOBAL__sub_I.00090_globals_io.cc
_ZNSt8ios_base4InitC2Ev.cold
_ZNSt8ios_base4InitC1Ev
_ZNSt8ios_base4InitC2Ev
_ZSt21ios_base_library_initv
_ZNSt6locale5_ImplC1Em
_ZNSt6locale5_ImplC2Em
_ZNSt6locale18_S_initialize_onceEv
_ZNSt6locale13_S_initializeEv
_ZNSt6localeC2Ev.cold
_ZNSt6localeC1Ev
_ZNSt6localeC2Ev
_ZNSt8ios_base4InitD2Ev.cold
_ZNSt8ios_base4InitD1Ev
_ZNSt8ios_base4InitD2Ev
_ZNSt8__detail15_List_node_base7_M_hookEPS0_
_ZNSt8__detail15_List_node_base9_M_unhookEv
_ZNSt6locale5facetD1Ev
_ZNSt6locale5facetD2Ev
_ZNSt6locale5facetD0Ev.cold
_ZNSt6locale5facetD0Ev
_ZNSt6locale5facetD0Ev.localalias
_ZNSt6locale5facet18_S_initialize_onceEv
_ZNSt6localeC1ERKS_
_ZNSt6localeC2ERKS_
_ZNSt6localeC1EPNS_5_ImplE
_ZNSt6localeC2EPNS_5_ImplE
_ZNSt6locale5facet15_S_get_c_localeEv
_ZNSt6locale5facet13_S_get_c_nameEv
_ZNSt6locale5_ImplD2Ev.cold
_ZNSt6locale5_ImplD1Ev
_ZNSt6locale5_ImplD2Ev
_ZNSt6localeaSERKS_
_ZNSt6localeD1Ev
_ZNSt6localeD2Ev
_ZNKSt6locale2id5_M_idEv
_ZNSt6locale5_Impl16_M_install_facetEPKNS_2idEPKNS_5facetE.cold
_ZNSt6locale5_Impl16_M_install_facetEPKNS_2idEPKNS_5facetE
_ZNSt6locale5_ImplC2Em.cold
_ZNKSt5ctypeIcE13_M_widen_initEv
_ZNSt5ctypeIwEC2Em.cold
_ZNSt5ctypeIwEC1Em
_ZNSt5ctypeIwEC2Em
_ZNSt5ctypeIcEC2EPKtbm.cold
_ZNSt5ctypeIcEC1EPKtbm
_ZNSt5ctypeIcEC2EPKtbm
_ZNKSt5ctypeIcE10do_toupperEc
_ZNKSt5ctypeIcE10do_toupperEPcPKc
_ZNKSt5ctypeIcE10do_tolowerEc
_ZNKSt5ctypeIcE10do_tolowerEPcPKc
_ZNKSt5ctypeIwE19_M_convert_to_wmaskEt
_ZNSt8CatalogsD1Ev
_ZNSt8CatalogsD2Ev
_ZSt14__convert_to_vIfEvPKcRT_RSt12_Ios_IostateRKP15__locale_struct
_ZSt14__convert_to_vIdEvPKcRT_RSt12_Ios_IostateRKP15__locale_struct
_ZSt14__convert_to_vIeEvPKcRT_RSt12_Ios_IostateRKP15__locale_struct
_ZNSt6locale5facet18_S_create_c_localeERP15__locale_structPKcS2_.cold
_ZNSt6locale5facet18_S_create_c_localeERP15__locale_structPKcS2_
_ZNSt6locale5facet19_S_destroy_c_localeERP15__locale_struct
_ZNSt6locale5facet17_S_clone_c_localeERP15__locale_struct
_ZNSt8Catalogs8_M_eraseEi.cold
_ZNSt8Catalogs8_M_eraseEi
_ZNKSt8Catalogs6_M_getEi.cold
_ZNKSt8Catalogs6_M_getEi
_ZSt12get_catalogsv
_ZNSt6vectorIPSt12Catalog_infoSaIS1_EE17_M_realloc_appendERKS1_
_ZNSt8Catalogs6_M_addEPKcSt6locale.cold
_ZNSt8Catalogs6_M_addEPKcSt6locale
_ZSt18_Rb_tree_incrementPSt18_Rb_tree_node_base
_ZSt18_Rb_tree_incrementPKSt18_Rb_tree_node_base
_ZSt18_Rb_tree_decrementPSt18_Rb_tree_node_base
_ZSt29_Rb_tree_insert_and_rebalancebPSt18_Rb_tree_node_baseS0_RS_
_ZNSt7codecvtIwc11__mbstate_tED1Ev
_ZNSt7codecvtIwc11__mbstate_tED2Ev
_ZNSt7codecvtIwc11__mbstate_tED0Ev.cold
_ZNSt7codecvtIwc11__mbstate_tED0Ev
_ZNSt7codecvtIcc11__mbstate_tEC2Em.cold
_ZNSt7codecvtIcc11__mbstate_tEC1Em
_ZNSt7codecvtIcc11__mbstate_tEC2Em
_ZNSt7codecvtIwc11__mbstate_tEC2Em.cold
_ZNSt7codecvtIwc11__mbstate_tEC1Em
_ZNSt7codecvtIwc11__mbstate_tEC2Em
_ZNKSt7codecvtIwc11__mbstate_tE6do_outERS0_PKwS4_RS4_PcS6_RS6_
_ZNKSt7codecvtIwc11__mbstate_tE5do_inERS0_PKcS4_RS4_PwS6_RS6_
_ZNSt7__cxx1110moneypunctIwLb0EE24_M_initialize_moneypunctEP15__locale_structPKc
_ZNSt7__cxx1110moneypunctIwLb1EED2Ev.cold
_ZNSt7__cxx1110moneypunctIwLb1EED1Ev
_ZNSt7__cxx1110moneypunctIwLb1EED2Ev
_ZNSt7__cxx1110moneypunctIwLb1EED0Ev.cold
_ZNSt7__cxx1110moneypunctIwLb1EED0Ev
_ZNSt7__cxx1110moneypunctIwLb0EED2Ev.cold
_ZNSt7__cxx1110moneypunctIwLb0EED1Ev
_ZNSt7__cxx1110moneypunctIwLb0EED2Ev
_ZNSt7__cxx1110moneypunctIwLb0EED0Ev.cold
_ZNSt7__cxx1110moneypunctIwLb0EED0Ev
_ZNSt7__cxx118numpunctIcE22_M_initialize_numpunctEP15__locale_struct.cold
_ZNKSt7__cxx118time_getIcSt19istreambuf_iteratorIcSt11char_traitsIcEEE11do_get_dateES4_S4_RSt8ios_baseRSt12_Ios_IostateP2tm
_ZNKSt7__cxx118time_getIcSt19istreambuf_iteratorIcSt11char_traitsIcEEE6do_getES4_S4_RSt8ios_baseRSt12_Ios_IostateP2tmcc
_ZSt28_Rb_tree_rebalance_for_erasePSt18_Rb_tree_node_baseRS_
_ZNSt7__cxx118numpunctIcE22_M_initialize_numpunctEP15__locale_struct
_ZNSt7__cxx118numpunctIcED2Ev.cold
_ZNSt7__cxx118numpunctIcED1Ev
_ZNSt7__cxx118numpunctIcED2Ev
_ZNSt7__cxx118numpunctIcED0Ev.cold
_ZNSt7__cxx118numpunctIcED0Ev
_ZNSt7__cxx118numpunctIwE22_M_initialize_numpunctEP15__locale_struct.cold
_ZNSt7__cxx118numpunctIwE22_M_initialize_numpunctEP15__locale_struct
_ZNSt7__cxx118numpunctIwED2Ev.cold
_ZNSt7__cxx118numpunctIwED1Ev
_ZNSt7__cxx118numpunctIwED2Ev
_ZNSt7__cxx118numpunctIwED0Ev.cold
_ZNSt7__cxx118numpunctIwED0Ev
_ZNKSt7__cxx117collateIcE10_M_compareEPKcS3_
_ZNKSt7__cxx117collateIcE12_M_transformEPcPKcm
_ZNKSt7__cxx117collateIwE10_M_compareEPKwS3_
_ZNKSt7__cxx117collateIwE12_M_transformEPwPKwm
_ZSt17__verify_groupingPKcmRKNSt7__cxx1112basic_stringIcSt11char_traitsIcESaIcEEE.cold
_ZSt17__verify_groupingPKcmRKNSt7__cxx1112basic_stringIcSt11char_traitsIcESaIcEEE
_ZNKSt7codecvtIcc11__mbstate_tE5do_inERS0_PKcS4_RS4_PcS6_RS6_
_ZNKSt7codecvtIcc11__mbstate_tE6do_outERS0_PKcS4_RS4_PcS6_RS6_
_ZNKSt7codecvtIcc11__mbstate_tE10do_unshiftERS0_PcS3_RS3_
_ZNKSt7codecvtIwc11__mbstate_tE10do_unshiftERS0_PcS3_RS3_
_ZNKSt7codecvtIcc11__mbstate_tE11do_encodingEv
_ZNKSt7codecvtIcc11__mbstate_tE13do_max_lengthEv
_ZNKSt7codecvtIcc11__mbstate_tE16do_always_noconvEv
_ZNKSt7codecvtIcc11__mbstate_tE9do_lengthERS0_PKcS4_m
_ZNKSt7codecvtIwc11__mbstate_tE16do_always_noconvEv
_ZNSt7codecvtIcc11__mbstate_tED2Ev.cold
_ZNSt7codecvtIcc11__mbstate_tED1Ev
_ZNSt7codecvtIcc11__mbstate_tED2Ev
_ZNSt7codecvtIcc11__mbstate_tED0Ev.cold
_ZNSt7codecvtIcc11__mbstate_tED0Ev
_ZNSt7codecvtIwc11__mbstate_tED2Ev.cold
_GLOBAL__sub_I_cxx11_locale_inst.cc
_ZNSt7__cxx1110moneypunctIcLb1EE24_M_initialize_moneypunctEP15__locale_structPKc.cold
_ZNSt7__cxx1110moneypunctIcLb1EE24_M_initialize_moneypunctEP15__locale_structPKc
_ZNSt7__cxx1110moneypunctIcLb0EE24_M_initialize_moneypunctEP15__locale_structPKc.cold
_ZNSt7__cxx1110moneypunctIcLb0EE24_M_initialize_moneypunctEP15__locale_structPKc
_ZNSt7__cxx1110moneypunctIcLb1EED2Ev.cold
_ZNSt7__cxx1110moneypunctIcLb1EED1Ev
_ZNSt7__cxx1110moneypunctIcLb1EED2Ev
_ZNSt16__numpunct_cacheIcE8_M_cacheERKSt6locale
_ZNKSt11__use_cacheISt16__numpunct_cacheIcEEclERKSt6locale.isra.0.cold
_ZNKSt11__use_cacheISt16__numpunct_cacheIcEEclERKSt6locale.isra.0
_ZNSt11__timepunctIcEC1EPSt17__timepunct_cacheIcEm
_ZNSt11__timepunctIcEC2EPSt17__timepunct_cacheIcEm
_ZNKSt8time_getIcSt19istreambuf_iteratorIcSt11char_traitsIcEEE14_M_extract_numES3_S3_RiiimRSt8ios_baseRSt12_Ios_Iostate
_ZNKSt9money_getIcSt19istreambuf_iteratorIcSt11char_traitsIcEEE10_M_extractILb0EEES3_S3_S3_RSt8ios_baseRSt12_Ios_IostateRSs
_ZNKSt9money_getIcSt19istreambuf_iteratorIcSt11char_traitsIcEEE6do_getES3_S3_bRSt8ios_baseRSt12_Ios_IostateRe
_ZNKSt9money_getIcSt19istreambuf_iteratorIcSt11char_traitsIcEEE6do_getES3_S3_bRSt8ios_baseRSt12_Ios_IostateRSs
_GLOBAL__sub_I_locale_inst.cc
_ZNKSt11__timepunctIcE6_M_putEPcmPKcPK2tm
_ZNSt11__timepunctIcE23_M_initialize_timepunctEP15__locale_struct
_ZNKSt7__cxx118time_getIcSt19istreambuf_iteratorIcSt11char_traitsIcEEE24_M_extract_wday_or_monthES4_S4_RiPPKcmRSt8ios_baseRSt12_Ios_Iostate
_ZNKSt7__cxx118time_getIcSt19istreambuf_iteratorIcSt11char_traitsIcEEE14do_get_weekdayES4_S4_RSt8ios_baseRSt12_Ios_IostateP2tm
_ZNKSt7__cxx118time_getIcSt19istreambuf_iteratorIcSt11char_traitsIcEEE16do_get_monthnameES4_S4_RSt8ios_baseRSt12_Ios_IostateP2tm
_ZNSt7__cxx118messagesIcEC1Em
_ZNSt7__cxx118messagesIcEC2Em
_ZNKSt19istreambuf_iteratorIcSt11char_traitsIcEE6_M_getEv
_ZNKSt7__cxx118time_getIcSt19istreambuf_iteratorIcSt11char_traitsIcEEE21_M_extract_via_formatES4_S4_RSt8ios_baseRSt12_Ios_IostateP2tmPKcRSt16__time_get_state
_ZNKSt7__cxx118time_getIcSt19istreambuf_iteratorIcSt11char_traitsIcEEE21_M_extract_via_formatES4_S4_RSt8ios_baseRSt12_Ios_IostateP2tmPKcRSt16__time_get_state.localalias
_ZNKSt5ctypeIwE5do_isEtw
_ZNKSt5ctypeIwE5do_isEPKwS2_Pt
_ZNKSt5ctypeIwE10do_scan_isEtPKwS2_
_ZNKSt5ctypeIwE11do_scan_notEtPKwS2_
_ZNKSt5ctypeIwE8do_widenEc
_ZNKSt5ctypeIwE8do_widenEPKcS2_Pw
_ZNKSt5ctypeIwE9do_narrowEwc
_ZNKSt5ctypeIwE9do_narrowEPKwS2_cPc
_ZNSt5ctypeIwE19_M_initialize_ctypeEv
_ZNKSt13__facet_shims12_GLOBAL__N_112collate_shimIcE10do_compareEPKcS4_S4_S4_
_ZNKSt13__facet_shims12_GLOBAL__N_113time_get_shimIcE11do_get_yearESt19istreambuf_iteratorIcSt11char_traitsIcEES6_RSt8ios_baseRSt12_Ios_IostateP2tm
_ZNKSt13__facet_shims12_GLOBAL__N_113time_get_shimIcE16do_get_monthnameESt19istreambuf_iteratorIcSt11char_traitsIcEES6_RSt8ios_baseRSt12_Ios_IostateP2tm
_ZNKSt13__facet_shims12_GLOBAL__N_113time_get_shimIcE14do_get_weekdayESt19istreambuf_iteratorIcSt11char_traitsIcEES6_RSt8ios_baseRSt12_Ios_IostateP2tm
_ZNKSt13__facet_shims12_GLOBAL__N_113time_get_shimIcE11do_get_dateESt19istreambuf_iteratorIcSt11char_traitsIcEES6_RSt8ios_baseRSt12_Ios_IostateP2tm
_ZNKSt13__facet_shims12_GLOBAL__N_113time_get_shimIcE11do_get_timeESt19istreambuf_iteratorIcSt11char_traitsIcEES6_RSt8ios_baseRSt12_Ios_IostateP2tm
_ZNKSt13__facet_shims12_GLOBAL__N_113time_get_shimIcE13do_date_orderEv
_ZNKSt13__facet_shims12_GLOBAL__N_114money_get_shimIcE6do_getESt19istreambuf_iteratorIcSt11char_traitsIcEES6_bRSt8ios_baseRSt12_Ios_IostateRe
_ZNKSt13__facet_shims12_GLOBAL__N_114money_put_shimIcE6do_putESt19ostreambuf_iteratorIcSt11char_traitsIcEEbRSt8ios_basece
_ZNKSt13__facet_shims12_GLOBAL__N_113messages_shimIcE8do_closeEi
_ZNKSt13__facet_shims12_GLOBAL__N_113messages_shimIcE7do_openERKNSt7__cxx1112basic_stringIcSt11char_traitsIcESaIcEEERKSt6locale
_ZNKSt13__facet_shims12_GLOBAL__N_112collate_shimIwE10do_compareEPKwS4_S4_S4_
_ZNKSt13__facet_shims12_GLOBAL__N_113time_get_shimIwE11do_get_yearESt19istreambuf_iteratorIwSt11char_traitsIwEES6_RSt8ios_baseRSt12_Ios_IostateP2tm
_ZNKSt7codecvtIwc11__mbstate_tE11do_encodingEv
_ZNKSt7codecvtIwc11__mbstate_tE13do_max_lengthEv
_ZNKSt7codecvtIwc11__mbstate_tE9do_lengthERS0_PKcS4_m
_ZNSt7__cxx1112basic_stringIwSt11char_traitsIwESaIwEE12_M_constructIPwEEvT_S7_St20forward_iterator_tag.isra.0
_ZNSt7__cxx1112basic_stringIcSt11char_traitsIcESaIcEE12_M_constructIPcEEvT_S7_St20forward_iterator_tag.isra.0
_ZNSt7__cxx1110moneypunctIcLb0EED1Ev
_ZNSt7__cxx1110moneypunctIcLb0EED2Ev
_ZNSt7__cxx1110moneypunctIcLb0EED0Ev.cold
_ZNSt7__cxx1110moneypunctIcLb0EED0Ev
_ZNSt7__cxx1110moneypunctIwLb1EE24_M_initialize_moneypunctEP15__locale_structPKc.cold
_ZNSt7__cxx1110moneypunctIwLb1EE24_M_initialize_moneypunctEP15__locale_structPKc
_ZNSt7__cxx1110moneypunctIwLb0EE24_M_initialize_moneypunctEP15__locale_structPKc.cold
_ZNKSt11__use_cacheISt16__numpunct_cacheIwEEclERKSt6locale.isra.0
_ZNSt11__timepunctIwEC1EPSt17__timepunct_cacheIwEm
_ZNSt11__timepunctIwEC2EPSt17__timepunct_cacheIwEm
_ZNKSt8time_getIwSt19istreambuf_iteratorIwSt11char_traitsIwEEE14_M_extract_numES3_S3_RiiimRSt8ios_baseRSt12_Ios_Iostate
_ZNSt8messagesIwEC1Em
_ZNSt8messagesIwEC2Em
_ZSt14__add_groupingIwEPT_S1_S0_PKcmPKS0_S5_
_ZNKSt7num_putIwSt19ostreambuf_iteratorIwSt11char_traitsIwEEE14_M_group_floatEPKcmwPKwPwS9_Ri
_ZNKSt7num_putIwSt19ostreambuf_iteratorIwSt11char_traitsIwEEE12_M_group_intEPKcmwRSt8ios_basePwS9_Ri
_ZNKSt9money_putIwSt19ostreambuf_iteratorIwSt11char_traitsIwEEE9_M_insertILb1EEES3_S3_RSt8ios_basewRKSbIwS2_SaIwEE
_ZNKSt11__timepunctIwE6_M_putEPwmPKwPK2tm
_ZNSt11__timepunctIwE23_M_initialize_timepunctEP15__locale_struct
_ZNKSt7collateIcE10_M_compareEPKcS2_
_ZNKSt7collateIcE12_M_transformEPcPKcm
_ZNKSt7collateIwE10_M_compareEPKwS2_
_ZNKSt7collateIwE12_M_transformEPwPKwm
_ZNKSt8messagesIcE7do_openERKSsRKSt6locale.cold
_ZNKSt8messagesIcE7do_openERKSsRKSt6locale
_ZNKSt8messagesIcE8do_closeEi
_ZNKSt8messagesIwE8do_closeEi
_ZNKSt8messagesIcE6do_getEiiiRKSs.cold
_ZNKSt8messagesIcE6do_getEiiiRKSs
_ZNKSt8messagesIwE7do_openERKSsRKSt6locale.cold
_ZNKSt8messagesIwE7do_openERKSsRKSt6locale
_ZNKSt8messagesIwE6do_getEiiiRKSbIwSt11char_traitsIwESaIwEE.cold
_ZNKSt8messagesIwE6do_getEiiiRKSbIwSt11char_traitsIwESaIwEE
_ZNKSt7__cxx118time_getIwSt19istreambuf_iteratorIwSt11char_traitsIwEEE14do_get_weekdayES4_S4_RSt8ios_baseRSt12_Ios_IostateP2tm
_ZNKSt7__cxx118time_getIwSt19istreambuf_iteratorIwSt11char_traitsIwEEE16do_get_monthnameES4_S4_RSt8ios_baseRSt12_Ios_IostateP2tm
_ZNSt7__cxx118messagesIwEC1Em
_ZNSt7__cxx118messagesIwEC2Em
_ZNKSt19istreambuf_iteratorIwSt11char_traitsIwEE6_M_getEv
_ZNKSt7__cxx118time_getIwSt19istreambuf_iteratorIwSt11char_traitsIwEEE21_M_extract_via_formatES4_S4_RSt8ios_baseRSt12_Ios_IostateP2tmPKwRSt16__time_get_state
_ZNKSt7__cxx118time_getIwSt19istreambuf_iteratorIwSt11char_traitsIwEEE21_M_extract_via_formatES4_S4_RSt8ios_baseRSt12_Ios_IostateP2tmPKwRSt16__time_get_state.localalias
_ZNKSt7codecvtIDic11__mbstate_tE6do_outERS0_PKDiS4_RS4_PcS6_RS6_
_ZNKSt7codecvtIDsc11__mbstate_tE9do_lengthERS0_PKcS4_m
_ZNSt6locale5_Impl13_M_init_extraEPPNS_5facetE.cold
_ZNSt6locale5_Impl13_M_init_extraEPPNS_5facetE
__once_proxy
_ZNSoD1Ev
_ZTv0_n24_NSoD1Ev
_ZNSoD0Ev
_ZTv0_n24_NSoD0Ev
_ZNSt13basic_ostreamIwSt11char_traitsIwEED1Ev
_ZTv0_n24_NSt13basic_ostreamIwSt11char_traitsIwEED1Ev
_ZNSt13basic_ostreamIwSt11char_traitsIwEED0Ev
_ZTv0_n24_NSt13basic_ostreamIwSt11char_traitsIwEED0Ev
_ZNSo6sentryD1Ev
_ZNSo6sentryD2Ev
_ZNSo5flushEv
_ZNSo6sentryC1ERSo
_ZNSo6sentryC2ERSo
_ZNSo3putEc
_ZSt4endlIcSt11char_traitsIcEERSt13basic_ostreamIT_T0_ES6_
_ZSt16__ostream_insertIcSt11char_traitsIcEERSt13basic_ostreamIT_T0_ES6_PKS3_l
_ZSt24__narrow_multibyte_charsPKcP15__locale_struct
_ZNSt8numpunctIcE22_M_initialize_numpunctEP15__locale_struct.cold
_ZNSt8numpunctIcE22_M_initialize_numpunctEP15__locale_struct
_ZNSt8numpunctIcED2Ev.cold
_ZNSt8numpunctIcED1Ev
_ZNSt8numpunctIcED2Ev
_ZNSt8numpunctIcED0Ev.cold
_ZNSt8numpunctIcED0Ev
_ZNSt8numpunctIwE22_M_initialize_numpunctEP15__locale_struct.cold
_ZNSt8numpunctIwE22_M_initialize_numpunctEP15__locale_struct
_ZNSt8numpunctIwED2Ev.cold
_ZNSt8numpunctIwED1Ev
_ZNSt8numpunctIwED2Ev
_ZNSt8numpunctIwED0Ev.cold
_ZNSt8numpunctIwED0Ev
_ZNSt12_GLOBAL__N_115day_of_the_weekEiii
_ZNSt10__num_base15_S_format_floatERKSt8ios_basePcc
_ZSt22__verify_grouping_implPKcmS0_m
_ZNSt10moneypunctIcLb0EE24_M_initialize_moneypunctEP15__locale_structPKc.cold
_ZNSt10moneypunctIcLb0EE24_M_initialize_moneypunctEP15__locale_structPKc
_ZNSt10moneypunctIcLb1EED2Ev.cold
_ZNSt10moneypunctIcLb1EED1Ev
_ZNSt10moneypunctIcLb1EED2Ev
_ZNSt10moneypunctIcLb1EED0Ev.cold
_ZNSt10moneypunctIcLb1EED0Ev
_ZNSt8messagesIcEC1Em
_ZNSt8messagesIcEC2Em
_ZSt14__add_groupingIcEPT_S1_S0_PKcmPKS0_S5_
_ZNKSt7num_putIcSt19ostreambuf_iteratorIcSt11char_traitsIcEEE14_M_group_floatEPKcmcS6_PcS7_Ri
_ZNKSt7num_putIcSt19ostreambuf_iteratorIcSt11char_traitsIcEEE12_M_group_intEPKcmcRSt8ios_basePcS9_Ri
_ZNKSt9money_putIcSt19ostreambuf_iteratorIcSt11char_traitsIcEEE9_M_insertILb1EEES3_S3_RSt8ios_basecRKSs
_ZNSt10money_base20_S_construct_patternEccc
_ZNSt10moneypunctIcLb1EE24_M_initialize_moneypunctEP15__locale_structPKc.cold
_ZNSt10moneypunctIcLb1EE24_M_initialize_moneypunctEP15__locale_structPKc
_ZNKSt9money_putIcSt19ostreambuf_iteratorIcSt11char_traitsIcEEE9_M_insertILb0EEES3_S3_RSt8ios_basecRKSs
_ZNSt10moneypunctIcLb0EED2Ev.cold
_ZNSt10moneypunctIcLb0EED1Ev
_ZNSt10moneypunctIcLb0EED2Ev
_ZNSt10moneypunctIcLb0EED0Ev.cold
_ZNSt10moneypunctIcLb0EED0Ev
_ZNSt10moneypunctIwLb1EE24_M_initialize_moneypunctEP15__locale_structPKc.cold
_ZNSt10moneypunctIwLb1EE24_M_initialize_moneypunctEP15__locale_structPKc
_ZNSt10moneypunctIwLb0EE24_M_initialize_moneypunctEP15__locale_structPKc.cold
_ZNSt10moneypunctIwLb0EE24_M_initialize_moneypunctEP15__locale_structPKc
_ZNSt10moneypunctIwLb1EED2Ev.cold
_ZNSt10moneypunctIwLb1EED1Ev
_ZNSt10moneypunctIwLb1EED2Ev
_ZNSt10moneypunctIwLb1EED0Ev.cold
_ZNSt10moneypunctIwLb1EED0Ev
_ZNSt10moneypunctIwLb0EED2Ev.cold
_ZNSt10moneypunctIwLb0EED1Ev
_ZNSt10moneypunctIwLb0EED2Ev
_ZNSt10moneypunctIwLb0EED0Ev.cold
_ZNKSt19__codecvt_utf8_baseIDiE10do_unshiftER11__mbstate_tPcS3_RS3_
_ZNKSt19__codecvt_utf8_baseIDsE10do_unshiftER11__mbstate_tPcS3_RS3_
_ZNKSt19__codecvt_utf8_baseIwE10do_unshiftER11__mbstate_tPcS3_RS3_
_ZNKSt20__codecvt_utf16_baseIDiE10do_unshiftER11__mbstate_tPcS3_RS3_
_ZNKSt20__codecvt_utf16_baseIDsE10do_unshiftER11__mbstate_tPcS3_RS3_
_ZNKSt20__codecvt_utf16_baseIwE10do_unshiftER11__mbstate_tPcS3_RS3_
_ZNKSt25__codecvt_utf8_utf16_baseIDiE10do_unshiftER11__mbstate_tPcS3_RS3_
_ZNKSt25__codecvt_utf8_utf16_baseIDsE10do_unshiftER11__mbstate_tPcS3_RS3_
_ZNKSt25__codecvt_utf8_utf16_baseIwE10do_unshiftER11__mbstate_tPcS3_RS3_
_ZNKSt7codecvtIDic11__mbstate_tE10do_unshiftERS0_PcS3_RS3_
_ZNKSt7codecvtIDsc11__mbstate_tE10do_unshiftERS0_PcS3_RS3_
_ZNKSt19__codecvt_utf8_baseIDiE11do_encodingEv
_ZNKSt19__codecvt_utf8_baseIDsE11do_encodingEv
_ZNKSt19__codecvt_utf8_baseIwE11do_encodingEv
_ZNKSt20__codecvt_utf16_baseIDiE11do_encodingEv
_ZNKSt20__codecvt_utf16_baseIDsE11do_encodingEv
_ZNKSt20__codecvt_utf16_baseIwE11do_encodingEv
_ZNKSt25__codecvt_utf8_utf16_baseIDiE11do_encodingEv
_ZNKSt25__codecvt_utf8_utf16_baseIDsE11do_encodingEv
_ZNKSt25__codecvt_utf8_utf16_baseIwE11do_encodingEv
_ZNKSt7codecvtIDiDu11__mbstate_tE11do_encodingEv
_ZNKSt7codecvtIDic11__mbstate_tE11do_encodingEv
_ZNKSt7codecvtIDsDu11__mbstate_tE11do_encodingEv
_ZNKSt7codecvtIDsc11__mbstate_tE11do_encodingEv
_ZNKSt19__codecvt_utf8_baseIDiE16do_always_noconvEv
_ZNKSt19__codecvt_utf8_baseIDsE16do_always_noconvEv
_ZNKSt19__codecvt_utf8_baseIwE16do_always_noconvEv
_ZNKSt20__codecvt_utf16_baseIDiE16do_always_noconvEv
_ZNKSt20__codecvt_utf16_baseIDsE16do_always_noconvEv
_ZNKSt20__codecvt_utf16_baseIwE16do_always_noconvEv
_ZNKSt25__codecvt_utf8_utf16_baseIDiE16do_always_noconvEv
_ZNKSt25__codecvt_utf8_utf16_baseIDsE16do_always_noconvEv
_ZNKSt25__codecvt_utf8_utf16_baseIwE16do_always_noconvEv
_ZNKSt7codecvtIDiDu11__mbstate_tE16do_always_noconvEv
_ZNKSt7codecvtIDic11__mbstate_tE16do_always_noconvEv
_ZNKSt7codecvtIDsDu11__mbstate_tE16do_always_noconvEv
_ZNKSt7codecvtIDsc11__mbstate_tE16do_always_noconvEv
_ZNKSt7codecvtIDiDu11__mbstate_tE13do_max_lengthEv
_ZNKSt7codecvtIDic11__mbstate_tE13do_max_lengthEv
_ZNKSt7codecvtIDsDu11__mbstate_tE13do_max_lengthEv
_ZNKSt7codecvtIDsc11__mbstate_tE13do_max_lengthEv
_ZNKSt7codecvtIDiDu11__mbstate_tE10do_unshiftERS0_PDuS3_RS3_
_ZNKSt7codecvtIDsDu11__mbstate_tE10do_unshiftERS0_PDuS3_RS3_
_ZNSt12_GLOBAL__N_121write_utf8_code_pointIcEEbRNS_5rangeIT_Lb1EEEDi
_ZNSt12_GLOBAL__N_120read_utf8_code_pointIcEEDiRNS_5rangeIKT_Lb1EEEm
_ZNSt12_GLOBAL__N_121write_utf8_code_pointIDuEEbRNS_5rangeIT_Lb1EEEDi
_ZNSt9basic_iosIwSt11char_traitsIwEE15_M_cache_localeERKSt6locale
_ZNSt9basic_iosIwSt11char_traitsIwEE4initEPSt15basic_streambufIwS1_E
_ZNSt8ios_base7_M_initEv
_ZNSt8ios_baseC1Ev
_ZNSt8ios_baseC2Ev
_ZNSt8ios_base17_M_call_callbacksENS_5eventE.cold
_ZNSt8ios_base17_M_call_callbacksENS_5eventE
_ZNSt8ios_base20_M_dispose_callbacksEv
_ZNSt8ios_baseD1Ev
_ZNSt8ios_baseD2Ev
_ZNSt8ios_baseD0Ev
_ZNK12_GLOBAL__N_117io_error_category4nameEv
_ZN12_GLOBAL__N_113constant_initD1Ev
_ZN12_GLOBAL__N_113constant_initD2Ev
_ZN12_GLOBAL__N_117io_error_categoryD1Ev
_ZN12_GLOBAL__N_117io_error_categoryD2Ev
_ZN12_GLOBAL__N_117io_error_categoryD0Ev
_ZNK12_GLOBAL__N_117io_error_category7messageB5cxx11Ei.cold
_ZNK12_GLOBAL__N_117io_error_category7messageB5cxx11Ei
_ZSt17iostream_categoryv
_GLOBAL__sub_I_ios_errcat.cc
_ZNSiD1Ev
_ZTv0_n24_NSiD1Ev
_ZNSiD0Ev
_ZNKSt7codecvtIDsDu11__mbstate_tE9do_lengthERS0_PKDuS4_m
_ZNKSt7codecvtIDsDu11__mbstate_tE6do_outERS0_PKDsS4_RS4_PDuS6_RS6_
_ZNSt12_GLOBAL__N_19utf16_outIDscEENSt12codecvt_base6resultERNS_5rangeIKT_Lb1EEERNS3_IT0_Lb1EEEmSt12codecvt_modeNS_10surrogatesE
_ZNKSt7codecvtIDsc11__mbstate_tE6do_outERS0_PKDsS4_RS4_PcS6_RS6_
_ZNSt12_GLOBAL__N_18utf16_inIcDsEENSt12codecvt_base6resultERNS_5rangeIKT_Lb1EEERNS3_IT0_Lb1EEEmSt12codecvt_mode
_ZNKSt7codecvtIDsc11__mbstate_tE5do_inERS0_PKcS4_RS4_PDsS6_RS6_
_ZNKSt7codecvtIDic11__mbstate_tE9do_lengthERS0_PKcS4_m
_ZNKSt7codecvtIDsDu11__mbstate_tE5do_inERS0_PKDuS4_RS4_PDsS6_RS6_
_ZNKSt7codecvtIDic11__mbstate_tE5do_inERS0_PKcS4_RS4_PDiS6_RS6_
_ZNKSt8__detail20_Prime_rehash_policy14_M_need_rehashEmmm
_ZNSt9basic_iosIcSt11char_traitsIcEED1Ev
_ZNSt9basic_iosIcSt11char_traitsIcEED2Ev
_ZNSt9basic_iosIwSt11char_traitsIwEED1Ev
_ZNSt9basic_iosIwSt11char_traitsIwEED2Ev
_ZNSt9basic_iosIcSt11char_traitsIcEED0Ev
_ZNSt9basic_iosIwSt11char_traitsIwEED0Ev
_ZNSt9basic_iosIcSt11char_traitsIcEE5clearESt12_Ios_Iostate
_ZNSt9basic_iosIcSt11char_traitsIcEE11_M_setstateESt12_Ios_Iostate
_ZNSt9basic_iosIcSt11char_traitsIcEE15_M_cache_localeERKSt6locale
_ZNSt9basic_iosIcSt11char_traitsIcEE4initEPSt15basic_streambufIcS1_E
_ZNSt9basic_iosIwSt11char_traitsIwEE5clearESt12_Ios_Iostate
_ZNSt9basic_iosIwSt11char_traitsIwEE11_M_setstateESt12_Ios_Iostate
_RNvNtCs7QmvgyBSXbk_3std3env7__var_os
_RNvXNvNtCs7QmvgyBSXbk_3std2io17default_write_fmtINtB2_7AdapterNtNtNtNtB6_3sys5stdio4unix6StderrENtNtCshzHRevywlmE_4core3fmt5Write9write_strB6_
_RNvYINtNvNtCs7QmvgyBSXbk_3std2io17default_write_fmt7AdapterNtNtNtNtB9_3sys5stdio4unix6StderrENtNtCshzHRevywlmE_4core3fmt5Write10write_charB9_
_RNvYINtNvNtCs7QmvgyBSXbk_3std2io17default_write_fmt7AdapterNtNtNtNtB9_3sys5stdio4unix6StderrENtNtCshzHRevywlmE_4core3fmt5Write9write_fmtB9_
_RNvXNtCshzHRevywlmE_4core3anyReNtB2_3Any7type_idCs7QmvgyBSXbk_3std
_RNvNvNtNtNtNtCs7QmvgyBSXbk_3std3sys4args4unix3imp15ARGV_INIT_ARRAY12init_wrapper
_RINvNtCshzHRevywlmE_4core9panicking13assert_failedllECs7QmvgyBSXbk_3std
_RNvXs1g_NtCshzHRevywlmE_4core3fmtRlNtB6_5Debug3fmtCs7QmvgyBSXbk_3std
_RINvNtCshzHRevywlmE_4core9panicking13assert_failedmmECs7QmvgyBSXbk_3std
_RNvXNtNtCs7QmvgyBSXbk_3std2io5errorNtB2_5ErrorNtNtCshzHRevywlmE_4core3fmt5Debug3fmt
_ZL9unix_mmapPvmmibbPb
_Z19_mi_prim_random_bufPvm
_ZL15mi_pthread_donePv
_ZL17mi_process_attachv
_ZL26mi_free_generic_local_profP9mi_page_sPv
mi_thread_init
_Z17_mi_is_theap_mainPK10mi_theap_s
_ZL17mi_heap_main_initv
_Z15_mi_thread_doneP10mi_theap_s
_ZL11mi_tld_freeP8mi_tld_s
mi_thread_set_in_threadpool
_Z14_mi_preloadingv
_Z21_mi_auto_process_initv
_Z21_mi_options_post_initv
_Z24_mi_process_fork_preparev
_Z23_mi_process_fork_parentv
_Z22_mi_process_fork_childv
_Z20_mi_arenas_page_freeP9mi_page_sP10mi_theap_s
_Z14mi_bitmap_setNP11mi_bitmap_smmPm
_Z15_mi_arenas_freePvm10mi_memid_s
_Z23_mi_arenas_page_abandonP9mi_page_sP10mi_theap_s
_ZL15mi_lock_acquireP9mi_lock_s
_Z25_mi_arenas_page_unabandonP9mi_page_sP10mi_theap_s
_Z17_mi_error_messageiPKcz
_ZL23mi_arena_schedule_purgeP10mi_arena_smm
_Z15mi_bbitmap_setNP12mi_bbitmap_smm
_Z13_mi_meta_freePvm10mi_memid_s
_ZL20mi_process_init_oncev
_Z26_mi_os_alloc_huge_os_pagesmilPmS_P10mi_memid_s
_Z19_mi_warning_messagePKcz
_Z19_mi_verbose_messagePKcz
mi_reserve_huge_os_pages_interleave
_Z21_mi_heap_visit_blocksP9mi_heap_sbbbPFbPKS_PK14mi_heap_area_sPvmS6_ES6_
_Z21_mi_bitmap_forall_setP11mi_bitmap_sPFbmmP10mi_arena_sPvES2_S3_
_ZL21mi_heap_visit_page_atmmP10mi_arena_sPv
mi_options_print_out
_Z11_mi_fprintfPFvPKcPvES1_S0_z
_ZL14mi_option_initP16mi_option_desc_s
mi_option_set
_ZL18mi_vfprintf_threadPFvPKcPvES1_S0_S0_P13__va_list_tag
_Z17_mi_trace_messagePKcz
_Z17_mi_prim_mem_initP18mi_os_mem_config_s
_Z13_mi_vsnprintfPcmPKcP13__va_list_tag
_Z23_mi_os_get_aligned_hintmm
_Z21_mi_theap_random_nextP10mi_theap_s
_Z14_mi_os_free_exPvmb10mi_memid_sP12mi_subproc_s
_ZL15mi_os_prim_freePvmmP12mi_subproc_s
_ZL21mi_bchunk_try_clearNCP11mi_bchunk_smmPb
_ZL29mi_bchunk_try_find_and_clear8P11mi_bchunk_sPm
_ZL18mi_theap_main_initv
_ZL20mi_subproc_main_initv
_ZL17mi_out_buf_stderrPKcPv
_Z18_mi_malloc_genericP10mi_theap_smmPm
_ZL12mi_find_pageP10mi_theap_smm
_Z17_mi_page_map_initv
_Z21_mi_page_map_registerP9mi_page_s
_Z18_mi_os_random_weakm
mi_heap_dump_json
_ZL16mi_os_prim_allocmmbbPbS_
_Z20_mi_os_alloc_alignedmmbbP10mi_memid_s
_Z13_mi_os_zallocmP10mi_memid_s
_Z30_mi_os_alloc_aligned_at_offsetmmmbbP10mi_memid_s
_ZL16mi_bchunk_xsetNCbP11mi_bchunk_smmPmPb
_ZL20mi_bchunk_popcountNCP11mi_bchunk_smmm
_ZL19mi_bchunk_is_xsetNCbPK11mi_bchunk_smmm
_ZL28mi_bchunk_try_find_and_clearP11mi_bchunk_sPm
_ZL19mi_dump_block_visitPK9mi_heap_sPK14mi_heap_area_sPvmS5_
_ZL25mi_thread_local_claim_funmP10mi_arena_sPb
_ZL22unix_mmap_prim_alignedPvmmiii
sqlite3_status64
sqlite3_mutex_enter
sqlite3_mutex_leave
sqlite3_status
sqlite3_db_status64
_ZL23mi_free_generic_mt_profP9mi_page_sPv
_ZL16mi_free_block_mtP9mi_page_sP10mi_block_sb
_ZL22mi_free_try_collect_mtP9mi_page_sP10mi_block_s
_ZL26mi_abandoned_page_try_freeP9mi_page_s
_ZL29mi_abandoned_page_try_reclaimP9mi_page_sl
_ZL41mi_abandoned_page_try_reabandon_to_mappedP9mi_page_s
_ZL30mi_page_usable_aligned_size_ofPK9mi_page_sPKv
_ZL16mi_theap_try_newP10mi_theap_smb
_ZL39mi_theap_malloc_zero_aligned_at_genericP10mi_theap_smmmbPm
_ZL41mi_theap_malloc_zero_aligned_at_overallocP10mi_theap_smmmbPm
_Z22_mi_theap_options_initP10mi_theap_s
sqlite3_msize
sqlite3DeleteTrigger
sqlite3VdbeDelete
pas_utility_heap_config_specialized_local_allocator_try_allocate_inline_cases
pas_utility_heap_config_specialized_local_allocator_try_allocate_slow
pas_utility_heap_config_specialized_try_allocate_common_impl_slow
pas_utility_heap_config_specialized_try_deallocate_not_small_exclusive_segregated
pas_crash_with_info_impl0
pas_crash_with_info_impl1
pas_crash_with_info_impl2
pas_panic
pas_crash_with_info_impl
pas_assertion_failed_no_inline
pas_deallocation_did_fail
pas_reallocation_did_fail
pas_versioned_field_minimize
pas_versioned_field_maximize
pas_versioned_field_maximize_watched
at_quick_exit
atexit
__pthread_atfork
pthread_atfork
_ZNK10__cxxabiv117__class_type_info11__do_upcastEPKS0_PPv
_ZNK10__cxxabiv117__class_type_info20__do_find_public_srcElPKvPKS0_S2_
_ZN10__cxxabiv117__class_type_infoD1Ev
_ZN10__cxxabiv117__class_type_infoD2Ev
_ZN10__cxxabiv117__class_type_infoD0Ev
_ZNK10__cxxabiv117__class_type_info11__do_upcastEPKS0_PKvRNS0_15__upcast_resultE
_ZNK10__cxxabiv117__class_type_info10__do_catchEPKSt9type_infoPPvj
d_maybe_print_fold_expression
d_maybe_print_designated_init
__cxa_demangle
__gcclibcxx_demangle_callback
_ZL17mi_random_init_exP15mi_random_cxt_sb
mi_process_info_print_out
mi_process_info
_ZL16mi_printf_amountllPFvPKcPvES1_S0_
_Z15_mi_stats_printPKcmPK10mi_stats_sPFvS0_PvES4_
__cpu_indicator_init
init_dwarf_reg_size_table
uw_install_context_1
_ZZNSt9once_flag18_Prepare_executionC1IZSt9call_onceIZL27us_internal_init_root_certsPP7x509_stRP13stack_st_X509E3$_0JEEvRS_OT_DpOT0_EUlvE_EERSB_ENUlvE_8__invokeEv
sk_X509_call_free_func
_ZNSt8_Rb_treeISt17basic_string_viewIcSt11char_traitsIcEESt4pairIKS3_St10unique_ptrI8sni_nodeSt14default_deleteIS7_EEESt10_Select1stISB_ESt4lessIS3_ESaISB_EE8_M_eraseEPSt13_Rb_tree_nodeISB_E
_ZZNSt9once_flag18_Prepare_executionC1IZSt9call_onceIZ33us_get_root_system_cert_instancesvE3$_0JEEvRS_OT_DpOT0_EUlvE_EERS5_ENUlvE_8__invokeEv
_ZZNSt9once_flag18_Prepare_executionC1IZSt9call_onceIZ30us_get_shared_default_ca_storeE3$_0JEEvRS_OT_DpOT0_EUlvE_EERS5_ENUlvE_8__invokeEv
_ZNSt8_Rb_treeISt17basic_string_viewIcSt11char_traitsIcEESt4pairIKS3_St10unique_ptrI8sni_nodeSt14default_deleteIS7_EEESt10_Select1stISB_ESt4lessIS3_ESaISB_EE12_M_erase_auxESt23_Rb_tree_const_iteratorISB_E
_ZNSt8_Rb_treeISt17basic_string_viewIcSt11char_traitsIcEESt4pairIKS3_St10unique_ptrI8sni_nodeSt14default_deleteIS7_EEESt10_Select1stISB_ESt4lessIS3_ESaISB_EE22_M_emplace_hint_uniqueIJS3_SA_EEESt17_Rb_tree_iteratorISB_ESt23_Rb_tree_const_iteratorISB_EDpOT_
Bun__setSamplingInterval
_ZN3Bun19setSamplingIntervalEi
_ZN3Bun20isCPUProfilerRunningEv
_ZN3Bun16startCPUProfilerERN3JSC2VME
_ZN3Bun15stopCPUProfilerERN3JSC2VMEPN3WTF6StringES5_
_ZNK9__gnu_cxx24__concurrence_lock_error4whatEv
_ZNK9__gnu_cxx26__concurrence_unlock_error4whatEv
_ZN9__gnu_cxx24__concurrence_lock_errorD1Ev
_ZN9__gnu_cxx24__concurrence_lock_errorD2Ev
_ZN9__gnu_cxx24__concurrence_lock_errorD0Ev
_ZN9__gnu_cxx26__concurrence_unlock_errorD1Ev
_ZN9__gnu_cxx26__concurrence_unlock_errorD2Ev
_ZN9__gnu_cxx26__concurrence_unlock_errorD0Ev
_ZN9__gnu_cxx30__throw_concurrence_lock_errorEv
_ZN9__gnu_cxx32__throw_concurrence_unlock_errorEv
_ZN12_GLOBAL__N_14pool4freeEPv.constprop.0.cold
_ZN12_GLOBAL__N_14pool4freeEPv.constprop.0
_ZN12_GLOBAL__N_14pool8allocateEm.constprop.0.cold
_ZN12_GLOBAL__N_14pool8allocateEm.constprop.0
__cxa_allocate_exception.cold
__cxa_allocate_exception
__cxa_free_exception
_GLOBAL__sub_I_eh_alloc.cc
_ZL23__gxx_exception_cleanup19_Unwind_Reason_CodeP17_Unwind_Exception
__cxa_init_primary_exception
__cxa_throw
__cxa_rethrow.cold
__cxa_rethrow
__cxa_guard_acquire.cold
__cxa_guard_acquire
__cxa_guard_release
_ZN9__gnu_cxx20recursive_init_errorD1Ev
_ZN9__gnu_cxx20recursive_init_errorD2Ev
_ZN9__gnu_cxx20recursive_init_errorD0Ev
_ZN9__gnu_cxx20recursive_init_errorC1Ev
_ZN9__gnu_cxx20recursive_init_errorC2Ev
_ZSt11_Hash_bytesPKvmm
_ZSt15get_new_handlerv
__cxa_pure_virtual
_ZN10__cxxabiv120__si_class_type_infoD1Ev
_ZN10__cxxabiv120__si_class_type_infoD2Ev
_ZN10__cxxabiv120__si_class_type_infoD0Ev
_ZNK10__cxxabiv120__si_class_type_info12__do_dyncastElNS_17__class_type_info10__sub_kindEPKS1_PKvS4_S6_RNS1_16__dyncast_resultE
_ZNK10__cxxabiv120__si_class_type_info20__do_find_public_srcElPKvPKNS_17__class_type_infoES2_
_ZNK10__cxxabiv120__si_class_type_info11__do_upcastEPKNS_17__class_type_infoEPKvRNS1_15__upcast_resultE
_ZNSt9type_infoD1Ev
_ZNSt9type_infoD2Ev
_ZNKSt9type_info14__is_pointer_pEv
_ZNKSt9type_info15__is_function_pEv
_ZN10__cxxabiv121__vmi_class_type_infoD1Ev
_ZN10__cxxabiv121__vmi_class_type_infoD2Ev
_ZN10__cxxabiv121__vmi_class_type_infoD0Ev
_ZNK10__cxxabiv121__vmi_class_type_info20__do_find_public_srcElPKvPKNS_17__class_type_infoES2_
lshpack_dec_huff_decode
XXH32
__libc_malloc
malloc
mi_malloc
__libc_calloc
calloc
mi_calloc
__libc_realloc
mi_realloc
realloc
_ZdaPv
_ZdlPv
__libc_cfree
__libc_free
free
mi_free
mi_strdup
strdup
mi_strndup
strndup
_Znam
_Znwm
mi_new
_ZnwmRKSt9nothrow_t
_ZdaPvm
_ZdlPvm
mi_free_size
malloc_size
malloc_usable_size
mi_usable_size
posix_memalign
aligned_alloc
mi_malloc_aligned
_ZL21mi_free_generic_localP9mi_page_sPv
_ZL18mi_free_generic_mtP9mi_page_sPv
mi_heap_malloc
mi_zalloc
mi_expand
_Z22_mi_theap_realloc_zeroP10mi_theap_sPvmbPmS2_
_ZL10mi_out_bufPKcPv
_ZL21mi_recurse_enter_primv
_ZL20mi_recurse_exit_primv
_ZL29mi_page_queue_enqueue_from_exP15mi_page_queue_sS0_bP9mi_page_s
_ZL20mi_page_queue_removeP15mi_page_queue_sP9mi_page_s
_Z15_mi_page_unfullP9mi_page_s
_Z15_mi_page_retireP9mi_page_s
_Z25_mi_theap_collect_retiredP10mi_theap_sb
_ZL19mi_page_extend_freeP10mi_theap_sP9mi_page_s
_Z17_mi_deferred_freeP10mi_theap_sb
_Z16_mi_os_commit_exPvmPbm
_Z12_mi_os_resetPvm
_Z15_mi_os_purge_exPvmbmPFbbS_mPbS_ES_
_Z28_mi_prim_alloc_huge_os_pagesPvmiPbPS_
_Z24_mi_prim_numa_node_countv
_ZL19mi_os_numa_node_getv
_ZL6mi_binm
_Z21_mi_page_free_collectP9mi_page_sb
_Z28_mi_page_free_collect_partlyP9mi_page_sP10mi_block_s
_ZL31mi_page_thread_collect_to_localP9mi_page_sP10mi_block_s
_Z22_mi_theap_page_reclaimP10mi_theap_sP9mi_page_s
_Z16_mi_page_abandonP9mi_page_sP15mi_page_queue_s
_ZL24mi_page_free_list_extendP9mi_page_smm
_ZL18mi_huge_page_allocP10mi_theap_smmP15mi_page_queue_s
_ZL18mi_page_queue_pushP10mi_theap_sP15mi_page_queue_sP9mi_page_s
_ZL26mi_page_queue_find_free_exP10mi_theap_sP15mi_page_queue_sb
_ZL26mi_page_map_set_range_primP9mi_page_smmm
_ZL10mi_try_newmb
mi_zalloc_aligned
mi_realloc_aligned
mi_heap_realloc_aligned
mi_is_in_heap_region
_Z24_mi_arenas_alloc_alignedP9mi_heap_smmmbbP10mi_arena_smiP10mi_memid_s
_ZL19mi_arenas_try_allocP9mi_heap_smmbbP10mi_arena_smiP10mi_memid_s
_ZL30mi_arenas_page_singleton_allocP10mi_theap_smm
_ZL28mi_arenas_page_regular_allocP10mi_theap_smm
_ZL32mi_theap_realloc_zero_aligned_atP10mi_theap_sPvmmmb
_ZL23mi_arenas_try_find_freeP9mi_heap_smmbbP10mi_arena_smiP10mi_memid_s
_ZL16mi_arena_reserveP12mi_subproc_smbPPv
_ZL21mi_arena_try_alloc_atP10mi_arena_smbmP10mi_memid_s
_ZL26mi_arenas_page_alloc_freshP10mi_theap_smmmb
_ZL23mi_manage_os_memory_ex2P12mi_subproc_sPvmib10mi_memid_sPFbbS1_mPbS1_ES1_PS1_
_ZL24mi_reserve_os_memory_ex2P12mi_subproc_smbbbPPv
mi_heap_main
mi_reserve_huge_os_pages_at_ex
mi_heap_visit_blocks
_Z15_mi_meta_zallocmP10mi_memid_s
_Z27_mi_theap_area_visit_blocksPK14mi_heap_area_sP9mi_page_sPFbPK9mi_heap_sS1_PvmS7_ES7_
_ZL26mi_thread_local_set_expandmPv
_ZL12chacha_blockP15mi_random_cxt_s
_ZL26mi_heap_ensure_arena_pagesP9mi_heap_sP10mi_arena_s
_ZL28mi_arena_try_claim_abandonedmP10mi_arena_sPb
_ZL26mi_arena_try_purge_visitormmP10mi_arena_sPv
_ZL24mi_arena_try_purge_rangeP10mi_arena_smm
_ZL19mi_heap_delete_pagePK9mi_heap_sPK14mi_heap_area_sPvmS5_
_Z18_mi_arenas_collectbbP8mi_tld_s
_ZL22mi_bchunks_unsafe_setNP11mi_bchunk_sS0_mm
_ZL19mi_theap_collect_exP10mi_theap_s12mi_collect_e
mi_collect
_Z14_mi_theap_initP10mi_theap_sP9mi_heap_sP8mi_tld_s
_Z14_mi_theap_freeP10mi_theap_sbb
_Z30_mi_bitmap_forall_setc_rangesnP11mi_bitmap_smPFbmmP10mi_arena_sPvES2_S3_
_Z22mi_bbitmap_try_clearNCP12mi_bbitmap_smm
_ZL20mi_bchunk_try_clearNP11mi_bchunk_smmPb
_ZL37mi_bbitmap_try_find_and_clear_genericP12mi_bbitmap_smmPmPFbP11mi_bchunk_smS1_E
_ZL30mi_bchunk_try_find_and_clear_1P11mi_bchunk_smPm
_ZL30mi_bchunk_try_find_and_clear_8P11mi_bchunk_smPm
_ZL30mi_bchunk_try_find_and_clearNXP11mi_bchunk_smPm
_ZL30mi_bchunk_try_find_and_clearNCP11mi_bchunk_smPm
_Z31mi_bbitmap_try_find_and_clearN_P12mi_bbitmap_smmPm
_ZNKSt7__cxx118time_getIwSt19istreambuf_iteratorIwSt11char_traitsIwEEE11do_get_timeES4_S4_RSt8ios_baseRSt12_Ios_IostateP2tm
_ZL14mi_bchunk_setNP11mi_bchunk_smmPm
_Z16mi_bitmap_clearNP11mi_bitmap_smm
_Z19mi_bitmap_popcountNP11mi_bitmap_smm
_Z18mi_bitmap_is_xsetNbP11mi_bitmap_smm
_ZNKSt7__cxx118time_getIwSt19istreambuf_iteratorIwSt11char_traitsIwEEE11do_get_dateES4_S4_RSt8ios_baseRSt12_Ios_IostateP2tm
_ZNKSt7__cxx118time_getIwSt19istreambuf_iteratorIwSt11char_traitsIwEEE6do_getES4_S4_RSt8ios_baseRSt12_Ios_IostateP2tmcc
_GLOBAL__sub_I_cxx11_wlocale_inst.cc
_ZN9__gnu_cxx18stdio_sync_filebufIcSt11char_traitsIcEED1Ev
_ZN9__gnu_cxx18stdio_sync_filebufIcSt11char_traitsIcEED2Ev
_ZN9__gnu_cxx18stdio_sync_filebufIcSt11char_traitsIcEED0Ev
_ZN9__gnu_cxx18stdio_sync_filebufIwSt11char_traitsIwEED1Ev
_ZN9__gnu_cxx18stdio_sync_filebufIwSt11char_traitsIwEED2Ev
_ZN9__gnu_cxx18stdio_sync_filebufIwSt11char_traitsIwEED0Ev
_ZN9__gnu_cxx18stdio_sync_filebufIcSt11char_traitsIcEE5uflowEv
_ZN9__gnu_cxx18stdio_sync_filebufIcSt11char_traitsIcEE9underflowEv
_ZN9__gnu_cxx18stdio_sync_filebufIcSt11char_traitsIcEE9pbackfailEi
_ZN9__gnu_cxx18stdio_sync_filebufIcSt11char_traitsIcEE4syncEv
_ZN9__gnu_cxx18stdio_sync_filebufIwSt11char_traitsIwEE4syncEv
_ZN9__gnu_cxx18stdio_sync_filebufIcSt11char_traitsIcEE7seekoffElSt12_Ios_SeekdirSt13_Ios_Openmode
_ZN9__gnu_cxx18stdio_sync_filebufIwSt11char_traitsIwEE7seekoffElSt12_Ios_SeekdirSt13_Ios_Openmode
_ZN9__gnu_cxx18stdio_sync_filebufIwSt11char_traitsIwEE5uflowEv
_ZN9__gnu_cxx18stdio_sync_filebufIwSt11char_traitsIwEE6xsgetnEPwl
_ZN9__gnu_cxx18stdio_sync_filebufIwSt11char_traitsIwEE9underflowEv
_ZN9__gnu_cxx18stdio_sync_filebufIwSt11char_traitsIwEE9pbackfailEj
_ZN9__gnu_cxx18stdio_sync_filebufIwSt11char_traitsIwEE6xsputnEPKwl
_ZN9__gnu_cxx18stdio_sync_filebufIcSt11char_traitsIcEE6xsputnEPKcl
_ZN9__gnu_cxx18stdio_sync_filebufIcSt11char_traitsIcEE6xsgetnEPcl
_ZN9__gnu_cxx18stdio_sync_filebufIwSt11char_traitsIwEE8overflowEj
_ZN9__gnu_cxx18stdio_sync_filebufIcSt11char_traitsIcEE8overflowEi
_ZN9__gnu_cxx18stdio_sync_filebufIwSt11char_traitsIwEE7seekposESt4fposI11__mbstate_tESt13_Ios_Openmode
_ZN9__gnu_cxx18stdio_sync_filebufIcSt11char_traitsIcEE7seekposESt4fposI11__mbstate_tESt13_Ios_Openmode
_ZNSt8ios_base7failureB5cxx11D1Ev
_ZNSt8ios_base7failureB5cxx11D2Ev
_ZNSt8ios_base7failureB5cxx11D0Ev
_ZNKSt8ios_base7failureB5cxx114whatEv
_ZNSt19__iosfail_type_infoD1Ev
_ZNSt19__iosfail_type_infoD2Ev
_ZNSt19__iosfail_type_infoD0Ev
_ZNKSt19__iosfail_type_info11__do_upcastEPKN10__cxxabiv117__class_type_infoEPPv
_ZNSt13__ios_failureD1Ev
_ZNSt13__ios_failureD2Ev
_ZNSt13__ios_failureD0Ev
_ZNSt8ios_base7failureB5cxx11C2EPKcRKSt10error_code.cold
_ZNSt8ios_base7failureB5cxx11C1EPKcRKSt10error_code
_ZNSt8ios_base7failureB5cxx11C2EPKcRKSt10error_code
_ZSt19__throw_ios_failurePKc
_ZNSt7__cxx1112basic_stringIcSt11char_traitsIcESaIcEE12_M_constructEmc
_ZNSt7__cxx1112basic_stringIcSt11char_traitsIcESaIcEE8_M_eraseEmm
_ZNSt7__cxx1112basic_stringIcSt11char_traitsIcESaIcEE14_M_replace_auxEmmmc
_ZNSt7__cxx1112basic_stringIcSt11char_traitsIcESaIcEE6resizeEmc
_ZNSt7__cxx1112basic_stringIcSt11char_traitsIcESaIcEE9_M_appendEPKcm
_ZNKSt7__cxx1112basic_stringIcSt11char_traitsIcESaIcEE4copyEPcmm
_ZNSt7__cxx1112basic_stringIcSt11char_traitsIcESaIcEE4swapERS4_
_ZNKSt7__cxx1112basic_stringIcSt11char_traitsIcESaIcEE17find_first_not_ofEcm
_ZNK12_GLOBAL__N_122generic_error_category4nameEv
_ZNK12_GLOBAL__N_122generic_error_category10equivalentEiRKSt15error_condition
_ZNK12_GLOBAL__N_121system_error_category4nameEv
_ZNK12_GLOBAL__N_121system_error_category23default_error_conditionEi
_ZNKSt3_V214error_category23default_error_conditionEi
_ZNKSt3_V214error_category10equivalentEiRKSt15error_condition
_ZNKSt3_V214error_category10equivalentERKSt10error_codei
_ZN12_GLOBAL__N_113constant_initINS_22generic_error_categoryEED1Ev
_ZN12_GLOBAL__N_113constant_initINS_22generic_error_categoryEED2Ev
_ZN12_GLOBAL__N_113constant_initINS_21system_error_categoryEED1Ev
_ZN12_GLOBAL__N_113constant_initINS_21system_error_categoryEED2Ev
_ZNK12_GLOBAL__N_122generic_error_category7messageB5cxx11Ei.cold
_ZNK12_GLOBAL__N_121system_error_category7messageB5cxx11Ei
_ZNK12_GLOBAL__N_122generic_error_category7messageB5cxx11Ei
_ZNSt12system_errorD1Ev
_ZNSt12system_errorD2Ev
_ZNSt12system_errorD0Ev
_ZNKSt3_V214error_category10_M_messageB5cxx11Ei.cold
_ZNKSt3_V214error_category10_M_messageB5cxx11Ei
_ZNK12_GLOBAL__N_121system_error_category10equivalentEiRKSt15error_condition
_ZSt20__throw_system_errori
_ZNSt3_V214error_categoryD1Ev
_ZNSt3_V214error_categoryD2Ev
_ZN12_GLOBAL__N_122generic_error_categoryD1Ev
_ZN12_GLOBAL__N_122generic_error_categoryD2Ev
_ZN12_GLOBAL__N_122generic_error_categoryD0Ev
_ZN12_GLOBAL__N_121system_error_categoryD1Ev
_ZN12_GLOBAL__N_121system_error_categoryD2Ev
_ZN12_GLOBAL__N_121system_error_categoryD0Ev
_GLOBAL__sub_I_system_error.cc
_ZNKSt10moneypunctIwLb0EE16do_decimal_pointEv
_ZNKSt10moneypunctIwLb0EE16do_thousands_sepEv
_ZNKSt10moneypunctIwLb0EE14do_frac_digitsEv
_ZNKSt10moneypunctIwLb0EE13do_pos_formatEv
_ZNKSt10moneypunctIwLb0EE13do_neg_formatEv
_ZNKSt10moneypunctIwLb1EE16do_decimal_pointEv
_ZNKSt10moneypunctIwLb1EE16do_thousands_sepEv
_ZNKSt10moneypunctIwLb1EE14do_frac_digitsEv
_ZNKSt10moneypunctIwLb1EE13do_pos_formatEv
_ZNKSt10moneypunctIwLb1EE13do_neg_formatEv
_ZNKSt8numpunctIwE16do_decimal_pointEv
_ZNKSt8numpunctIwE16do_thousands_sepEv
_ZNKSt8time_getIwSt19istreambuf_iteratorIwSt11char_traitsIwEEE13do_date_orderEv
_ZNKSt7collateIwE7do_hashEPKwS2_
_ZNSt7num_getIwSt19istreambuf_iteratorIwSt11char_traitsIwEEED1Ev
_ZNSt7num_getIwSt19istreambuf_iteratorIwSt11char_traitsIwEEED2Ev
_ZNSt7num_putIwSt19ostreambuf_iteratorIwSt11char_traitsIwEEED1Ev
_ZNSt7num_putIwSt19ostreambuf_iteratorIwSt11char_traitsIwEEED2Ev
_ZNSt9money_getIwSt19istreambuf_iteratorIwSt11char_traitsIwEEED1Ev
_ZNSt9money_getIwSt19istreambuf_iteratorIwSt11char_traitsIwEEED2Ev
_ZNSt9money_putIwSt19ostreambuf_iteratorIwSt11char_traitsIwEEED1Ev
_ZNSt9money_putIwSt19ostreambuf_iteratorIwSt11char_traitsIwEEED2Ev
_ZNSt17__timepunct_cacheIwED1Ev
_ZNSt17__timepunct_cacheIwED2Ev
_ZNSt8time_putIwSt19ostreambuf_iteratorIwSt11char_traitsIwEEED1Ev
_ZNSt8time_putIwSt19ostreambuf_iteratorIwSt11char_traitsIwEEED2Ev
_ZNSt8time_getIwSt19istreambuf_iteratorIwSt11char_traitsIwEEED1Ev
_ZNSt8time_getIwSt19istreambuf_iteratorIwSt11char_traitsIwEEED2Ev
_ZNSt7num_getIwSt19istreambuf_iteratorIwSt11char_traitsIwEEED0Ev
header_out_begin_dynamic_nameref
_ZNKSt9money_getIwSt19istreambuf_iteratorIwSt11char_traitsIwEEE6do_getES3_S3_bRSt8ios_baseRSt12_Ios_IostateRe
_ZNKSt9money_getIwSt19istreambuf_iteratorIwSt11char_traitsIwEEE6do_getES3_S3_bRSt8ios_baseRSt12_Ios_IostateRSbIwS2_SaIwEE
_GLOBAL__sub_I_wlocale_inst.cc
_ZNSt7__cxx1112basic_stringIwSt11char_traitsIwESaIwEE9_M_createERmm
_ZNSt7__cxx1112basic_stringIwSt11char_traitsIwESaIwEE10_M_disposeEv
_ZNSt7__cxx1112basic_stringIwSt11char_traitsIwESaIwEE12_M_constructEmw
_ZNSt7__cxx1112basic_stringIwSt11char_traitsIwESaIwEE9_M_mutateEmmPKwm
_ZNSt7__cxx1112basic_stringIwSt11char_traitsIwESaIwEE7reserveEm
_ZNSt7__cxx1112basic_stringIwSt11char_traitsIwESaIwEE14_M_replace_auxEmmmw
_ZNSt7__cxx1112basic_stringIwSt11char_traitsIwESaIwEE6resizeEmw
_ZNSt7__cxx1112basic_stringIwSt11char_traitsIwESaIwEE15_M_replace_coldEPwmPKwmm
_ZNSt7__cxx1112basic_stringIwSt11char_traitsIwESaIwEE10_M_replaceEmmPKwm
_ZNSt7__cxx1112basic_stringIwSt11char_traitsIwESaIwEE9_M_appendEPKwm
_ZNKSt7__cxx1112basic_stringIwSt11char_traitsIwESaIwEE4copyEPwmm
header_out_write_value
qdec_remove_overflow_entries
Bun__panic
main
_RNvNtCsHBZx8BfDme_9addr2line4line9path_push
_RNvNtCse5KqMmyHi46_17bun_crash_handler5draft6report
_RNvNtCse5KqMmyHi46_17bun_crash_handler5draft29update_posix_segfault_handler
_RNvXs1i_NtCshzHRevywlmE_4core3fmtRxNtB6_7Display3fmtCse5KqMmyHi46_17bun_crash_handler
_RNvNtCse5KqMmyHi46_17bun_crash_handler5draft5crash
_RNvXNvNtNtNtCsgtociwQ8c96_8bun_core4util2io5Write9write_fmtINtB2_6BridgeINtNtBa_13bounded_array19BoundedArrayAlignedhKj400_EENtNtCshzHRevywlmE_4core3fmt5Write9write_strCse5KqMmyHi46_17bun_crash_handler
_RNvYINtNvNtNtNtCsgtociwQ8c96_8bun_core4util2io5Write9write_fmt6BridgeINtNtBd_13bounded_array19BoundedArrayAlignedhKj400_EENtNtCshzHRevywlmE_4core3fmt5Write10write_charCse5KqMmyHi46_17bun_crash_handler
_RNvYINtNvNtNtNtCsgtociwQ8c96_8bun_core4util2io5Write9write_fmt6BridgeINtNtBd_13bounded_array19BoundedArrayAlignedhKj400_EENtNtCshzHRevywlmE_4core3fmt5Write9write_fmtCse5KqMmyHi46_17bun_crash_handler
_RINvMNtNtCs7QmvgyBSXbk_3std4sync9once_lockINtB3_8OnceLockRShE10initializeNCINvB2_11get_or_initNCNvNtCse5KqMmyHi46_17bun_crash_handler5draft15report_base_url0E0zEB1A_
_RINvNtCse5KqMmyHi46_17bun_crash_handler5draft21write_u64_as_two_vlqsNtNtCsaSVDFYo9UGz_6bun_io5write10FmtAdapterEB4_
_RNvMs4_NtCse5KqMmyHi46_17bun_crash_handler5draftNtB5_9StackLine12from_address
_RINvMs4_NtCse5KqMmyHi46_17bun_crash_handler5draftNtB6_9StackLine13write_encodedNtNtCsaSVDFYo9UGz_6bun_io5write10FmtAdapterEB8_
_RNvCsdAZa0WVRlFk_9bun_alloc10trim_right
lshpack_wrapper_encode
lshpack_wrapper_decode
lshpack_wrapper_enc_set_max_capacity
lshpack_wrapper_deinit
sys_preadv2
sys_pwritev2
bun_restore_stdio
onExitSignal
bun_initialize_process
_ZZ22bun_initialize_processENK3$_0clEi
open_as_nonblocking_tty
Bun__ramSize
ffi_vprintf
ffi_vfprintf
ffi_printf
ffi_fprintf
ffi_scanf
ffi_fscanf
ffi_vsscanf
ffi_sscanf
ffi_fopen
ffi_fclose
ffi_fgetc
ffi_fputc
ffi_ungetc
ffi_feof
ffi_fseek
ffi_ftell
ffi_fflush
ffi_fileno
Bun__sendPendingSignalIfNecessary
Bun__registerSignalsForForwarding
Bun__unregisterSignalsForForwarding
Bun__getStandaloneModuleGraphELFVaddr
Bun__startMacro
_RINvMsD_NtCsgtociwQ8c96_8bun_core4utilINtB6_4OnceNtNtB8_6output10ColorDepthE9init_slowNvBN_19compute_color_depthEB8_
_RNvNtNtCsgtociwQ8c96_8bun_core7env_var11FORCE_COLOR16get_force_reload
_RNvNtNtCsgtociwQ8c96_8bun_core7env_var8NO_COLOR3get
_RNvNtNtCsgtociwQ8c96_8bun_core7env_var2CI3get
_RNvMs2_NtNtNtCsgtociwQ8c96_8bun_core7env_var4kind8unsignedNtB5_5Cache12handle_error
_RINvMsD_NtCsgtociwQ8c96_8bun_core4utilINtB6_4OncetE9init_slowNCNvB6_16get_thread_count0EB8_
_RINvMsD_NtCsgtociwQ8c96_8bun_core4utilINtB6_4OnceINtNtCs4YSnrHLetPa_5alloc3vec3VecNtB6_4ZBoxEE9init_slowNCNvB6_12argv_storage0EB8_
_RNvNtCsgtociwQ8c96_8bun_core4util15once_claim_slow
_RINvMsD_NtCsgtociwQ8c96_8bun_core4utilINtB6_4OnceINtNtCs4YSnrHLetPa_5alloc3vec3VecRNtB6_4ZStrEE9init_slowNCNvB6_14argv_view_init0EB8_
_RINvMsD_NtCsgtociwQ8c96_8bun_core4utilINtB6_4OnceINtNtCs4YSnrHLetPa_5alloc5boxed3BoxSNtNtB8_6result5ErrorEE9init_slowNCNvMB1n_B1l_10from_errno0EB8_
posix_spawn_bun
bun_icu_maybe_decompress
_ZN3Bun15ICUDecompressor3getEv
_ZN3Bun15ICUDecompressor10decompressEPKvPi
bun_warn_avx_missing
get_process_priority
set_process_priority
is_executable_file
bun_sysconf__SC_NPROCESSORS_ONLN
Bun__memoryFootprint
bun_close_range
on_before_reload_process_linux
lshpack_wrapper_init
_ZN3Bun21jsFunctionBunWrapAnsiEPN3JSC14JSGlobalObjectEPNS0_9CallFrameE
_ZN3Bun23base64URLEncodeToStringEN3WTF6VectorIhLm0ENS0_15CrashOnOverflowELm16ENS0_10FastMallocEEE
_ZN3Bun11toISOStringERN3JSC2VMEdPc
Bun__StackCheck__initialize
Bun__StackCheck__getMaxStack
WTF__numberOfProcessorCores
WTF__releaseFastMallocFreeMemoryForThisThread
Bun__xxhash3_64_forTesting
_ZN3WTF5sleepENS_7SecondsE
_ZN3WTF11StackBounds20newThreadStackBoundsEm
_ZN3WTF11StackBounds32currentThreadStackBoundsInternalEv
WTFGetBacktrace
_ZN3WTF10StackTrace17captureStackTraceEmm
_RINvMs_NtCse0gOrsKjhbD_11bun_bundler20PathToSourceIndexMapNtB5_20PathToSourceIndexMap6removeRShECs1yUlXPGwCKD_11bun_runtime
_RNvMsl_NtNtCs1yUlXPGwCKD_11bun_runtime5shell7subprocNtB5_10PipeReader13on_read_chunk
_RNvMsl_NtNtCs1yUlXPGwCKD_11bun_runtime5shell7subprocNtB5_10PipeReader14on_reader_done
_RNvMsl_NtNtCs1yUlXPGwCKD_11bun_runtime5shell7subprocNtB5_10PipeReader15on_reader_error
_RNvMsl_NtNtNtCs1yUlXPGwCKD_11bun_runtime4node2fs12__async_tasksNtB5_25AsyncReaddirRecursiveTask18run_from_js_thread
_RNvMsl_NtNtNtCs1yUlXPGwCKD_11bun_runtime4node2fs12__async_tasksNtB5_25AsyncReaddirRecursiveTask7destroy
_RNvNtCs1yUlXPGwCKD_11bun_runtime10allocators23register_safety_vtables
_RNvNtNtCs1yUlXPGwCKD_11bun_runtime4node2os9parse_u32
_RNCNvNtNtNtCs1yUlXPGwCKD_11bun_runtime4node2os5__impl15cpus_impl_linuxsa_0B9_
_RNvMs2_NtNtNtCs1yUlXPGwCKD_11bun_runtime4node2os5__implNtB7_8CPUTimes8to_value
_RNvNtNtCs1yUlXPGwCKD_11bun_runtime4bake15production_body23write_sourcemap_to_disk
_RNvMso_NtCslDwGP1S1boP_15bun_collections14array_hash_mapINtB5_18StringArrayHashMapINtNtCsgtociwQ8c96_8bun_core4util12GenericIndexmNtNtCse0gOrsKjhbD_11bun_bundler11output_file10OutputFileEE3putCs1yUlXPGwCKD_11bun_runtime
_RINvXs2J_NtNtCshzHRevywlmE_4core5slice4iterINtB7_4IterNtNtCse0gOrsKjhbD_11bun_bundler11output_file10OutputFileENtNtNtNtBb_4iter6traits8iterator8Iterator3anyNCNvNtNtCs1yUlXPGwCKD_11bun_runtime4bake15production_body13build_with_vms3_0EB2C_
_RNvMs0_NtNtCs1yUlXPGwCKD_11bun_runtime4bake15production_bodyNtB5_9PerThread11output_file
_RINvNtCshzHRevywlmE_4core3ptr13drop_in_placeINtNtCs4YSnrHLetPa_5alloc3vec3VecNtNtCs4YYdkJyg8hg_7bun_jsc8js_value9ProtectedEECs1yUlXPGwCKD_11bun_runtime
_RINvMs0_NtCs4YYdkJyg8hg_7bun_jsc8js_valueNtB6_7JSValue22create_array_from_iterINtNtNtNtCshzHRevywlmE_4core4iter8adapters3rev3RevINtNtNtB1n_5slice4iter4IterRShEERB2t_NCNvNtNtCs1yUlXPGwCKD_11bun_runtime4bake15production_body13build_with_vms5_0EB2L_
_RNvXs_NtNtCs1yUlXPGwCKD_11bun_runtime4bake15production_bodyNtNtNtNtNtCse0gOrsKjhbD_11bun_bundler9bundle_v28bv2_impl10bake_types10production13EntryPointMapNtNtB6_21framework_router_body16InsertionHandler22get_file_id_for_router
_RNvXs_NtNtCs1yUlXPGwCKD_11bun_runtime4bake15production_bodyNtNtNtNtNtCse0gOrsKjhbD_11bun_bundler9bundle_v28bv2_impl10bake_types10production13EntryPointMapNtNtB6_21framework_router_body16InsertionHandler22on_router_syntax_error
_RNvXs_NtNtCs1yUlXPGwCKD_11bun_runtime4bake15production_bodyNtNtNtNtNtCse0gOrsKjhbD_11bun_bundler9bundle_v28bv2_impl10bake_types10production13EntryPointMapNtNtB6_21framework_router_body16InsertionHandler25on_router_collision_error
_RNCINvMs0_NtNtCs7QmvgyBSXbk_3std4sync4onceNtB8_4Once15call_once_forceNCINvMNtBa_9once_lockINtB1b_8OnceLockNtNtNtCs1yUlXPGwCKD_11bun_runtime4bake15production_body15DotenvSingletonE10initializeNCINvB1a_11get_or_initNCNvB1I_13build_with_vms_0E0zE0E0B1M_
_RNSNvYNCINvMs0_NtNtCs7QmvgyBSXbk_3std4sync4onceNtBd_4Once15call_once_forceNCINvMNtBf_9once_lockINtB1g_8OnceLockNtNtNtCs1yUlXPGwCKD_11bun_runtime4bake15production_body15DotenvSingletonE10initializeNCINvB1f_11get_or_initNCNvB1N_13build_with_vms_0E0zE0E0INtNtNtCshzHRevywlmE_4core3ops8function6FnOnceTRNtBd_9OnceStateEE9call_once6vtableB1R_
_RINvMNtNtCs7QmvgyBSXbk_3std4sync9once_lockINtB3_8OnceLockINtNtCs4YSnrHLetPa_5alloc3vec3VecINtNtBY_5boxed3BoxShEEE10initializeNCINvB2_11get_or_initNCNvXNvNtNtCs1yUlXPGwCKD_11bun_runtime3cli22pm_update_package_json31update_package_json_and_installNtB2p_8AnalyzerNtNtNtCse0gOrsKjhbD_11bun_bundler9bundle_v28bv2_impl21OnDependenciesAnalyze10on_analyze0E0zEB2v_
_RINvMNtNtCs7QmvgyBSXbk_3std4sync9once_lockINtB3_8OnceLockINtNtCs4YSnrHLetPa_5alloc3vec3VecRShEE10initializeNCINvB2_11get_or_initNCNvXNvNtNtCs1yUlXPGwCKD_11bun_runtime3cli22pm_update_package_json31update_package_json_and_installNtB27_8AnalyzerNtNtNtCse0gOrsKjhbD_11bun_bundler9bundle_v28bv2_impl21OnDependenciesAnalyze10on_analyzes_0E0zEB2d_
_RNSNvYNCINvMs0_NtNtCs7QmvgyBSXbk_3std4sync4onceNtBd_4Once15call_once_forceNCINvMNtBf_9once_lockINtB1g_8OnceLockINtNtCs4YSnrHLetPa_5alloc3vec3VecRShEE10initializeNCINvB1f_11get_or_initNCNvXNvNtNtCs1yUlXPGwCKD_11bun_runtime3cli22pm_update_package_json31update_package_json_and_installNtB30_8AnalyzerNtNtNtCse0gOrsKjhbD_11bun_bundler9bundle_v28bv2_impl21OnDependenciesAnalyze10on_analyzes_0E0zE0E0INtNtNtCshzHRevywlmE_4core3ops8function6FnOnceTRNtBd_9OnceStateEE9call_once6vtableB36_
_RNCINvMs0_NtNtCs7QmvgyBSXbk_3std4sync4onceNtB8_4Once15call_once_forceNCINvMNtBa_9once_lockINtB1b_8OnceLockINtNtCs4YSnrHLetPa_5alloc3vec3VecRShEE10initializeNCINvB1a_11get_or_initNCNvXNvNtNtCs1yUlXPGwCKD_11bun_runtime3cli22pm_update_package_json31update_package_json_and_installNtB2V_8AnalyzerNtNtNtCse0gOrsKjhbD_11bun_bundler9bundle_v28bv2_impl21OnDependenciesAnalyze10on_analyzes_0E0zE0E0B31_
_RNvNtNtCs1yUlXPGwCKD_11bun_runtime3cli22pm_update_package_json43update_package_json_and_install_catch_error
_RNvNtNtCs1yUlXPGwCKD_11bun_runtime3cli3cli5start
_RNvNtNtCs1yUlXPGwCKD_11bun_runtime3cli7command5start
_RNvXsz_NtCsgtociwQ8c96_8bun_core3fmtNtB5_40QuickAndDirtyJavaScriptSyntaxHighlighterNtNtCshzHRevywlmE_4core3fmt7Display3fmt
_ZN3JSC15ProfilerSupport18getCurrentThreadIDEv
_ZN3WTF6Thread9currentIDEv
__wrap_gettid
Bun__crashHandler
_RNvNtCse5KqMmyHi46_17bun_crash_handler5draft13crash_handler
_ZL18mi_heap_init_theapPK9mi_heap_s
_Z20_mi_theap_cached_setP10mi_theap_s
mi_heap_new_in_arena
_Z23_mi_thread_local_createv
mi_heap_new
_ZL19mi_heap_free_theapsP9mi_heap_s
_ZL12mi_heap_freeP9mi_heap_s
_Z28mi_bitmap_try_find_and_claimP11mi_bitmap_smPmPFbmP10mi_arena_sPbES3_
_Z29_mi_bitmap_forall_setc_rangesP11mi_bitmap_sPFbmmP10mi_arena_sPvES2_S3_
_ZL24mi_bbitmap_set_chunk_binP12mi_bbitmap_sm13mi_chunkbin_e
_Z23_mi_heap_theap_get_peekPK9mi_heap_s
_Z19_mi_theap_main_safev
_Z26_mi_heap_theap_get_or_initPK9mi_heap_s
_ZL19_mi_heap_theap_peekPK9mi_heap_s
_RNvNtNtCs1yUlXPGwCKD_11bun_runtime3cli7command15boot_standalone
_RNvNvMs0_NtNtNtCs7QmvgyBSXbk_3std3sys6thread4unixNtB7_6Thread3new12thread_start
_RNvXs5_NtNtCs7QmvgyBSXbk_3std2io5errorNtB5_5ErrorNtNtCshzHRevywlmE_4core3fmt7Display3fmt
_RNvMs0_NtNtNtNtCs7QmvgyBSXbk_3std3sys4sync4once5futexNtB5_4Once4call
_RNvNtNtCs7QmvgyBSXbk_3std4sync9lazy_lock14panic_poisoned
_RNvMs_NtNtCs7QmvgyBSXbk_3std6thread9spawnhookNtB4_15ChildSpawnHooks3run
_RINvNtNtNtNtCs7QmvgyBSXbk_3std3sys12thread_local6native5eager7destroyINtNtCshzHRevywlmE_4core4cell4CellNtNtNtBa_6thread9spawnhook10SpawnHooksEEBa_
_RNvNtNtCs7QmvgyBSXbk_3std6thread5local18panic_access_error
_RINvNtCshzHRevywlmE_4core3ptr13drop_in_placeNtNtNtCs7QmvgyBSXbk_3std6thread9spawnhook10SpawnHooksEBM_
_RNvMsn_NtCs4YSnrHLetPa_5alloc4syncINtB5_3ArcNtNtNtCs7QmvgyBSXbk_3std6thread9spawnhook9SpawnHookE9drop_slowBM_
Bun__Process__createArgv
Bun__Process__createArgv0
_RNSNvYNCINvMs0_NtNtCs7QmvgyBSXbk_3std4sync4onceNtBd_4Once9call_onceNvNtCsgtociwQ8c96_8bun_core4util14argv_view_initE0INtNtNtCshzHRevywlmE_4core3ops8function6FnOnceTRNtBd_9OnceStateEE9call_once6vtableCs1yUlXPGwCKD_11bun_runtime
_RNCINvMs0_NtNtCs7QmvgyBSXbk_3std4sync4onceNtB8_4Once9call_onceNvNtCsgtociwQ8c96_8bun_core4util14argv_view_initE0Cs1yUlXPGwCKD_11bun_runtime
_RNvYNCINvMs0_NtNtCs7QmvgyBSXbk_3std4sync4onceNtBb_4Once9call_onceNvNtCsgtociwQ8c96_8bun_core4util14argv_view_initE0INtNtNtCshzHRevywlmE_4core3ops8function6FnOnceTRNtBb_9OnceStateEE9call_onceCs1yUlXPGwCKD_11bun_runtime
Bun__Process__createExecArgv
_RNvMs_NtNtCsgtociwQ8c96_8bun_core6string8smol_strNtB4_7SmolStr12append_slice
_RNvMs_NtNtCsgtociwQ8c96_8bun_core6string9immutableNtB4_13SplitIterator4next
_RNvNtCsgtociwQ8c96_8bun_core4util14argv_view_init
_RNvMsK_NtCslDwGP1S1boP_15bun_collections14array_hash_mapNtB5_9StringSet6insert
_RNvMs_NtCslDwGP1S1boP_15bun_collections10string_mapNtB4_9StringMap6insert
_RINvNtCsdgcXribAyfs_8bytemuck8internal20something_went_wrongNtB4_12PodCastErrorECsgtociwQ8c96_8bun_core
_RINvNtCsgtociwQ8c96_8bun_core6output16with_dest_writeruNCNvB2_11write_bytes0EB4_
_RINvNtCsgtociwQ8c96_8bun_core6output16with_dest_writeruNCNvB2_8print_to0EB4_
_RNvXNvNtCsgtociwQ8c96_8bun_core6output13write_fmt_rawNtB2_3RawNtNtCshzHRevywlmE_4core3fmt5Write9write_str
_RNvYNtNvNtCsgtociwQ8c96_8bun_core6output13write_fmt_raw3RawNtNtCshzHRevywlmE_4core3fmt5Write10write_charB8_
_RNvYNtNvNtCsgtociwQ8c96_8bun_core6output13write_fmt_raw3RawNtNtCshzHRevywlmE_4core3fmt5Write9write_fmtB8_
_RINvNtNtNtCshzHRevywlmE_4core5slice4sort8unstable7ipnsortRShNCINvMB6_SBT_16sort_unstable_byNCNvNtNtCsgtociwQ8c96_8bun_core6string9immutable8sort_asc0E0EB1z_
_RINvNtNtNtCshzHRevywlmE_4core5slice4sort8unstable7ipnsortRShNvYBT_NtNtB8_3cmp10PartialOrd2ltECs4cBhYOTeZUw_13bun_js_parser
_RINvNtNtNtNtCshzHRevywlmE_4core5slice4sort8unstable9quicksort9quicksortRShNCINvMB8_SB17_16sort_unstable_byNCNvNtNtCsgtociwQ8c96_8bun_core6string9immutable8sort_asc0E0EB1O_
_RINvNtNtNtNtCshzHRevywlmE_4core5slice4sort8unstable9quicksort9quicksortRShNvYB17_NtNtBa_3cmp10PartialOrd2ltECs4cBhYOTeZUw_13bun_js_parser
_RNvNtNtCs1yUlXPGwCKD_11bun_runtime3cli7command16exec_auto_or_run
_RNvNtNtCs1yUlXPGwCKD_11bun_runtime3cli7command5which
_RNvNtNtCs1yUlXPGwCKD_11bun_runtime3cli7command8exec_add
_RNvNtNtCs1yUlXPGwCKD_11bun_runtime3cli7command10exec_build
_RNvNtNtCs1yUlXPGwCKD_11bun_runtime3cli7command9exec_bunx
_RNvNtNtCs1yUlXPGwCKD_11bun_runtime3cli7command10bun_create
_RNvNtNtCs1yUlXPGwCKD_11bun_runtime3cli7command10exec_audit
_RNvNtNtCs1yUlXPGwCKD_11bun_runtime3cli7command8exec_why
_RNvNtNtCs1yUlXPGwCKD_11bun_runtime3cli7command19create_context_data
_RNvNtNtCs1yUlXPGwCKD_11bun_runtime3cli7command22write_context_no_parse
_RNvNtNtCs1yUlXPGwCKD_11bun_runtime3cli9arguments5parse
_RINvMs_NtCsi3R2Foos9Y_8bun_clap8comptimeINtB5_12ComptimeClapNtB7_4HelpE5parseNtNtB7_4args10OsIteratorECsj5JUsDxu4lF_11bun_install
_RINvMNtCsi3R2Foos9Y_8bun_clap8comptimeNtB3_14ConvertedTable10for_paramsNtB5_4HelpECsj5JUsDxu4lF_11bun_install
_RNvMNtCsi3R2Foos9Y_8bun_clap9streamingINtB2_13StreamingClapjNtNtB4_4args10OsIteratorE4nextCs1yUlXPGwCKD_11bun_runtime
_RNvMNtCsi3R2Foos9Y_8bun_clap9streamingINtB2_13StreamingClapjNtNtB4_4args10OsIteratorE4nextCsj5JUsDxu4lF_11bun_install
_RNvNtNtCs1yUlXPGwCKD_11bun_runtime3cli9arguments27parse_build_command_options
_RNvNtNtCs1yUlXPGwCKD_11bun_runtime3cli9arguments19resolve_jsx_runtime
_RNvNtCs1yUlXPGwCKD_11bun_runtime3cli14invalid_target
_RNvXs5_NtCs8WZIztbKAR_7bun_ast6targetNtB5_6TargetNtNtCshzHRevywlmE_4core3fmt5Debug3fmt
_RNvXs1i_NtCshzHRevywlmE_4core3fmtRINtNtCsgtociwQ8c96_8bun_core3fmt22NewOutOfRangeFormatterRShENtB6_7Display3fmtCs1yUlXPGwCKD_11bun_runtime
_RNCINvMs0_NtNtCs7QmvgyBSXbk_3std4sync4onceNtB8_4Once15call_once_forceNCINvMNtBa_9once_lockINtB1b_8OnceLockbE10initializeNCINvB1a_11get_or_initNCNvB1a_10try_insert0E0zE0E0Cs1yUlXPGwCKD_11bun_runtime
_RNSNvYNCINvMs0_NtNtCs7QmvgyBSXbk_3std4sync4onceNtBd_4Once15call_once_forceNCINvMNtBf_9once_lockINtB1g_8OnceLockbE10initializeNCINvB1f_11get_or_initNCNvB1f_10try_insert0E0zE0E0INtNtNtCshzHRevywlmE_4core3ops8function6FnOnceTRNtBd_9OnceStateEE9call_once6vtableCs1yUlXPGwCKD_11bun_runtime
_RNvXs1g_NtCshzHRevywlmE_4core3fmtRNtNtCsgtociwQ8c96_8bun_core3fmt13ParseIntErrorNtB6_5Debug3fmtCs1yUlXPGwCKD_11bun_runtime
_RNvMNtCsi3R2Foos9Y_8bun_clap9streamingINtB2_13StreamingClapjNtNtB4_4args10OsIteratorE9chaingingCs1yUlXPGwCKD_11bun_runtime
_RNvMNtCsi3R2Foos9Y_8bun_clap9streamingINtB2_13StreamingClapjNtNtB4_4args10OsIteratorE3errCs1yUlXPGwCKD_11bun_runtime
_RNvNtNtCs1yUlXPGwCKD_11bun_runtime3cli7command14tag_print_help
_RNvMNtCsi3R2Foos9Y_8bun_clap8comptimeNtB2_14ConvertedTable4find.2107
_RINvNtCshzHRevywlmE_4core3ptr13drop_in_placeINtCsi3R2Foos9Y_8bun_clap4ArgsNtBJ_4HelpEECs1yUlXPGwCKD_11bun_runtime
_RNvNtNtCs1yUlXPGwCKD_11bun_runtime3cli9arguments26parse_test_command_options
_RNCNvMs0_NtNtCs1yUlXPGwCKD_11bun_runtime3cli12bunx_commandNtB7_11BunxCommand4execs5_0Bb_
_RNvMs0_NtNtCs1yUlXPGwCKD_11bun_runtime3cli12bunx_commandNtB5_11BunxCommand21is_trusted_cache_root
_RNvMs0_NtNtCs1yUlXPGwCKD_11bun_runtime3cli12bunx_commandNtB5_11BunxCommand24is_trusted_cached_binary
_RNvMs0_NtNtCs1yUlXPGwCKD_11bun_runtime3cli12bunx_commandNtB5_11BunxCommand12get_bin_name
_RNvMs0_NtCsgtociwQ8c96_8bun_core13bounded_arrayINtB5_19BoundedArrayAlignedRShKj8_E6appendCs1yUlXPGwCKD_11bun_runtime
_RNvXs_NtNtCs4YSnrHLetPa_5alloc3vec21spec_from_iter_nestedINtB6_3VecINtNtB8_5boxed3BoxShEEINtB4_18SpecFromIterNestedB13_INtNtNtNtCshzHRevywlmE_4core4iter8adapters3map3MapINtNtNtB22_5slice4iter4IterRB1l_ENCNvMs0_NtNtCs1yUlXPGwCKD_11bun_runtime3cli12bunx_commandNtB3m_11BunxCommand4execs6_0EE9from_iterB3q_
_RNvMs0_NtNtCs1yUlXPGwCKD_11bun_runtime3cli12bunx_commandNtB5_11BunxCommand32get_bin_name_from_temp_directory
_RNvNtCseo0p15y9QA6_10bun_bunfig9arguments11load_bunfig
_RNvNtCseo0p15y9QA6_10bun_bunfig9arguments25load_config_with_cmd_args
_RNvMs3_NtCs1dkUJlrTngY_13bun_cares_sys12c_ares_draftNtB5_17hostent_with_ttls10parse_aaaa
_RNvMs3_NtCs1dkUJlrTngY_13bun_cares_sys12c_ares_draftNtB5_17hostent_with_ttls7parse_a
_RNvNtCseo0p15y9QA6_10bun_bunfig6bunfig17parse_macros_json
_RINvNtCshzHRevywlmE_4core3ptr13drop_in_placeNtNtCsa6AWEs1wmIo_17bun_options_types7context12MacroOptionsECseo0p15y9QA6_10bun_bunfig
_RINvNtCshzHRevywlmE_4core3ptr13drop_in_placeINtNtB4_6option6OptionNtNtNtCsa6AWEs1wmIo_17bun_options_types6schema3api9LoaderMapEECs1yUlXPGwCKD_11bun_runtime
_RINvNtCshzHRevywlmE_4core3ptr13drop_in_placeINtNtB4_6option6OptionNtNtNtCsa6AWEs1wmIo_17bun_options_types6schema3api9LoaderMapEECseo0p15y9QA6_10bun_bunfig
_RINvNtCshzHRevywlmE_4core3ptr13drop_in_placeINtNtCslDwGP1S1boP_15bun_collections14array_hash_map12ArrayHashMapINtNtCs4YSnrHLetPa_5alloc5boxed3BoxShEB1K_EECseo0p15y9QA6_10bun_bunfig
_RINvNtCshzHRevywlmE_4core3ptr13drop_in_placeINtNtCslDwGP1S1boP_15bun_collections14array_hash_map18StringArrayHashMapINtNtCs4YSnrHLetPa_5alloc5boxed3BoxShEEECs1yUlXPGwCKD_11bun_runtime
_RINvNtCshzHRevywlmE_4core3ptr13drop_in_placeINtNtCslDwGP1S1boP_15bun_collections14array_hash_map18StringArrayHashMapINtNtCs4YSnrHLetPa_5alloc5boxed3BoxShEEECs4YYdkJyg8hg_7bun_jsc
_RINvNtCshzHRevywlmE_4core3ptr13drop_in_placeINtNtCslDwGP1S1boP_15bun_collections14array_hash_map18StringArrayHashMapINtNtCs4YSnrHLetPa_5alloc5boxed3BoxShEEECsg31y7KV7Avq_12bun_resolver
_RNvMNtCseo0p15y9QA6_10bun_bunfig6bunfigNtB2_6Parser16add_error_format
_RNvNtCseo0p15y9QA6_10bun_bunfig9arguments11load_config
_RNvNtCseo0p15y9QA6_10bun_bunfig9arguments26report_bunfig_load_failure
_RNvMs1_NtCs4FfJ4Lq6U93_9bun_paths12resolve_pathNtB5_11JoinScratch4init
_RINvNtCs4FfJ4Lq6U93_9bun_paths12resolve_path22normalize_string_buf_thKb0_NtNtB2_8platform5PosixKb1_ECseo0p15y9QA6_10bun_bunfig
_RNvXst_NtNtCshzHRevywlmE_4core3str7patternReNtB5_7Pattern15is_contained_in
_RNSNvYNCNvNtNtCs7QmvgyBSXbk_3std3sys9backtrace10__print_fmt0INtNtNtCshzHRevywlmE_4core3ops8function6FnOnceTQNtNtB13_3fmt9FormatterNtNtNtBc_12backtrace_rs5types17BytesOrWideStringEE9call_once6vtableBc_
_RNCNvNtNtCs7QmvgyBSXbk_3std3sys9backtrace10__print_fmt0B7_
_RNvNtNtCs7QmvgyBSXbk_3std3sys9backtrace15output_filename
_RNvXs3_NtNtNtCs7QmvgyBSXbk_3std3sys5stdio4unixNtB5_6StderrNtNtBb_2io5Write5write
_RNvXs3_NtNtNtCs7QmvgyBSXbk_3std3sys5stdio4unixNtB5_6StderrNtNtBb_2io5Write14write_vectored
_RNvYNtNtNtNtCs7QmvgyBSXbk_3std3sys5stdio4unix6StderrNtNtBa_2io5Write9write_allBa_
_RNvYNtNtNtNtCs7QmvgyBSXbk_3std3sys5stdio4unix6StderrNtNtBa_2io5Write18write_all_vectoredBa_
_RNvNtNtNtNtCs7QmvgyBSXbk_3std3sys12thread_local11destructors10linux_like8register
_RNvNtNtNtNtCs7QmvgyBSXbk_3std3sys12thread_local5guard3key6enable
_ZN3WTF6VectorIN7WebCore18RsaOtherPrimesInfoELm0ENS_15CrashOnOverflowELm16ENS_10FastMallocEEaSERKS5_
_ZN3WTF6VectorIN7WebCore18RsaOtherPrimesInfoELm0ENS_15CrashOnOverflowELm16ENS_10FastMallocEE14shrinkCapacityEm
_ZNSt11__copy_moveILb0ELb0ESt26random_access_iterator_tagE8__copy_mIPKN7WebCore18RsaOtherPrimesInfoEPS4_EET0_T_S9_S8_
__wrap_expf
__wrap_powf
__wrap_logf
__wrap_exp
__wrap_exp2
__wrap_pow
__wrap_log
__wrap_log2
__wrap_quick_exit
__wrap_getrandom
__cxa_thread_atexit_impl
_ZN12_GLOBAL__N_112DtorsManagerC2Ev
_RNvMs3_NtCs4YSnrHLetPa_5alloc7raw_vecINtB5_6RawVecTOhFUKCBN_EuENtNtCs7QmvgyBSXbk_3std5alloc6SystemE8grow_oneB13_
_RNvMs4_NtCs4YSnrHLetPa_5alloc7raw_vecINtB5_11RawVecInnerNtNtCs7QmvgyBSXbk_3std5alloc6SystemE14grow_amortizedBW_
_RNvMs4_NtCs4YSnrHLetPa_5alloc7raw_vecINtB5_11RawVecInnerNtNtCs7QmvgyBSXbk_3std5alloc6SystemE11finish_growBW_
_RNvNvNtNtNtNtCs7QmvgyBSXbk_3std3sys12thread_local5guard3key6enable3run
_RNvMsn_NtCs4YSnrHLetPa_5alloc4syncINtB5_3ArcNtNtNtCs7QmvgyBSXbk_3std6thread6thread5InnerNtNtBM_5alloc6SystemE9drop_slowBM_
_RINvNtCshzHRevywlmE_4core3ptr13drop_in_placeNtNtCs4FfJ4Lq6U93_9bun_paths12resolve_path11JoinScratchECseo0p15y9QA6_10bun_bunfig
_RINvNtCsgtociwQ8c96_8bun_core6output3errNtNtB4_6result5ErroruECseo0p15y9QA6_10bun_bunfig
_RINvMsr_Cs8WZIztbKAR_7bun_astNtB6_4Data12write_formatKb0_NtB6_15IoWriterAdapterECseo0p15y9QA6_10bun_bunfig
_RNvMNvNtNtNtCse0gOrsKjhbD_11bun_bundler14linker_context24scan_imports_and_exports16___css_validation33validate_composes_from_propertiesNtB2_7Visitor20add_property_or_warn
_RNvMs2_NtCse0gOrsKjhbD_11bun_bundler25analyze_transpiled_moduleNtB5_22ModuleInfoDeserialized25create_from_cached_record
_RNvMs3_NtCs4YSnrHLetPa_5alloc7raw_vecINtB5_6RawVecINtCs2nsQ4GiTNS0_7bun_ptr7BackRefNtNtCse0gOrsKjhbD_11bun_bundler5chunk5ChunkEE8grow_oneB1n_
_RNvMs3_NtCs4YSnrHLetPa_5alloc7raw_vecINtB5_6RawVecINtNtB7_5boxed3BoxNtCs11Ov3HvMsFC_10bun_router5RouteEE8grow_oneB16_
_RNvMs3_NtCs4YSnrHLetPa_5alloc7raw_vecINtB5_6RawVecINtNtB7_5boxed3BoxNtNtCsgtociwQ8c96_8bun_core4util10PathBufferEE8grow_oneCs4FfJ4Lq6U93_9bun_paths
_RNvMs3_NtCs4YSnrHLetPa_5alloc7raw_vecINtB5_6RawVecINtNtB7_5boxed3BoxNtNtNtCs1yUlXPGwCKD_11bun_runtime11test_runner8bun_test14ExecutionEntryEE8grow_oneB1a_
_RNvMs3_NtCs4YSnrHLetPa_5alloc7raw_vecINtB5_6RawVecINtNtB7_5boxed3BoxNtNtNtCsflik4Lp6Ma9_8bun_http9h2_client15pending_connect14PendingConnectEE8grow_oneB1a_
_RNvMs3_NtCs4YSnrHLetPa_5alloc7raw_vecINtB5_6RawVecNtNtCs1PzbF0n7nMe_11bun_parsers4yaml6IndentE8grow_oneBQ_
_RNvMs3_NtCs4YSnrHLetPa_5alloc7raw_vecINtB5_6RawVecNtNtCs4YYdkJyg8hg_7bun_jsc6strong8OptionalE8grow_oneBQ_
_RNvMs3_NtCs4YSnrHLetPa_5alloc7raw_vecINtB5_6RawVecNtNtCs4YYdkJyg8hg_7bun_jsc8js_value7JSValueE8grow_oneBQ_
_RNvMs3_NtCs4YSnrHLetPa_5alloc7raw_vecINtB5_6RawVecONtNtCsggdWDBgjuXA_9bun_spawn7process7ProcessE8grow_oneBR_
_RNvMs3_NtCs4YSnrHLetPa_5alloc7raw_vecINtB5_6RawVecPaE8grow_oneCs7QmvgyBSXbk_3std
_RNvMs3_NtCs4YSnrHLetPa_5alloc7raw_vecINtB5_6RawVecjE8grow_oneCs44pYJwTIsUw_14bun_js_printer
_RNvMs3_NtCs4YSnrHLetPa_5alloc7raw_vecINtB5_6RawVecjE8grow_oneCs6ScEuu9uzHZ_7bun_css
_RNvMs3_NtCs4YSnrHLetPa_5alloc7raw_vecINtB5_6RawVecINtNtCsgtociwQ8c96_8bun_core4util12GenericIndexmINtNtNtNtCs1yUlXPGwCKD_11bun_runtime4bake10dev_server17incremental_graph10SideMarkerKVNtNtNtNtNtCse0gOrsKjhbD_11bun_bundler9bundle_v28bv2_impl10bake_types4Side6ClientUEEE8grow_oneB1H_
_RNvMs3_NtCs4YSnrHLetPa_5alloc7raw_vecINtB5_6RawVecINtNtCsgtociwQ8c96_8bun_core4util12GenericIndexmNtNtCse0gOrsKjhbD_11bun_bundler11output_file10OutputFileEE8grow_oneB1C_
_RNvMs3_NtCs4YSnrHLetPa_5alloc7raw_vecINtB5_6RawVecINtNtNtCsj5JUsDxu4lF_11bun_install16isolated_install5store5NewIdNtNtBP_4node4NodeEE8grow_oneBT_
_RNvMs3_NtCs4YSnrHLetPa_5alloc7raw_vecINtB5_6RawVecNtCs8WZIztbKAR_7bun_ast3LocE8grow_oneCs1PzbF0n7nMe_11bun_parsers
_RNvMs3_NtCs4YSnrHLetPa_5alloc7raw_vecINtB5_6RawVecNtNtCs44pYJwTIsUw_14bun_js_printer25analyze_transpiled_module15FetchParametersE8grow_oneBQ_
_RNvMs3_NtCs4YSnrHLetPa_5alloc7raw_vecINtB5_6RawVecNtNtCskkCovmikPNW_16bun_shell_parser6braces16ExpansionVariantE8grow_oneBQ_
_RNvMs3_NtCs4YSnrHLetPa_5alloc7raw_vecINtB5_6RawVeclE8grow_oneCsaSVDFYo9UGz_6bun_io
_RNvMs3_NtCs4YSnrHLetPa_5alloc7raw_vecINtB5_6RawVecmE8grow_oneCslDwGP1S1boP_15bun_collections
_RNvMs3_NtCs4YSnrHLetPa_5alloc7raw_vecINtB5_6RawVecINtNtCshzHRevywlmE_4core6option6OptionTNtCs8WZIztbKAR_7bun_ast3RefmEEE8grow_oneCs4cBhYOTeZUw_13bun_js_parser
_RNvMs3_NtCs4YSnrHLetPa_5alloc7raw_vecINtB5_6RawVecNtCs4QozzFnxerp_13bun_sourcemap15SourceMapShiftsE8grow_oneCse0gOrsKjhbD_11bun_bundler
_RNvMs3_NtCs4YSnrHLetPa_5alloc7raw_vecINtB5_6RawVecNtNtCs44pYJwTIsUw_14bun_js_printer7renamer17StableSymbolCountE8grow_oneBQ_
_RNvMs3_NtCs4YSnrHLetPa_5alloc7raw_vecINtB5_6RawVecNtNtCs4e8grVMhPCb_6bun_md13ansi_renderer12BlockContextE8grow_oneBQ_
_RNvMs3_NtCs4YSnrHLetPa_5alloc7raw_vecINtB5_6RawVecNtNtNtCs1yUlXPGwCKD_11bun_runtime3cli16outdated_command12OutdatedInfoE8grow_oneBS_
_RNvMs3_NtCs4YSnrHLetPa_5alloc7raw_vecINtB5_6RawVecNtNvNtCsj5JUsDxu4lF_11bun_install4pnpm21migrate_pnpm_lockfile13SnapshotEntryE8grow_oneBS_
_RNvMs4_NtNtCse0gOrsKjhbD_11bun_bundler9bundle_v28bv2_implNtB7_8BundleV27on_load
_RNvMs1_NtCs4YSnrHLetPa_5alloc3vecINtB5_3VecNtNtCs8WZIztbKAR_7bun_ast4expr4ExprE6resizeBJ_
_RNvXNtCslDwGP1S1boP_15bun_collections7vec_extINtNtCs4YSnrHLetPa_5alloc3vec3VecNtNtCs8WZIztbKAR_7bun_ast4expr4ExprNtNtCsdAZa0WVRlFk_9bun_alloc9ast_alloc8AstAllocEINtB2_6VecExtB1e_E14move_from_listB1i_
_RNvXNtCslDwGP1S1boP_15bun_collections7vec_extINtNtCs4YSnrHLetPa_5alloc3vec3VecNtNtCs8WZIztbKAR_7bun_ast4expr4ExprNtNtCsdAZa0WVRlFk_9bun_alloc9ast_alloc8AstAllocEINtB2_6VecExtB1e_E14move_from_listCs1PzbF0n7nMe_11bun_parsers
_RNvXNtCslDwGP1S1boP_15bun_collections7vec_extINtNtCs4YSnrHLetPa_5alloc3vec3VecNtNtCs8WZIztbKAR_7bun_ast4expr4ExprNtNtCsdAZa0WVRlFk_9bun_alloc9ast_alloc8AstAllocEINtB2_6VecExtB1e_E14move_from_listCs1yUlXPGwCKD_11bun_runtime
_RINvNtCshzHRevywlmE_4core3ptr13drop_in_placeNtNtNtCs8WZIztbKAR_7bun_ast4expr10expr_store5BlockEBM_
_RINvNvMs2_NtCs4YSnrHLetPa_5alloc7raw_vecINtB8_11RawVecInnerpE7reserve21do_reserve_and_handleNtNtBa_5alloc6GlobalECs1PzbF0n7nMe_11bun_parsers
_RINvNvMs2_NtCs4YSnrHLetPa_5alloc7raw_vecINtB8_11RawVecInnerpE7reserve21do_reserve_and_handleNtNtBa_5alloc6GlobalECs1nKE1RihsDl_20bun_standalone_graph
_RINvNvMs2_NtCs4YSnrHLetPa_5alloc7raw_vecINtB8_11RawVecInnerpE7reserve21do_reserve_and_handleNtNtBa_5alloc6GlobalECs1yUlXPGwCKD_11bun_runtime
_RINvNvMs2_NtCs4YSnrHLetPa_5alloc7raw_vecINtB8_11RawVecInnerpE7reserve21do_reserve_and_handleNtNtBa_5alloc6GlobalECs44pYJwTIsUw_14bun_js_printer
_RINvNvMs2_NtCs4YSnrHLetPa_5alloc7raw_vecINtB8_11RawVecInnerpE7reserve21do_reserve_and_handleNtNtBa_5alloc6GlobalECs4YYdkJyg8hg_7bun_jsc
_RINvNvMs2_NtCs4YSnrHLetPa_5alloc7raw_vecINtB8_11RawVecInnerpE7reserve21do_reserve_and_handleNtNtBa_5alloc6GlobalECs4cBhYOTeZUw_13bun_js_parser
_RINvNvMs2_NtCs4YSnrHLetPa_5alloc7raw_vecINtB8_11RawVecInnerpE7reserve21do_reserve_and_handleNtNtBa_5alloc6GlobalECs5ANwpMICUwc_11bun_css_jsc
_RINvNvMs2_NtCs4YSnrHLetPa_5alloc7raw_vecINtB8_11RawVecInnerpE7reserve21do_reserve_and_handleNtNtBa_5alloc6GlobalECs6ScEuu9uzHZ_7bun_css
_RINvNvMs2_NtCs4YSnrHLetPa_5alloc7raw_vecINtB8_11RawVecInnerpE7reserve21do_reserve_and_handleNtNtBa_5alloc6GlobalECs6gwODWbkV84_10bun_dotenv
_RINvNvMs2_NtCs4YSnrHLetPa_5alloc7raw_vecINtB8_11RawVecInnerpE7reserve21do_reserve_and_handleNtNtBa_5alloc6GlobalECs7QmvgyBSXbk_3std
_RINvNvMs2_NtCs4YSnrHLetPa_5alloc7raw_vecINtB8_11RawVecInnerpE7reserve21do_reserve_and_handleNtNtBa_5alloc6GlobalECs8WZIztbKAR_7bun_ast
_RINvNvMs2_NtCs4YSnrHLetPa_5alloc7raw_vecINtB8_11RawVecInnerpE7reserve21do_reserve_and_handleNtNtBa_5alloc6GlobalECsarmeCvIOLjh_15bun_install_jsc
_RINvNvMs2_NtCs4YSnrHLetPa_5alloc7raw_vecINtB8_11RawVecInnerpE7reserve21do_reserve_and_handleNtNtBa_5alloc6GlobalECscpk4bCXnlDP_9bun_patch
_RINvNvMs2_NtCs4YSnrHLetPa_5alloc7raw_vecINtB8_11RawVecInnerpE7reserve21do_reserve_and_handleNtNtBa_5alloc6GlobalECse0gOrsKjhbD_11bun_bundler
_RINvNvMs2_NtCs4YSnrHLetPa_5alloc7raw_vecINtB8_11RawVecInnerpE7reserve21do_reserve_and_handleNtNtBa_5alloc6GlobalECseo0p15y9QA6_10bun_bunfig
_RINvNvMs2_NtCs4YSnrHLetPa_5alloc7raw_vecINtB8_11RawVecInnerpE7reserve21do_reserve_and_handleNtNtBa_5alloc6GlobalECsflik4Lp6Ma9_8bun_http
_RINvNvMs2_NtCs4YSnrHLetPa_5alloc7raw_vecINtB8_11RawVecInnerpE7reserve21do_reserve_and_handleNtNtBa_5alloc6GlobalECsg31y7KV7Avq_12bun_resolver
_RINvNvMs2_NtCs4YSnrHLetPa_5alloc7raw_vecINtB8_11RawVecInnerpE7reserve21do_reserve_and_handleNtNtBa_5alloc6GlobalECsggdWDBgjuXA_9bun_spawn
_RINvNvMs2_NtCs4YSnrHLetPa_5alloc7raw_vecINtB8_11RawVecInnerpE7reserve21do_reserve_and_handleNtNtBa_5alloc6GlobalECsgtociwQ8c96_8bun_core
_RINvNvMs2_NtCs4YSnrHLetPa_5alloc7raw_vecINtB8_11RawVecInnerpE7reserve21do_reserve_and_handleNtNtBa_5alloc6GlobalECsj5JUsDxu4lF_11bun_install
_RINvNvMs2_NtCs4YSnrHLetPa_5alloc7raw_vecINtB8_11RawVecInnerpE7reserve21do_reserve_and_handleNtNtBa_5alloc6GlobalECskEEiPoOGs5g_11bun_sql_jsc
_RNvMs4_NtCs4YSnrHLetPa_5alloc7raw_vecNtB5_11RawVecInner11finish_growCs11Ov3HvMsFC_10bun_router
_RNvMs4_NtCs4YSnrHLetPa_5alloc7raw_vecNtB5_11RawVecInner11finish_growCs1PzbF0n7nMe_11bun_parsers
_RNvMs4_NtCs4YSnrHLetPa_5alloc7raw_vecNtB5_11RawVecInner11finish_growCs1nKE1RihsDl_20bun_standalone_graph
_RNvMs4_NtCs4YSnrHLetPa_5alloc7raw_vecNtB5_11RawVecInner11finish_growCs1yUlXPGwCKD_11bun_runtime
_RNvMs4_NtCs4YSnrHLetPa_5alloc7raw_vecNtB5_11RawVecInner11finish_growCs44pYJwTIsUw_14bun_js_printer
_RNvMs4_NtCs4YSnrHLetPa_5alloc7raw_vecNtB5_11RawVecInner11finish_growCs4FfJ4Lq6U93_9bun_paths
_RNvMs4_NtCs4YSnrHLetPa_5alloc7raw_vecNtB5_11RawVecInner11finish_growCs4QozzFnxerp_13bun_sourcemap
_RNvMs4_NtCs4YSnrHLetPa_5alloc7raw_vecNtB5_11RawVecInner11finish_growCs4YYdkJyg8hg_7bun_jsc
_RNvMs4_NtCs4YSnrHLetPa_5alloc7raw_vecNtB5_11RawVecInner11finish_growCs4e8grVMhPCb_6bun_md
_RNvMs4_NtCs4YSnrHLetPa_5alloc7raw_vecNtB5_11RawVecInner11finish_growCs4pSCigdXcdu_8lol_html
_RNvMs4_NtCs4YSnrHLetPa_5alloc7raw_vecNtB5_11RawVecInner11finish_growCs5ANwpMICUwc_11bun_css_jsc
_RNvMs4_NtCs4YSnrHLetPa_5alloc7raw_vecNtB5_11RawVecInner11finish_growCs6ScEuu9uzHZ_7bun_css
_RNvMs4_NtCs4YSnrHLetPa_5alloc7raw_vecNtB5_11RawVecInner11finish_growCs6gwODWbkV84_10bun_dotenv
_RNvMs4_NtCs4YSnrHLetPa_5alloc7raw_vecNtB5_11RawVecInner11finish_growCs7BjnLBdLAEh_10bun_semver
_RNvMs4_NtCs4YSnrHLetPa_5alloc7raw_vecNtB5_11RawVecInner11finish_growCs7QmvgyBSXbk_3std
_RNvMs4_NtCs4YSnrHLetPa_5alloc7raw_vecNtB5_11RawVecInner11finish_growCs8WZIztbKAR_7bun_ast
_RNvMs4_NtCs4YSnrHLetPa_5alloc7raw_vecNtB5_11RawVecInner11finish_growCsAS3Gme2Se5_17bun_install_types
_RNvMs4_NtCs4YSnrHLetPa_5alloc7raw_vecNtB5_11RawVecInner11finish_growCsaSVDFYo9UGz_6bun_io
_RNvMs4_NtCs4YSnrHLetPa_5alloc7raw_vecNtB5_11RawVecInner11finish_growCscpk4bCXnlDP_9bun_patch
_RNvMs4_NtCs4YSnrHLetPa_5alloc7raw_vecNtB5_11RawVecInner11finish_growCsd7zAxYwpJ7k_12bun_http_jsc
_RNvMs4_NtCs4YSnrHLetPa_5alloc7raw_vecNtB5_11RawVecInner11finish_growCse0gOrsKjhbD_11bun_bundler
_RNvMs4_NtCs4YSnrHLetPa_5alloc7raw_vecNtB5_11RawVecInner11finish_growCseC0ytREpGKO_13bun_spawn_sys
_RNvMs4_NtCs4YSnrHLetPa_5alloc7raw_vecNtB5_11RawVecInner11finish_growCseo0p15y9QA6_10bun_bunfig
_RNvMs4_NtCs4YSnrHLetPa_5alloc7raw_vecNtB5_11RawVecInner11finish_growCsfp4nxnB7RMp_7bun_sys
_RNvMs4_NtCs4YSnrHLetPa_5alloc7raw_vecNtB5_11RawVecInner11finish_growCsg31y7KV7Avq_12bun_resolver
_RNvMs4_NtCs4YSnrHLetPa_5alloc7raw_vecNtB5_11RawVecInner11finish_growCsggdWDBgjuXA_9bun_spawn
_RNvMs4_NtCs4YSnrHLetPa_5alloc7raw_vecNtB5_11RawVecInner11finish_growCsgtociwQ8c96_8bun_core
_RNvMs4_NtCs4YSnrHLetPa_5alloc7raw_vecNtB5_11RawVecInner11finish_growCshbT0DD8xIT7_17bun_sourcemap_jsc
_RNvMs4_NtCs4YSnrHLetPa_5alloc7raw_vecNtB5_11RawVecInner11finish_growCsj5JUsDxu4lF_11bun_install
_RNvMs4_NtCs4YSnrHLetPa_5alloc7raw_vecNtB5_11RawVecInner11finish_growCskEEiPoOGs5g_11bun_sql_jsc
_RNvMs4_NtCs4YSnrHLetPa_5alloc7raw_vecNtB5_11RawVecInner11finish_growCskkCovmikPNW_16bun_shell_parser
_RNvMs4_NtCs4YSnrHLetPa_5alloc7raw_vecNtB5_11RawVecInner11finish_growCskm8mBLjDbro_17bun_js_parser_jsc
_RNvMs4_NtCs4YSnrHLetPa_5alloc7raw_vecNtB5_11RawVecInner11finish_growCslDwGP1S1boP_15bun_collections
_RNvMsn_NtCs8WZIztbKAR_7bun_ast4exprNtB5_4Data32merge_known_primitive_with_check
_RNvMsc_NtCslDwGP1S1boP_15bun_collections14array_hash_mapINtB5_12ArrayHashMapuuE13rebuild_indexCs8WZIztbKAR_7bun_ast
_RINvMsc_NtCslDwGP1S1boP_15bun_collections14array_hash_mapINtB6_12ArrayHashMapuuE9find_hashNCINvB2_17get_index_adaptedmNtNtCs8WZIztbKAR_7bun_ast25server_component_boundary7AdapterE0EB1W_
_RINvNtNtNtNtCshzHRevywlmE_4core5slice4sort6shared9smallsort12sort8_stableNtNtCs8WZIztbKAR_7bun_ast9char_freq12CharAndCountNCINvMB8_SB19_16sort_unstable_byNCNvMs_B1b_NtB1b_8CharFreq7compile0E0EB1d_
_RINvNtNtNtNtCshzHRevywlmE_4core5slice4sort6shared9smallsort12sort4_stableNtNtCs8WZIztbKAR_7bun_ast9char_freq12CharAndCountNCINvMB8_SB19_16sort_unstable_byNCNvMs_B1b_NtB1b_8CharFreq7compile0E0EB1d_
_RINvNtNtNtNtCshzHRevywlmE_4core5slice4sort8unstable8heapsort8heapsortNtNtCs8WZIztbKAR_7bun_ast9char_freq12CharAndCountNCINvMB8_SB15_16sort_unstable_byNCNvMs_B17_NtB17_8CharFreq7compile0E0EB19_
_RINvNtNtNtNtCshzHRevywlmE_4core5slice4sort6shared5pivot11median3_recNtNtCs8WZIztbKAR_7bun_ast9char_freq12CharAndCountNCINvMB8_SB14_16sort_unstable_byNCNvMs_B16_NtB16_8CharFreq7compile0E0EB18_
_RNvCs8WZIztbKAR_7bun_ast16source_from_file
_RNvCs8WZIztbKAR_7bun_ast19data_store_dupe_str
_RINvNvMs2_NtCs4YSnrHLetPa_5alloc7raw_vecINtB8_11RawVecInnerpE7reserve21do_reserve_and_handleNtNtCsdAZa0WVRlFk_9bun_alloc9ast_alloc8AstAllocECs8WZIztbKAR_7bun_ast
_RNvMNtCsfp4nxnB7RMp_7bun_sys16walker_skippableNtB2_6Walker4next
_RINvNtCs4FfJ4Lq6U93_9bun_paths12resolve_path20__join_abs_string_bufKb1_NtNtB2_8platform5PosixECseo0p15y9QA6_10bun_bunfig
_RNvNtCseo0p15y9QA6_10bun_bunfig9arguments16load_config_path
_RNvMs0_NtCsfp4nxnB7RMp_7bun_sys3dirNtB5_3Dir8make_dir
_RNvMs0_NtCsfp4nxnB7RMp_7bun_sys3dirNtB5_3Dir8sym_link
_RNvMs0_NtCsfp4nxnB7RMp_7bun_sys4fileNtB5_4File10pwrite_all
_RNvMs0_NtCsfp4nxnB7RMp_7bun_sys4fileNtB5_4File11get_end_pos
_RNvMs0_NtCsfp4nxnB7RMp_7bun_sys4fileNtB5_4File11read_to_end
_RNvMs0_NtCsfp4nxnB7RMp_7bun_sys4fileNtB5_4File27read_to_end_with_array_list
_RNvMs0_NtCsfp4nxnB7RMp_7bun_sys4fileNtB5_4File4stat
_RNvNtCsfp4nxnB7RMp_7bun_sys10posix_impl5fstat
_RNvMs0_NtCsfp4nxnB7RMp_7bun_sys4fileNtB5_4File5close
_RNvMs0_NtCsfp4nxnB7RMp_7bun_sys4fileNtB5_4File8read_all
_RINvNtCscpk4bCXnlDP_9bun_patch4json10write_hunkNtNtCshzHRevywlmE_4core3fmt9FormatterEB4_
_RNvXsK_Cscpk4bCXnlDP_9bun_patchNtB5_8ParseErrNtNtCshzHRevywlmE_4core3fmt5Debug3fmt
_RNvCs4FfJ4Lq6U93_9bun_paths12join_sep_vec
_RNvCs4FfJ4Lq6U93_9bun_paths9extension
_RINvMNtNtCs7QmvgyBSXbk_3std4sync9once_lockINtB3_8OnceLockNtNtCs4FfJ4Lq6U93_9bun_paths2fs10FileSystemE10initializeNCINvB2_11get_or_initNCNvB2_10try_insert0E0zEBX_
_RNvMNtCs4FfJ4Lq6U93_9bun_paths2fsNtB2_10FileSystem7tmpname
_RNvXNvNtCs7QmvgyBSXbk_3std2io17default_write_fmtINtB2_7AdapterQShENtNtCshzHRevywlmE_4core3fmt5Write9write_strCs1yUlXPGwCKD_11bun_runtime
_RNvXNvNtCs7QmvgyBSXbk_3std2io17default_write_fmtINtB2_7AdapterQShENtNtCshzHRevywlmE_4core3fmt5Write9write_strCs4FfJ4Lq6U93_9bun_paths
_RNvYINtNvNtCs7QmvgyBSXbk_3std2io17default_write_fmt7AdapterQShENtNtCshzHRevywlmE_4core3fmt5Write10write_charCs1yUlXPGwCKD_11bun_runtime
_RNvYINtNvNtCs7QmvgyBSXbk_3std2io17default_write_fmt7AdapterQShENtNtCshzHRevywlmE_4core3fmt5Write10write_charCs4FfJ4Lq6U93_9bun_paths
_RNvMs0_NtCs4FfJ4Lq6U93_9bun_paths2fsNtB5_8PathName27non_unique_name_string_base
_RNvMs0_NtCs4FfJ4Lq6U93_9bun_paths2fsNtB5_8PathName4init
_RNvMs0_NtCs4FfJ4Lq6U93_9bun_paths16path_buffer_poolINtB5_15PathBufferPoolTNtNtCsgtociwQ8c96_8bun_core4util10PathBufferE3getB7_
_RNvMs0_NtCs4FfJ4Lq6U93_9bun_paths16path_buffer_poolINtB5_15PathBufferPoolTNtNtCsgtociwQ8c96_8bun_core4util10PathBufferE3getCs1yUlXPGwCKD_11bun_runtime
_RINvMs2_NtNtCs7QmvgyBSXbk_3std6thread5localINtB6_8LocalKeyINtNtCshzHRevywlmE_4core4cell7RefCellINtNtCs4YSnrHLetPa_5alloc3vec3VecINtNtB1A_5boxed3BoxNtNtCsgtociwQ8c96_8bun_core4util10PathBufferEEEE4withNCNvMs0_NtCs4FfJ4Lq6U93_9bun_paths16path_buffer_poolINtB3k_15PathBufferPoolTB2l_E3put0uEB3m_
_RNvMs1_NtCs4FfJ4Lq6U93_9bun_paths8env_pathNtB5_20PathComponentBuilder6append
_RNvMs2_NtCs4FfJ4Lq6U93_9bun_paths2fsNtB5_4Path14is_node_module
_RINvMs_NtNtCs1PzbF0n7nMe_11bun_parsers4toml5lexerNtB5_5Lexer23decode_escape_sequencesKb1_EB9_
_RNvMs_NtNtCs1PzbF0n7nMe_11bun_parsers4toml5lexerNtB4_5Lexer10unexpected
_RINvNtNtNtCsgtociwQ8c96_8bun_core6string9immutable13unicode_draft18decode_wtf8_rune_tlECs1PzbF0n7nMe_11bun_parsers
_RNvMNtCs1PzbF0n7nMe_11bun_parsers4tomlNtB2_4TOML5parse
_RNvMNtCs1PzbF0n7nMe_11bun_parsers4tomlNtB2_4TOML11parse_value
_RNvYNtNtNtCs1PzbF0n7nMe_11bun_parsers4toml5lexer5LexerNtNtCs8WZIztbKAR_7bun_ast9lexer_log8LexerLog15add_range_errorB8_
_RNvMs_NtNtCs1PzbF0n7nMe_11bun_parsers4toml5lexerNtB4_5Lexer4next
_RNvMs_NtNtCs1PzbF0n7nMe_11bun_parsers4toml5lexerNtB4_5Lexer15expected_string
_RNvMNtCs1PzbF0n7nMe_11bun_parsers4tomlNtB2_4TOML16parse_assignment
_RNvMNtCs1PzbF0n7nMe_11bun_parsers4tomlNtB2_4TOML9parse_key
_RNvMsn_NtCs8WZIztbKAR_7bun_ast4exprNtB5_4Data26known_primitive_with_check
_RINvNtNtNtCs8WZIztbKAR_7bun_ast4expr4data5Store6appendNtNtB8_1e5ArrayEB8_
_RNvXNtCslDwGP1S1boP_15bun_collections7vec_extINtNtCs4YSnrHLetPa_5alloc3vec3VecNtNtCs8WZIztbKAR_7bun_ast4expr4ExprNtNtCsdAZa0WVRlFk_9bun_alloc9ast_alloc8AstAllocEINtB2_6VecExtB1e_E12move_to_listB1i_
_RNvXNtCslDwGP1S1boP_15bun_collections7vec_extINtNtCs4YSnrHLetPa_5alloc3vec3VecNtNtCs8WZIztbKAR_7bun_ast4expr4ExprNtNtCsdAZa0WVRlFk_9bun_alloc9ast_alloc8AstAllocEINtB2_6VecExtB1e_E12move_to_listCs4cBhYOTeZUw_13bun_js_parser
_RNvMsC_Cs8WZIztbKAR_7bun_astNtB5_3Log23add_zig_error_with_note
_RNvMsC_Cs8WZIztbKAR_7bun_astNtB5_3Log35add_warning_fmt_line_col_with_notes
_RNvMsC_Cs8WZIztbKAR_7bun_astNtB5_3Log29add_range_error_fmt_with_note
_RNvMsC_Cs8WZIztbKAR_7bun_astNtB5_3Log31add_range_warning_fmt_with_note
_RNvMsC_Cs8WZIztbKAR_7bun_astNtB5_3Log32add_resolve_error_with_text_dupe
_RNvMsC_Cs8WZIztbKAR_7bun_astNtB5_3Log33add_symbol_already_declared_error
_RNvMsC_NtCs8WZIztbKAR_7bun_ast1eNtB5_6Object10put_string
_RNvMsC_NtCs8WZIztbKAR_7bun_ast1eNtB5_6Object3put
_RNvMsC_NtCs8WZIztbKAR_7bun_ast1eNtB5_6Object17get_or_put_object
_RNvCsdAZa0WVRlFk_9bun_alloc10trim_right.1620
_RNvYNtNtNtCs1PzbF0n7nMe_11bun_parsers4toml5lexer5LexerNtNtCs8WZIztbKAR_7bun_ast9lexer_log8LexerLog9add_errorB8_
_RNvMNtCs1PzbF0n7nMe_11bun_parsers4tomlNtB2_4TOML17parse_key_segment
_RINvMs_NtNtCs1PzbF0n7nMe_11bun_parsers4toml5lexerNtB5_5Lexer23decode_escape_sequencesKb0_EB9_
_RINvNtNtNtNtCshzHRevywlmE_4core5slice4sort6shared9smallsort25insertion_sort_shift_leftNtNtCs8WZIztbKAR_7bun_ast1g8PropertyNCINvMNtCs4YSnrHLetPa_5alloc5sliceSB1m_7sort_byNvNtB1q_1e30package_json_sort_is_less_thanE0EB1q_
_RNvMs3_NtCs4YSnrHLetPa_5alloc7raw_vecINtB5_6RawVecNtNtCs1yUlXPGwCKD_11bun_runtime4bake20FileSystemRouterTypeE8grow_oneBQ_
_RNvMs3_NtCs4YSnrHLetPa_5alloc7raw_vecINtB5_6RawVecNtNtCs8WZIztbKAR_7bun_ast3api7MessageE8grow_oneBQ_
_RNvMs3_NtCs8WZIztbKAR_7bun_ast4exprNtB5_4Expr11as_property
_RNvMsC_NtCs8WZIztbKAR_7bun_ast1eNtB5_6Object11as_property
_RNvMs3_NtCs8WZIztbKAR_7bun_ast4exprNtB5_4Expr15from_json_value
_RNvMs3_NtCs8WZIztbKAR_7bun_ast4exprNtB5_4Expr8as_array
_RNvMs4_NtCs8WZIztbKAR_7bun_ast4exprNtB5_4Expr10set_string
_RNvMs4_NtCs8WZIztbKAR_7bun_ast4exprNtB5_4Expr12get_by_index
_RNvMs3_NtCs8WZIztbKAR_7bun_ast1gNtB5_8Property10deep_clone
_RINvNtCshzHRevywlmE_4core3ptr13drop_in_placeINtNtCs4YSnrHLetPa_5alloc3vec3VecNtNtCs8WZIztbKAR_7bun_ast1g8PropertyNtNtCsdAZa0WVRlFk_9bun_alloc9ast_alloc8AstAllocEEB1h_
_RNvMs3_NtCs4YSnrHLetPa_5alloc7raw_vecINtB5_6RawVecNtNtCs8WZIztbKAR_7bun_ast1g8PropertyNtNtCsdAZa0WVRlFk_9bun_alloc9ast_alloc8AstAllocE8grow_oneBQ_
_RNvMs0_NtCsdAZa0WVRlFk_9bun_alloc8baby_vecINtB5_7BabyVecNtCs8WZIztbKAR_7bun_ast4DataE7grow_toCs4cBhYOTeZUw_13bun_js_parser
_RNvMs0_NtCsdAZa0WVRlFk_9bun_alloc8baby_vecINtB5_7BabyVecNtNtCs6ScEuu9uzHZ_7bun_css12dependencies10DependencyE7grow_toBW_
_RNvMs0_NtCsdAZa0WVRlFk_9bun_alloc8baby_vecINtB5_7BabyVecNtNtCs8WZIztbKAR_7bun_ast1g8PropertyE7grow_toBW_
_RNvMs0_NtCsdAZa0WVRlFk_9bun_alloc8baby_vecINtB5_7BabyVecNtNtCs8WZIztbKAR_7bun_ast1g8PropertyE7grow_toCs4cBhYOTeZUw_13bun_js_parser
_RINvNtCshzHRevywlmE_4core3ptr13drop_in_placeINtNtCsdAZa0WVRlFk_9bun_alloc8baby_vec7BabyVecNtNtCs8WZIztbKAR_7bun_ast1g8PropertyEEB1u_
_RNvMs0_NtCsdAZa0WVRlFk_9bun_alloc8baby_vecINtB5_7BabyVecNtNtCs8WZIztbKAR_7bun_ast1g3ArgE7grow_toBW_
_RNvMs0_NtCsdAZa0WVRlFk_9bun_alloc8baby_vecINtB5_7BabyVecNtNtCs8WZIztbKAR_7bun_ast1g3ArgE7grow_toCs1yUlXPGwCKD_11bun_runtime
_RNvMs8_NtCs8WZIztbKAR_7bun_ast1gNtB5_3Arg10deep_clone
_RNvMs4_NtCs4YSnrHLetPa_5alloc7raw_vecINtB5_11RawVecInnerNtNtCsdAZa0WVRlFk_9bun_alloc9ast_alloc8AstAllocE11finish_growCs8WZIztbKAR_7bun_ast
_RNvXs4_NtCsdAZa0WVRlFk_9bun_alloc9ast_allocNtB5_8AstAllocNtNtCshzHRevywlmE_4core5alloc9Allocator8allocate
_RNvCs8WZIztbKAR_7bun_ast19range_of_identifier
_RNvMNtCs8WZIztbKAR_7bun_ast10ast_resultNtB2_3Ast8empty_in
_RNvMNtCs1PzbF0n7nMe_11bun_parsers10json_indexNtB2_15StructuralIndex7fill_to
_RNvMNtCs1PzbF0n7nMe_11bun_parsers10json_indexNtB2_15StructuralIndex4fail
_RNvMsD_NtCs8WZIztbKAR_7bun_ast1eNtB5_6Object8set_rope
_RNvMsF_NtCs8WZIztbKAR_7bun_ast1eNtB5_7EString7to_utf8
_RNvMsG_NtCs8WZIztbKAR_7bun_ast1eNtB5_7EString12eql_comptime
_RNvMsG_NtCs8WZIztbKAR_7bun_ast1eNtB5_7EString6string
_RNvMsG_NtCs8WZIztbKAR_7bun_ast5nodesNtB5_12NameMinifier31default_number_to_minified_name
_RNvMsH_Cs8WZIztbKAR_7bun_astNtB5_6Source14fmt_identifier
_RNvMsH_Cs8WZIztbKAR_7bun_astNtB5_6Source14text_for_range
_RNvMsH_Cs8WZIztbKAR_7bun_astNtB5_6Source15range_of_string
_RNvMs0_NtCsdAZa0WVRlFk_9bun_alloc8baby_vecINtB5_7BabyVecNtNtCs8WZIztbKAR_7bun_ast5nodes4PartE7grow_toBW_
_RNvMs0_NtCsdAZa0WVRlFk_9bun_alloc8baby_vecINtB5_7BabyVecNtNtCs8WZIztbKAR_7bun_ast5nodes4PartE7grow_toCs4cBhYOTeZUw_13bun_js_parser
_RNvMs0_NtCsdAZa0WVRlFk_9bun_alloc8baby_vecINtB5_7BabyVecNtNtCs8WZIztbKAR_7bun_ast5nodes4PartE7grow_toCse0gOrsKjhbD_11bun_bundler
_RNvMs0_NtCsdAZa0WVRlFk_9bun_alloc8baby_vecINtB5_7BabyVecNtNtCs8WZIztbKAR_7bun_ast5nodes4PartE10grow_exactBW_
_RNvMs0_NtCsdAZa0WVRlFk_9bun_alloc8baby_vecINtB5_7BabyVecNtNtCs8WZIztbKAR_7bun_ast5nodes4PartE10grow_exactCs4cBhYOTeZUw_13bun_js_parser
_RNvMs3_NtCs4YSnrHLetPa_5alloc7raw_vecINtB5_6RawVecNtNtCs8WZIztbKAR_7bun_ast4expr4ExprNtNtCsdAZa0WVRlFk_9bun_alloc9ast_alloc8AstAllocE8grow_oneBQ_
_RNvMs0_NtCs8WZIztbKAR_7bun_ast1gNtB5_5Class12can_be_moved
_RNvMsn_NtCs8WZIztbKAR_7bun_ast4exprNtB5_4Data12can_be_moved
_RNvMs0_NtCs8WZIztbKAR_7bun_ast20ast_memory_allocatorNtB5_18ASTMemoryAllocator15reset_ast_state
_RNvMs0_NtCs8WZIztbKAR_7bun_ast20ast_memory_allocatorNtB5_18ASTMemoryAllocator4push
_RNvNtCsdOvwmbZlh6n_15bun_bundler_jsc11options_jsc22compile_target_from_js
_RNvNtCsdOvwmbZlh6n_15bun_bundler_jsc11options_jsc25compile_target_from_slice
zig__ModuleInfoDeserialized__toJSModuleRecord
_RNvMs3_NtCs4YSnrHLetPa_5alloc7raw_vecINtB5_6RawVecINtNtCslDwGP1S1boP_15bun_collections14array_hash_map12ArrayHashMapINtNtB7_5boxed3BoxShEB1Q_EE8grow_oneCseo0p15y9QA6_10bun_bunfig
_RNvMs3_NtCs4YSnrHLetPa_5alloc7raw_vecINtB5_6RawVecINtNtCslDwGP1S1boP_15bun_collections14array_hash_map12ArrayHashMapNtNtCs7BjnLBdLAEh_10bun_semver13semver_string6StringNtNtCsAS3Gme2Se5_17bun_install_types14resolver_hooks10DependencyEE8grow_oneCsj5JUsDxu4lF_11bun_install
_RNvMs3_NtCs4YSnrHLetPa_5alloc7raw_vecINtB5_6RawVecINtNtCslDwGP1S1boP_15bun_collections14array_hash_map18StringArrayHashMapINtNtB7_5boxed3BoxShEEE8grow_oneCsg31y7KV7Avq_12bun_resolver
_RNvMs3_NtCs4YSnrHLetPa_5alloc7raw_vecINtB5_6RawVecNtNtNtNtCs1yUlXPGwCKD_11bun_runtime4bake10dev_server12route_bundle11RouteBundleE8grow_oneBU_
_RNvMNtCseo0p15y9QA6_10bun_bunfig6bunfigNtB2_6Parser5parse
_RNvMNtCseo0p15y9QA6_10bun_bunfig6bunfigNtB2_6Parser12load_preload
_RNvNtCseo0p15y9QA6_10bun_bunfig6bunfig16estring_to_owned
_RNvMNtCseo0p15y9QA6_10bun_bunfig6bunfigNtB2_6Parser28apply_coverage_reporter_item
_RNvNtCs4YSnrHLetPa_5alloc5boxed14box_new_uninit.66
_RINvNtCshzHRevywlmE_4core3ptr13drop_in_placeINtNtB4_6option6OptionINtNtCs4YSnrHLetPa_5alloc5boxed3BoxNtNtNtCsa6AWEs1wmIo_17bun_options_types6schema3api10BunInstallEEECseo0p15y9QA6_10bun_bunfig
_RINvNtCshzHRevywlmE_4core3ptr13drop_in_placeINtNtB4_6option6OptionNtNtNtCsa6AWEs1wmIo_17bun_options_types6schema3api9StringMapEECs4YYdkJyg8hg_7bun_jsc
_RINvNtCshzHRevywlmE_4core3ptr13drop_in_placeINtNtB4_6option6OptionNtNtNtCsa6AWEs1wmIo_17bun_options_types6schema3api9StringMapEECseo0p15y9QA6_10bun_bunfig
_RNvMNtCseo0p15y9QA6_10bun_bunfig6bunfigNtB2_6Parser13expect_string
_RNvMNtCseo0p15y9QA6_10bun_bunfig6bunfigNtB2_6Parser6expect
_RNvXsz_NtNtCsa6AWEs1wmIo_17bun_options_types6schema3apiNtB5_16TransformOptionsNtNtCshzHRevywlmE_4core5clone5Clone5clone
_RNvNtNtCsgtociwQ8c96_8bun_core7env_var18IS_BUN_AUTO_UPDATE3get
_RNvNtNtCsgtociwQ8c96_8bun_core7env_var18NODE_USE_SYSTEM_CA3get
_RNvNtNtCsgtociwQ8c96_8bun_core7env_var19BUN_INSPECT_PRELOAD3get
_RNvNtNtCsgtociwQ8c96_8bun_core7env_var23BUN_AGENT_RULE_DISABLED3get
_RNvNtNtCsgtociwQ8c96_8bun_core7env_var28BUN_CONFIG_HTTP_IDLE_TIMEOUT16get_force_reload
_RNvNtNtCsgtociwQ8c96_8bun_core7env_var28BUN_DEBUG_TEST_TEXT_LOCKFILE3get
_RNvNtNtCsgtociwQ8c96_8bun_core7env_var29BUN_INOTIFY_COALESCE_INTERVAL16get_force_reload
_RNvNtNtCsgtociwQ8c96_8bun_core7env_var30BUN_INSTALL_STREAMING_MIN_SIZE16get_force_reload
_RNvXs1i_NtCshzHRevywlmE_4core3fmtRINtNtCsgtociwQ8c96_8bun_core3fmt20EnumTagListFormatterNtNtCs8WZIztbKAR_7bun_ast6loader6LoaderKb0_ENtB6_7Display3fmtCs1yUlXPGwCKD_11bun_runtime
_RINvMNtNtCs7QmvgyBSXbk_3std4sync9once_lockINtB3_8OnceLockbE10initializeNCINvB2_11get_or_initNCNvB2_10try_insert0E0zECs1yUlXPGwCKD_11bun_runtime
_RINvNtCsgtociwQ8c96_8bun_core6output7err_fmtINtNtB4_3fmt22NewOutOfRangeFormatterRShEECs1yUlXPGwCKD_11bun_runtime
_RINvMNtNtCs7QmvgyBSXbk_3std4sync9once_lockINtB3_8OnceLockRShE10initializeNCINvB2_11get_or_initNCNvB2_10try_insert0E0zECs1yUlXPGwCKD_11bun_runtime
_RNvMs7_NtCsa6AWEs1wmIo_17bun_options_types12global_cacheNtB5_23___ComptimeStringMap_MAP11___key_index
_RNvMs2_Csi3R2Foos9Y_8bun_clapINtB5_4ArgsNtB5_4HelpE6optionCs1yUlXPGwCKD_11bun_runtime
_RINvNtCshzHRevywlmE_4core3ptr13drop_in_placeNtNtCsg31y7KV7Avq_12bun_resolver7options13BundleOptionsECse0gOrsKjhbD_11bun_bundler
_RINvNtCshzHRevywlmE_4core3ptr13drop_in_placeINtNtCs4YSnrHLetPa_5alloc5boxed3BoxNtNtCs4cBhYOTeZUw_13bun_js_parser7defines6DefineEECse0gOrsKjhbD_11bun_bundler
_RNvMsn_NtCs4YSnrHLetPa_5alloc4syncINtB5_3ArcNtNtNtCsa6AWEs1wmIo_17bun_options_types6schema3api16TransformOptionsE9drop_slowCse0gOrsKjhbD_11bun_bundler
_RINvNtCshzHRevywlmE_4core3ptr13drop_in_placeNtNtNtCsa6AWEs1wmIo_17bun_options_types6schema3api16TransformOptionsECs1yUlXPGwCKD_11bun_runtime
_RINvNtCshzHRevywlmE_4core3ptr13drop_in_placeNtNtNtCsa6AWEs1wmIo_17bun_options_types6schema3api16TransformOptionsECse0gOrsKjhbD_11bun_bundler
_RINvNtCshzHRevywlmE_4core3ptr13drop_in_placeNtNtNtCsa6AWEs1wmIo_17bun_options_types6schema3api9StringMapECs1yUlXPGwCKD_11bun_runtime
_RINvNtCshzHRevywlmE_4core3ptr13drop_in_placeNtNtNtCsa6AWEs1wmIo_17bun_options_types6schema3api9StringMapECse0gOrsKjhbD_11bun_bundler
_RNvNtCse0gOrsKjhbD_11bun_bundler10transpiler30resolver_bundle_options_subset
_RNvXs1i_NtCshzHRevywlmE_4core3fmtRINtNtCsgtociwQ8c96_8bun_core6output15TemplateDisplayTRNtNtCs1hxaBEKURXO_4bstr4bstr4BStrhEENtB6_7Display3fmtCs1yUlXPGwCKD_11bun_runtime
_RNvMs2_NtNtCs1yUlXPGwCKD_11bun_runtime3cli11run_commandNtB5_10RunCommand22__boot_and_handle_error
_RNvMs2_NtNtCs1yUlXPGwCKD_11bun_runtime3cli11run_commandNtB5_10RunCommand22configure_path_for_run
_RNvMs0_NtNtCs1yUlXPGwCKD_11bun_runtime3cli11run_commandNtB5_10RunCommand4boot
_RNvMs2_NtCs4YYdkJyg8hg_7bun_jsc10event_loopNtB5_9EventLoop21tick_possibly_forever
_RNvCs4YYdkJyg8hg_7bun_jsc10initialize
_RNvCs4YYdkJyg8hg_7bun_jsc22on_jsc_invalid_env_var
_RNvMNtCs4YYdkJyg8hg_7bun_jsc10call_frameNtB2_9CallFrame18get_caller_src_loc
_RNvMNtCs4YYdkJyg8hg_7bun_jsc10call_frameNtB2_9CallFrame8argument
_RNvMNtCs4YYdkJyg8hg_7bun_jsc13fetch_headersNtB2_12FetchHeaders12create_empty
_RNvMNtCs4YYdkJyg8hg_7bun_jsc13fetch_headersNtB2_12FetchHeaders15create_from_uws
_RNvMNtCs4YYdkJyg8hg_7bun_jsc13fetch_headersNtB2_12FetchHeaders3put
_RNvMNtCs4YYdkJyg8hg_7bun_jsc13fetch_headersNtB2_12FetchHeaders4cast
_ZN3hwy13FunctionCacheImJPKhmS2_EE13ChooseAndCallIXadsoKPFmS2_mS2_EL_ZN3bun4xxh3L28HashLongHighwayDispatchTableEEEEEEmS2_mS2_
JSCInitialize
_ZN3Zig12GlobalObject6createERN3JSC2VMEPNS1_9StructureE
_ZN3Zig12GlobalObject23globalObjectMethodTableEv
_ZN3Zig12GlobalObject14finishCreationERN3JSC2VME
_ZN3JSC12LazyPropertyINS_14JSGlobalObjectENS_9StructureEE8callFuncIZNS_18LazyClassStructure9initLaterIZN3Zig12GlobalObject24initGeneratedLazyClassesEvEUlRNS5_11InitializerEE89_EEvRKT_EUlRKNS3_11InitializerEE_EEPS2_SH_
_ZN7WebCore12JSTranspiler15createStructureERN3JSC2VMEPNS1_14JSGlobalObjectENS1_7JSValueE
_ZN3JSC12LazyPropertyINS_14JSGlobalObjectENS_9StructureEE8callFuncIZNS_18LazyClassStructure9initLaterIZN3Zig12GlobalObject24initGeneratedLazyClassesEvEUlRNS5_11InitializerEE90_EEvRKT_EUlRKNS3_11InitializerEE_EEPS2_SH_
_ZN7WebCore11JSUDPSocket15createStructureERN3JSC2VMEPNS1_14JSGlobalObjectENS1_7JSValueE
_ZZNSt9once_flag18_Prepare_executionC1IZSt9call_onceIZ13JSCInitializeE3$_0JEEvRS_OT_DpOT0_EUlvE_EERS5_ENUlvE_8__invokeEv
_ZZZ13JSCInitializeENK3$_0clEvENUlvE_8__invokeEv
_ZN3WTF19ScopedLambdaFunctorIFvvEZZ13JSCInitializeENK3$_0clEvEUlvE0_E12implFunctionEPv
_ZN3WTF6Detail15CallableWrapperIPFNS_6StringERN3JSC2VMERNS_6VectorINS3_10StackFrameELm0ENS_15CrashOnOverflowELm16ENS_10FastMallocEEERjSC_RS2_PvES2_JS5_SB_SC_SC_SD_SE_EE4callES5_SB_SC_SC_SD_SE_
_ZN3WTF6Detail15CallableWrapperIPFN3JSC7JSValueERNS2_2VMERNS_6VectorINS2_10StackFrameELm0ENS_15CrashOnOverflowELm16ENS_10FastMallocEEERjSC_RNS_6StringEPNS2_8JSObjectEPvES3_JS5_SB_SC_SC_SE_SG_SH_EE4callES5_SB_SC_SC_SE_SG_SH_
_ZN3WTF6Detail15CallableWrapperIPFvRN3JSC2VMEPNS2_14SourceProviderERNS2_10LineColumnERNS_6StringEEvJS4_S6_S8_SA_EE4callES4_S6_S8_SA_
_ZN3WTF6Detail15CallableWrapperIZ25Zig__GlobalObject__createE3$_0vJRN3JSC2VMEEE4callES5_
_ZN3JSC15JSBoundFunction8nameSlowERNS_2VME
_ZN3JSC15JSBoundFunction17visitChildrenImplINS_11SlotVisitorEEEvPNS_6JSCellERT_
_ZN3JSC42dangerouslyOverrideJSCBytecodeCacheVersionEj
_ZN3JSC30computeJSCBytecodeCacheVersionEv
_ZN3JSC6Config23enableRestrictedOptionsEv
_ZNK3JSC7JSValue20toIntegerPreserveNaNEPNS_14JSGlobalObjectE
__dynamic_cast
_ZN10__cxxabiv111__terminateEPFvvE.cold
_ZN10__cxxabiv111__terminateEPFvvE
_ZSt13set_terminatePFvvE
_ZSt13get_terminatev
_ZSt9terminatev
_ZN10__cxxabiv112__unexpectedEPFvvE
_ZSt14get_unexpectedv
_ZSt10unexpectedv
__cxa_begin_catch.cold
__cxa_begin_catch
__cxa_end_catch.cold
__cxa_end_catch
_ZSt18uncaught_exceptionv
__cxa_get_globals_fast
__cxa_get_globals
_ZL16get_adjusted_ptrPKSt9type_infoS1_PPv
_ZL28read_encoded_value_with_basehmPKhPm.cold
_ZL28read_encoded_value_with_basehmPKhPm
_ZL21base_of_encoded_valuehP15_Unwind_Context.cold
_ZL21base_of_encoded_valuehP15_Unwind_Context
_ZL20check_exception_specP16lsda_header_infoPKSt9type_infoPvl.cold
_ZL20check_exception_specP16lsda_header_infoPKSt9type_infoPvl
_ZL17parse_lsda_headerP15_Unwind_ContextPKhP16lsda_header_info
__gxx_personality_v0.cold
__gxx_personality_v0
__cxa_call_unexpected.cold
_ZN3WTF17LockedPrintStream3endEv
_ZN3WTF15currentThreadIDEv
_ZN3WTF20initializeMainThreadEv
_ZN3WTF16callOnMainThreadEONS_8FunctionIFvvEEE
_ZZNSt9once_flag18_Prepare_executionC1IZSt9call_onceIZN3WTF20initializeMainThreadEvE3$_0JEEvRS_OT_DpOT0_EUlvE_EERS6_ENUlvE_8__invokeEv
_ZN3WTF22numberOfProcessorCoresEv
_ZN3WTF12parseIntegerIjcEESt8optionalIT_ESt4spanIKT0_Lm18446744073709551615EEhNS_18TrailingJunkPolicyENS_28ParseIntegerWhitespacePolicyE
_ZN3WTF6Thread10entryPointEPNS0_16NewThreadContextE
_ZN3WTF6Thread6createENS_12ASCIILiteralEONS_8FunctionIFvvEEENS_10ThreadTypeENS_9ThreadQOSENS_22ThreadSchedulingPolicyENS_28StackAllocationSpecificationE
_ZN3WTF10initializeEv
_ZN3WTF21ThreadSafeWeakHashSetIN3JSC17DeferredWorkTimer10TicketDataEE3addIS3_EEvRKT_Qsr3stdE16is_convertible_vIPTL0__PS6_E
_ZN3WTF21ThreadSafeWeakHashSetIN3JSC4Wasm14InstanceAnchorEE3addIS3_EEvRKT_Qsr3stdE16is_convertible_vIPTL0__PS6_E
_ZN3WTF21ThreadSafeWeakHashSetINS_11ThreadGroupEE3addIS1_EEvRKT_Qsr3stdE16is_convertible_vIPTL0__PS4_E
_ZN3WTF21ThreadSafeWeakHashSetINS_6ThreadEE3addIS1_EEvRKT_Qsr3stdE16is_convertible_vIPTL0__PS4_E
_ZN3WTF9HashTableISt10unique_ptrINS_15ListHashSetNodeINS_3RefINS_6ThreadENS_12RawPtrTraitsIS4_EENS_21DefaultRefDerefTraitsIS4_EEEEEESt14default_deleteISA_EESD_NS_17IdentityExtractorENS_28ListHashSetNodeHashFunctionsINS_11DefaultHashIS9_EEEENS_11ListHashSetIS9_SH_E10NodeTraitsESL_NS_10FastMallocEE3addINS_21ListHashSetTranslatorISH_EELNS_17ShouldValidateKeyE1ES9_TkSt9invocableZNSK_3addEOS9_EUlvE_EENS_18HashTableAddResultINS_17HashTableIteratorISN_SD_SD_SE_SI_SL_SL_EEEEOT1_RKT2_
_ZN3WTF21ListHashSetTranslatorINS_11DefaultHashINS_3RefINS_6ThreadENS_12RawPtrTraitsIS3_EENS_21DefaultRefDerefTraitsIS3_EEEEEEE9translateINS_15ListHashSetNodeIS8_EES8_RKZNS_11ListHashSetIS8_S9_E3addEOS8_EUlvE_EEvRSt10unique_ptrIT_St14default_deleteISL_EEOT0_OT1_
_ZZNSt9once_flag18_Prepare_executionC1IZSt9call_onceIZN3WTF10initializeEvE3$_0JEEvRS_OT_DpOT0_EUlvE_EERS6_ENUlvE_8__invokeEv
_ZN3WTFL25pasSuspenderCurrentThreadEv
_ZN3WTFL24pasSuspenderBeginSuspendEPv
_ZN3WTFL22pasSuspenderEndSuspendEPv
_ZN3WTFL25pasSuspenderReleaseHandleEPv
_ZN3WTF11ThreadGroupD1Ev
_ZN3WTF11ThreadGroupD2Ev
_ZN3WTF11ThreadGroup3addERKNS_14AbstractLockerERNS_6ThreadE
_ZN3WTF11ThreadGroup16addCurrentThreadEv
_ZN3WTF9HashTableISt10unique_ptrINS_15ListHashSetNodeINS_3RefINS_6ThreadENS_12RawPtrTraitsIS4_EENS_21DefaultRefDerefTraitsIS4_EEEEEESt14default_deleteISA_EESD_NS_17IdentityExtractorENS_28ListHashSetNodeHashFunctionsINS_11DefaultHashIS9_EEEENS_11ListHashSetIS9_SH_E10NodeTraitsESL_NS_10FastMallocEE15deallocateTableEPSD_
_ZN3WTF24TimeWithDynamicClockType3nowENS_9ClockTypeE
_ZNK3WTF24TimeWithDynamicClockType16nowWithSameClockEv
_ZNK3WTF24TimeWithDynamicClockType19approximateWallTimeEv
_ZN3WTFssERKNS_24TimeWithDynamicClockTypeES2_
_ZN3WTF10hasElapsedERKNS_24TimeWithDynamicClockTypeE
_ZN3WTF3URL10invalidateEv
_ZN3WTF3URLC1ERKS0_RKNS_6StringEPKNS_15URLTextEncodingE
_ZN3WTF3URLC2ERKS0_RKNS_6StringEPKNS_15URLTextEncodingE
_ZN3Bun13ConsoleObject4timeEPN3JSC14JSGlobalObjectERKN3WTF6StringE
_ZN3Bun13ConsoleObject7timeLogEPN3JSC14JSGlobalObjectERKN3WTF6StringEONS4_3RefIN9Inspector15ScriptArgumentsENS4_12RawPtrTraitsISA_EENS4_21DefaultRefDerefTraitsISA_EEEE
_ZN3Bun13ConsoleObject7timeEndEPN3JSC14JSGlobalObjectERKN3WTF6StringE
_ZN3Bun13ConsoleObject9timeStampEPN3JSC14JSGlobalObjectEON3WTF3RefIN9Inspector15ScriptArgumentsENS4_12RawPtrTraitsIS7_EENS4_21DefaultRefDerefTraitsIS7_EEEE
ArrayBufferSink__updateRef
Bun__ConsoleObject__record
Bun__ConsoleObject__recordEnd
Bun__ConsoleObject__screenshot
Bun__ConsoleObject__timeStamp
Bun__WebViewHost__childDied
Bun__WebViewHost__kill
CRYPTO_library_init
CryptoClass__finalize
EC_KEY_set_asn1_flag
ERR_load_BIO_strings
EVP_CIPHER_CTX_set_flags
EVP_HPKE_KEY_cleanup
ExpectMatcherUtilsClass__finalize
ExpectTypeOfClass__finalize
H3ResponseSink__updateRef
HTTPResponseSink__updateRef
HTTPSResponseSink__updateRef
METHOD_ref
METHOD_unref
NetworkSink__updateRef
OpenSSL_add_all_algorithms
SSL_load_error_strings
TopExceptionScope__destruct
VP8InitClipTables
WebPDemuxReleaseChunkIterator
_RINvNvMs0_NtCs25lZZ0iepJ3_7bun_uws11ssl_wrapperINtB8_10SSLWrapperpE13shutdown_read13dummy_on_dataONtNtNtCs1yUlXPGwCKD_11bun_runtime6socket15upgraded_duplex14UpgradedDuplexEB1E_
_RINvNvMsh_NtNtCs1yUlXPGwCKD_11bun_runtime7webcore7streamsNtB8_12SignalVTable4wrap8on_readyNtNtNtBc_3api14bun_subprocess10SubprocessEBc_
_RNCNvMs_NtNtCs4pSCigdXcdu_8lol_html16transform_stream10dispatcherINtB6_18DispatcherDelegateINtNtNtBa_8rewriter18rewrite_controller21HtmlRewriteControllerNtNtB1w_8settings17LocalHandlerTypesENCNvMs2_NtCse0gOrsKjhbD_11bun_bundler11HTMLScannerINtB3a_13HTMLProcessorNtB3a_11HTMLScannerKb0_E3runs0_0E14token_produced0B3c_
_RNSNvYNCNvMs_NtNtCs4pSCigdXcdu_8lol_html16transform_stream10dispatcherINtBb_18DispatcherDelegateINtNtNtBf_8rewriter18rewrite_controller21HtmlRewriteControllerNtNtB1B_8settings17LocalHandlerTypesENCNvMs2_NtCse0gOrsKjhbD_11bun_bundler11HTMLScannerINtB3f_13HTMLProcessorNtB3f_11HTMLScannerKb0_E3runs0_0E14token_produced0INtNtNtCshzHRevywlmE_4core3ops8function6FnOnceTRShEE9call_once6vtableB3h_
_RNvNtNtCs1yUlXPGwCKD_11bun_runtime5shell11interpreter25shell_task_unset_callback
_RNvNtNtCsc1JzvcHHBIg_18bun_react_compiler15reactive_scopes8visitors11terminal_id
_RNvNvMs3_NtCse0gOrsKjhbD_11bun_bundler11output_fileNtB7_5Value17to_bun_string_ref4noop
_RNvNvNtNtCsllRxxA4sW3V_11bun_sys_jsc9error_jsc11TestingAPIs16sigaction_layout6sentry
_RNvXNtNtCs4pSCigdXcdu_8lol_html16transform_stream10dispatcherNCNvMs2_NtCse0gOrsKjhbD_11bun_bundler11HTMLScannerINtB15_13HTMLProcessorNtB15_11HTMLScannerKb0_E3runs0_0NtB2_10OutputSink12handle_chunkB17_
_RNvXs0_NtNtCs1yUlXPGwCKD_11bun_runtime6server11server_bodyINtNtB7_15request_context14RequestContextINtB7_9NewServerKb1_KB1Q_EKB1Q_KB1Q_KB1Q_ENtB5_13RequestCtxOps27on_start_buffering_callbackB9_
_RNvXs2_NtNtCsj5JUsDxu4lF_11bun_install13lockfile_real7packageNtNtB9_16__folder_resolver19CacheFolderResolverNtB5_18ResolverContextDyn5countB9_
_RNvXs2_NtNtCsj5JUsDxu4lF_11bun_install13lockfile_real7packageuNtB5_18ResolverContextDyn5countB9_
_RNvXs3_NtNtCs1yUlXPGwCKD_11bun_runtime3api14bun_subprocessNtB5_17ArrayBufferSourceNtNtCsggdWDBgjuXA_9bun_spawn10subprocess10SourceData6detach
_RNvYNtNvXsf_NtNtCs4YSnrHLetPa_5alloc5boxed7convertINtBc_3BoxDNtNtCshzHRevywlmE_4core5error5ErrorNtNtB11_6marker4SendNtB1y_4SyncEL_EINtNtB11_7convert4FromNtNtBe_6string6StringE4from11StringErrorBX_7provideCs1yUlXPGwCKD_11bun_runtime
_ZN12_GLOBAL__N_119WasmStreamingParser6Client16didFinishParsingEv
_ZN3Bun12WeakRefOwnerILNS_11WeakRefTypeE2EE8finalizeEN3JSC6HandleINS3_7UnknownEEEPv
_ZN3Bun13ConsoleObject10screenshotEPN3JSC14JSGlobalObjectEON3WTF3RefIN9Inspector15ScriptArgumentsENS4_12RawPtrTraitsIS7_EENS4_21DefaultRefDerefTraitsIS7_EEEE
_ZN3Bun13ConsoleObject6recordEPN3JSC14JSGlobalObjectEON3WTF3RefIN9Inspector15ScriptArgumentsENS4_12RawPtrTraitsIS7_EENS4_21DefaultRefDerefTraitsIS7_EEEE
_ZN3Bun13ConsoleObject9recordEndEPN3JSC14JSGlobalObjectEON3WTF3RefIN9Inspector15ScriptArgumentsENS4_12RawPtrTraitsIS7_EENS4_21DefaultRefDerefTraitsIS7_EEEE
_ZN3Bun18SpyWeakHandleOwner8finalizeEN3JSC6HandleINS1_7UnknownEEEPv
_ZN3Bun27BunJSGlobalObjectDebuggable34pauseWaitingForAutomaticInspectionEv
_ZN3JSC10FireDetailD2Ev
_ZN3JSC11FuzzerAgentD1Ev
_ZN3JSC11FuzzerAgentD2Ev
_ZN3JSC11InterpreterC1Ev
_ZN3JSC11InterpreterC2Ev
_ZN3JSC11InterpreterD1Ev
_ZN3JSC11InterpreterD2Ev
_ZN3JSC11JSPIContextD1Ev
_ZN3JSC11JSPIContextD2Ev
_ZN3JSC11MarkedSpace15assertNoUnsweptEv
_ZN3JSC12HeapCellTypeD1Ev
_ZN3JSC12HeapCellTypeD2Ev
_ZN3JSC12SmallStringsD1Ev
_ZN3JSC12SmallStringsD2Ev
_ZN3JSC14BytecodeDumperINS_9CodeBlockEED1Ev
_ZN3JSC14BytecodeDumperINS_9CodeBlockEED2Ev
_ZN3JSC14JSModuleLoader14finishCreationEPNS_14JSGlobalObjectERNS_2VME
_ZN3JSC14SourceProvider24lockUnderlyingBufferImplEv
_ZN3JSC14SourceProvider26unlockUnderlyingBufferImplEv
_ZN3JSC15AssemblyHelpers24makeSpaceOnStackForCCallEv
_ZN3JSC15AssemblyHelpers24prepareWasmCallOperationENS_12X86Registers10RegisterIDE
_ZN3JSC15AssemblyHelpers27reclaimSpaceOnStackForCCallEv
_ZN3JSC15DeleteByVariantD1Ev
_ZN3JSC15DeleteByVariantD2Ev
_ZN3JSC15WeakHandleOwner8finalizeENS_6HandleINS_7UnknownEEEPv
_ZN3JSC15WeakHandleOwnerD1Ev
_ZN3JSC15WeakHandleOwnerD2Ev
_ZN3JSC16MutatorScheduler10willResumeEv
_ZN3JSC16MutatorScheduler19didReachTerminationEv
_ZN3JSC16MutatorScheduler21didExecuteConstraintsEv
_ZN3JSC16MutatorScheduler27synchronousDrainingDidStallEv
_ZN3JSC16MutatorScheduler3logEv
_ZN3JSC16MutatorScheduler7didStopEv
_ZN3JSC16MutatorSchedulerD1Ev
_ZN3JSC16MutatorSchedulerD2Ev
_ZN3JSC16assertInvariantsEv
_ZN3JSC17MarkingConstraint20prepareToExecuteImplERKN3WTF14AbstractLockerERNS_19AbstractSlotVisitorE
_ZN3JSC18BytecodeDumperBaseINS_17InstructionStreamINS_15BaseInstructionINS_14JSOpcodeTraitsEEEEEED1Ev
_ZN3JSC18BytecodeDumperBaseINS_17InstructionStreamINS_15BaseInstructionINS_14JSOpcodeTraitsEEEEEED2Ev
_ZN3JSC18EmptyStatementNode12emitBytecodeERNS_17BytecodeGeneratorEPNS_10RegisterIDE
_ZN3JSC19AbstractSlotVisitor16didAddOpaqueRootEPv
_ZN3JSC19AbstractSlotVisitor17didFindOpaqueRootEPv
_ZN3JSC19InlineCacheCompiler24emitDataICPrepareForCallERNS_12CCallHelpersE
_ZN3JSC19InlineCacheCompiler26emitDataICRestoreAfterCallERNS_12CCallHelpersE
_ZN3JSC19VerifierSlotVisitor24reportExtraMemoryVisitedEm
_ZN3JSC19VerifierSlotVisitor27reportExternalMemoryVisitedEm
_ZN3JSC19VerifierSlotVisitor7didRaceERKNS_12VisitRaceKeyE
_ZN3JSC20ParserArenaDeletableD2Ev
_ZN3JSC21ImportDeclarationNode12emitBytecodeERNS_17BytecodeGeneratorEPNS_10RegisterIDE
_ZN3JSC22AlignedMemoryAllocatorD1Ev
_ZN3JSC22AlignedMemoryAllocatorD2Ev
_ZN3JSC22SetPrivateBrandVariantD1Ev
_ZN3JSC22SetPrivateBrandVariantD2Ev
_ZN3JSC24BunV8HeapSnapshotBuilder23setWrappedObjectForCellEPNS_6JSCellEPv
_ZN3JSC24BunV8HeapSnapshotBuilder38setOpaqueRootReachabilityReasonForCellEPNS_6JSCellEN3WTF12ASCIILiteralE
_ZN3JSC24DestructuringPatternNodeD2Ev
_ZN3JSC24ExportAllDeclarationNode12emitBytecodeERNS_17BytecodeGeneratorEPNS_10RegisterIDE
_ZN3JSC24ScratchRegisterAllocatorD1Ev
_ZN3JSC24ScratchRegisterAllocatorD2Ev
_ZN3JSC26ExportNamedDeclarationNode12emitBytecodeERNS_17BytecodeGeneratorEPNS_10RegisterIDE
_ZN3JSC26PolymorphicCallStubRoutine23markRequiredObjectsImplERNS_11SlotVisitorE
_ZN3JSC26PolymorphicCallStubRoutine23markRequiredObjectsImplERNS_19AbstractSlotVisitorE
_ZN3JSC26SimpleTypedArrayController18JSArrayBufferOwner8finalizeENS_6HandleINS_7UnknownEEEPv
_ZN3JSC2B33Air12CCallSpecial19reportUsedRegistersERNS1_4InstERKNS_11RegisterSetE
_ZN3JSC2B33Air7SpecialD1Ev
_ZN3JSC2B33Air7SpecialD2Ev
_ZN3JSC2B38VariableD1Ev
_ZN3JSC2B38VariableD2Ev
_ZN3JSC33WebAssemblyBuiltinTypeExpectationD2Ev
_ZN3JSC3DFG9FinalizerD1Ev
_ZN3JSC3DFG9FinalizerD2Ev
_ZN3JSC3JIT11emit_op_nopEPKNS_15BaseInstructionINS_14JSOpcodeTraitsEEE
_ZN3JSC3JIT29emit_op_identity_with_profileEPKNS_15BaseInstructionINS_14JSOpcodeTraitsEEE
_ZN3JSC4Heap29releaseDelayedReleasedObjectsEv
_ZN3JSC4NodeD2Ev
_ZN3JSC4Wasm10BBQJITImpl6BBQJIT16emitMutatorFenceEv
_ZN3JSC4Wasm21StreamingParserClient16didFinishParsingEv
_ZN3JSC4Wasm21StreamingParserClientD2Ev
_ZN3JSC6HandleINS_7UnknownEED2Ev
_ZN3JSC7JITCode11shrinkToFitEv
_ZN3JSC7JITCode18validateReferencesERKNS_17TrackedReferencesE
_ZN3JSC7JITPlan12finalizeInGCEv
_ZN3JSC8Debugger11didContinueEPNS_14JSGlobalObjectE
_ZN3JSC8Debugger14attachDebuggerEv
_ZN3JSC8Debugger14detachDebuggerEb
_ZN3JSC8Debugger15ProfilingClientD1Ev
_ZN3JSC8Debugger15ProfilingClientD2Ev
_ZN3JSC8Debugger23runEventLoopWhilePausedEv
_ZN3JSC8Debugger6Client19debuggerDidEvaluateERS0_PNS_14JSGlobalObjectERKNS_10Breakpoint6ActionE
_ZN3JSC8Debugger6Client20debuggerWillEvaluateERS0_PNS_14JSGlobalObjectERKNS_10Breakpoint6ActionE
_ZN3JSC8Debugger8Observer19breakpointActionLogEPNS_14JSGlobalObjectERKN3WTF6StringE
_ZN3JSC8Debugger8didPauseEPNS_14JSGlobalObjectE
_ZN3JSC8FreeListD1Ev
_ZN3JSC8FreeListD2Ev
_ZN3JSC8Subspace13didResizeBitsEj
_ZN3JSC8Subspace14didRemoveBlockEj
_ZN3JSC8Subspace26didBeginSweepingToFreeListEPNS_11MarkedBlock6HandleE
_ZN3PAL19CryptoDigestContextD2Ev
_ZN3PAL9TextCodec18stripByteOrderMarkEv
_ZN3PAL9TextCodecD2Ev
_ZN3WTF11PrintStream3endEv
_ZN3WTF11PrintStream5flushEv
_ZN3WTF11PrintStreamD1Ev
_ZN3WTF11PrintStreamD2Ev
_ZN3WTF15AutomaticThread14threadDidStartEv
_ZN3WTF15AutomaticThread16threadIsStoppingERKNS_14AbstractLockerE
_ZN3WTF15URLTextEncodingD2Ev
_ZN3WTF17SharedTaskFunctorIFvPvEZN3JSC19JSWebAssemblyMemory20associateArrayBufferEPNS3_14JSGlobalObjectEbE3$_0E3runES1_
_ZN3WTF17SharedTaskFunctorIFvPvEZN3JSC19JSWebAssemblyMemory6bufferEPNS3_14JSGlobalObjectEE3$_0E3runES1_
_ZN3WTF17SharedTaskFunctorIFvRN3JSC12CCallHelpersERKNS1_2B324StackmapGenerationParamsEEZNS1_3FTL12_GLOBAL__N_112LowerDFGToB324ensureStillAliveHereImplERKNS_6VectorIPNS4_5ValueELm0ENS_15CrashOnOverflowELm16ENS_10FastMallocEEEEUlS3_S7_E_E3runES3_S7_
_ZN3WTF17SharedTaskFunctorIFvRN3JSC12CCallHelpersERKNS1_2B324StackmapGenerationParamsEEZNS1_3FTL12_GLOBAL__N_112LowerDFGToB326compileMultiDeleteByOffsetEvEUlS3_S7_E_E3runES3_S7_
_ZN3WTF17SharedTaskFunctorIFvRN3JSC12CCallHelpersERKNS1_2B324StackmapGenerationParamsEEZNS1_4Wasm14OMGIRGeneratorC1ERNS4_22AbstractHeapRepositoryERNS9_18CompilationContextERNS9_6ModuleERNS9_11CalleeGroupERKNS9_17ModuleInformationERNS9_11IPIntCalleeEPNS9_12InliningNodeERNS9_19OptimizingJITCalleeERNS4_9ProcedureERNS_6VectorINS9_22UnlinkedWasmToWasmCallELm0ENS_15CrashOnOverflowELm16ENS_10FastMallocEEERNS_14FixedBitVectorERjNS1_10MemoryModeENS9_15CompilationModeEjjE3$_2E3runES3_S7_
_ZN3WTF17SharedTaskFunctorIFvRN3JSC12CCallHelpersERKNS1_2B324StackmapGenerationParamsEEZNS1_4Wasm14OMGIRGeneratorC1ERNS4_22AbstractHeapRepositoryERNS9_18CompilationContextERNS9_6ModuleERNS9_11CalleeGroupERKNS9_17ModuleInformationERNS9_11IPIntCalleeEPNS9_12InliningNodeERNS9_19OptimizingJITCalleeERNS4_9ProcedureERNS_6VectorINS9_22UnlinkedWasmToWasmCallELm0ENS_15CrashOnOverflowELm16ENS_10FastMallocEEERNS_14FixedBitVectorERjNS1_10MemoryModeENS9_15CompilationModeEjjE3$_3E3runES3_S7_
_ZN3WTF17SharedTaskFunctorIFvRN3JSC12CCallHelpersERKNS1_2B324StackmapGenerationParamsEEZNS1_4Wasm14OMGIRGeneratorC1ERNS4_22AbstractHeapRepositoryERNS9_18CompilationContextERNS9_6ModuleERNS9_11CalleeGroupERKNS9_17ModuleInformationERNS9_11IPIntCalleeEPNS9_12InliningNodeERNS9_19OptimizingJITCalleeERNS4_9ProcedureERNS_6VectorINS9_22UnlinkedWasmToWasmCallELm0ENS_15CrashOnOverflowELm16ENS_10FastMallocEEERNS_14FixedBitVectorERjNS1_10MemoryModeENS9_15CompilationModeEjjE3$_4E3runES3_S7_
_ZN3WTF17SharedTaskFunctorIFvRN3JSC4Wasm4PlanEEZNS3_12dontFinalizeEvEUlS4_E_E3runES4_
_ZN3WTF18FunctionDispatcherD1Ev
_ZN3WTF18FunctionDispatcherD2Ev
_ZN3WTF26setPermissionsOfConfigPageEv
_ZN3WTF6Detail15CallableWrapperIZN3JSC14JSRunLoopTimer7Manager9PerVMDataD1EvE3$_0vJEE4callEv
_ZN3WTF6Detail15CallableWrapperIZN3JSC3DFG12_GLOBAL__N_18Validate8validateEvEUlNS3_9PureValueEE_vJS6_EE4callES6_
_ZN3WTF6Detail15CallableWrapperIZN3JSC4Wasm17StreamingCompilerD1EvE3$_0vJPNS2_17DeferredWorkTimer10TicketDataEEE4callES8_
_ZN3WTF6Detail15CallableWrapperIZN3JSC6Waiter14cancelAndClearERKNS_14AbstractLockerEE3$_0vJPNS2_17DeferredWorkTimer10TicketDataEEE4callESA_
_ZN3WTF6Detail15CallableWrapperIZNS_18ExternalStringImpl12createStaticESt4spanIKDsLm18446744073709551615EEE3$_0vJPvS7_jEE4callES7_S7_j
_ZN3WTF6Detail15CallableWrapperIZNS_18ExternalStringImpl12createStaticESt4spanIKhLm18446744073709551615EEE3$_0vJPvS7_jEE4callES7_S7_j
_ZN3WTF6Detail28CallableWrapperAllocatorBaseD2Ev
_ZN4bssl10spake2plus6ProverD1Ev
_ZN4bssl10spake2plus6ProverD2Ev
_ZN4bssl10spake2plus8VerifierD1Ev
_ZN4bssl10spake2plus8VerifierD2Ev
_ZN4bssl11SSLKeyShareD2Ev
_ZN4bssl12_GLOBAL__N_112CipherScorerD2Ev
_ZN6icu_7510VectorizerD1Ev
_ZN6icu_7510VectorizerD2Ev
_ZN6icu_7511PtnSkeletonD1Ev
_ZN6icu_7511PtnSkeletonD2Ev
_ZN6icu_7511ReadArray1DD1Ev
_ZN6icu_7511ReadArray1DD2Ev
_ZN6icu_7511ReadArray2DD1Ev
_ZN6icu_7511ReadArray2DD2Ev
_ZN6icu_7512ConstArray1DD1Ev
_ZN6icu_7512ConstArray1DD2Ev
_ZN6icu_7512ConstArray2DD1Ev
_ZN6icu_7512ConstArray2DD2Ev
_ZN6icu_7512DistanceInfoD1Ev
_ZN6icu_7512DistanceInfoD2Ev
_ZN6icu_7512NumberFormat15setRoundingModeENS0_13ERoundingModeE
_ZN6icu_7512PluralFormat14PluralSelectorD1Ev
_ZN6icu_7512PluralFormat14PluralSelectorD2Ev
_ZN6icu_7512_GLOBAL__N_110MaxExpSink8handleCEEl
_ZN6icu_7513CollationKeys13LevelCallbackD1Ev
_ZN6icu_7513CollationKeys13LevelCallbackD2Ev
_ZN6icu_7513IFixedDecimalD1Ev
_ZN6icu_7513IFixedDecimalD2Ev
_ZN6icu_7513OlsonTimeZone12setRawOffsetEi
_ZN6icu_7513TimeZoneNames19loadAllDisplayNamesER10UErrorCode
_ZN6icu_7513UnicodeFilter7setDataEPKNS_23TransliterationRuleDataE
_ZN6icu_7514FormattedValueD1Ev
_ZN6icu_7514FormattedValueD2Ev
_ZN6icu_7514NFSubstitution10setDivisorEisR10UErrorCode
_ZN6icu_7515DateTimeMatcherD1Ev
_ZN6icu_7515DateTimeMatcherD2Ev
_ZN6icu_7516SunTimeAngleFuncD1Ev
_ZN6icu_7516SunTimeAngleFuncD2Ev
_ZN6icu_7517MoonTimeAngleFuncD1Ev
_ZN6icu_7517MoonTimeAngleFuncD2Ev
_ZN6icu_7517RuleBasedTimeZone12setRawOffsetEi
_ZN6icu_7518CalendarAstronomer9AngleFuncD1Ev
_ZN6icu_7518CalendarAstronomer9AngleFuncD2Ev
_ZN6icu_7518CalendarAstronomerD1Ev
_ZN6icu_7518CalendarAstronomerD2Ev
_ZN6icu_7519CollationRuleParserD1Ev
_ZN6icu_7519CollationRuleParserD2Ev
_ZN6icu_7520CheckedArrayByteSinkD1Ev
_ZN6icu_7520CheckedArrayByteSinkD2Ev
_ZN6icu_7520CodePointsVectorizerD1Ev
_ZN6icu_7520CodePointsVectorizerD2Ev
_ZN6icu_7520FieldPositionHandlerD1Ev
_ZN6icu_7520FieldPositionHandlerD2Ev
_ZN6icu_7524ConstrainedFieldPositionD1Ev
_ZN6icu_7524ConstrainedFieldPositionD2Ev
_ZN6icu_7524FieldPositionOnlyHandlerD1Ev
_ZN6icu_7524FieldPositionOnlyHandlerD2Ev
_ZN6icu_7525ContractionsAndExpansions6CESinkD1Ev
_ZN6icu_7525ContractionsAndExpansions6CESinkD2Ev
_ZN6icu_7525GraphemeClusterVectorizerD1Ev
_ZN6icu_7525GraphemeClusterVectorizerD2Ev
_ZN6icu_7530TextTrieMapSearchResultHandlerD1Ev
_ZN6icu_7530TextTrieMapSearchResultHandlerD2Ev
_ZN6icu_756BMPSetD1Ev
_ZN6icu_756BMPSetD2Ev
_ZN6icu_756number4impl13ModifierStoreD1Ev
_ZN6icu_756number4impl13ModifierStoreD2Ev
_ZN6icu_756number4impl13TokenConsumerD1Ev
_ZN6icu_756number4impl13TokenConsumerD2Ev
_ZN6icu_756number4impl14SymbolProviderD1Ev
_ZN6icu_756number4impl14SymbolProviderD2Ev
_ZN6icu_756number4impl18MultiplierProducerD1Ev
_ZN6icu_756number4impl18MultiplierProducerD2Ev
_ZN6icu_756number4impl20AffixPatternProviderD1Ev
_ZN6icu_756number4impl20AffixPatternProviderD2Ev
_ZN6icu_756number4impl8ModifierD1Ev
_ZN6icu_756number4impl8ModifierD2Ev
_ZN6icu_757UObjectD1Ev
_ZN6icu_757UObjectD2Ev
_ZN6icu_758ByteSink5FlushEv
_ZN6icu_758ByteSinkD1Ev
_ZN6icu_758ByteSinkD2Ev
_ZN6icu_758Collator10setLocalesERKNS_6LocaleES3_S3_
_ZN6icu_758numparse4impl18NumberParseMatcherD1Ev
_ZN6icu_758numparse4impl18NumberParseMatcherD2Ev
_ZN6icu_759ErrorCodeD1Ev
_ZN6icu_759ErrorCodeD2Ev
_ZN7WebCore10JSResponse14finishCreationERN3JSC2VME
_ZN7WebCore11EventTarget23eventListenersDidChangeEv
_ZN7WebCore11EventTarget31uncaughtExceptionInEventHandlerEv
_ZN7WebCore11JSFSWatcher5Owner8finalizeEN3JSC6HandleINS2_7UnknownEEEPv
_ZN7WebCore12JSCloseEvent14finishCreationERN3JSC2VME
_ZN7WebCore12JSErrorEvent14finishCreationERN3JSC2VME
_ZN7WebCore13JSEventTarget14finishCreationERN3JSC2VME
_ZN7WebCore14JSEventEmitter14finishCreationERN3JSC2VME
_ZN7WebCore17ActiveDOMCallback15visitJSFunctionERN3JSC11SlotVisitorE
_ZN7WebCore17ActiveDOMCallback15visitJSFunctionERN3JSC19AbstractSlotVisitorE
_ZN7WebCore17WorkerGlobalScope23eventListenersDidChangeEv
_ZN7WebCore18JSShellInterpreter5Owner8finalizeEN3JSC6HandleINS2_7UnknownEEEPv
_ZN7WebCore23JSPostgresSQLConnection5Owner8finalizeEN3JSC6HandleINS2_7UnknownEEEPv
_ZN7WebCore5Event14receivedTargetEv
_ZN7WebCore5Event16setRelatedTargetEPNS_11EventTargetE
_ZN7WebCore6JSBlob14finishCreationERN3JSC2VME
_ZN7WebCore6JSGlob5Owner8finalizeEN3JSC6HandleINS2_7UnknownEEEPv
_ZN7WebCore6Worker23eventListenersDidChangeEv
_ZN7WebCore7JSEvent14finishCreationERN3JSC2VME
_ZN7WebCore9JSRequest14finishCreationERN3JSC2VME
_ZN7bmalloc10SystemHeap8scavengeEv
_ZN9Inspector14InspectorAgent27didCreateFrontendAndBackendEv
_ZN9Inspector16HeapHolderFinder11analyzeNodeEPN3JSC6JSCellE
_ZN9Inspector16HeapHolderFinder15setLabelForCellEPN3JSC6JSCellERKN3WTF6StringE
_ZN9Inspector16HeapHolderFinder23setWrappedObjectForCellEPN3JSC6JSCellEPv
_ZN9Inspector16HeapHolderFinder38setOpaqueRootReachabilityReasonForCellEPN3JSC6JSCellEN3WTF12ASCIILiteralE
_ZN9Inspector18InspectorAgentBase12discardAgentEv
_ZN9Inspector18InspectorAgentBase13discardValuesEv
_ZN9Inspector18InspectorHeapAgent27didCreateFrontendAndBackendEv
_ZN9Inspector19InspectorAuditAgent11muteConsoleEv
_ZN9Inspector19InspectorAuditAgent13unmuteConsoleEv
_ZN9Inspector19InspectorAuditAgent27didCreateFrontendAndBackendEv
_ZN9Inspector19InspectorAuditAgent29willDestroyFrontendAndBackendENS_16DisconnectReasonE
_ZN9Inspector21InjectedScriptManager23didCreateInjectedScriptERKNS_14InjectedScriptE
_ZN9Inspector21InjectedScriptManager7connectEv
_ZN9Inspector21InspectorConsoleAgent27didCreateFrontendAndBackendEv
_ZN9Inspector21InspectorRuntimeAgent27didCreateFrontendAndBackendEv
_ZN9Inspector21RemoteInspectorServer15didChangeStatusERNS_29RemoteInspectorSocketEndpointEjNS1_8Listener6StatusE
_ZN9Inspector22InspectorDebuggerAgent27didClearAsyncStackTraceDataEv
_ZN9Inspector22InspectorDebuggerAgent27didCreateFrontendAndBackendEv
_ZN9Inspector22RemoteInspectionTarget13setIndicatingEb
_ZN9Inspector23InspectorLifecycleAgent27didCreateFrontendAndBackendEv
_ZN9Inspector24InspectorHTTPServerAgent27didCreateFrontendAndBackendEv
_ZN9Inspector26InspectorTestReporterAgent27didCreateFrontendAndBackendEv
_ZN9Inspector26JSGlobalObjectRuntimeAgent11muteConsoleEv
_ZN9Inspector26JSGlobalObjectRuntimeAgent13unmuteConsoleEv
_ZN9Inspector27JSGlobalObjectDebuggerAgent11muteConsoleEv
_ZN9Inspector27JSGlobalObjectDebuggerAgent13unmuteConsoleEv
_ZN9Inspector28HeapBackendDispatcherHandlerD1Ev
_ZN9Inspector28HeapBackendDispatcherHandlerD2Ev
_ZN9Inspector28InspectorScriptProfilerAgent27didCreateFrontendAndBackendEv
_ZN9Inspector29AuditBackendDispatcherHandlerD1Ev
_ZN9Inspector29AuditBackendDispatcherHandlerD2Ev
_ZN9Inspector31ConsoleBackendDispatcherHandlerD1Ev
_ZN9Inspector31ConsoleBackendDispatcherHandlerD2Ev
_ZN9Inspector31RuntimeBackendDispatcherHandlerD1Ev
_ZN9Inspector31RuntimeBackendDispatcherHandlerD2Ev
_ZN9Inspector32DebuggerBackendDispatcherHandlerD1Ev
_ZN9Inspector32DebuggerBackendDispatcherHandlerD2Ev
_ZN9Inspector33InspectorBackendDispatcherHandlerD1Ev
_ZN9Inspector33InspectorBackendDispatcherHandlerD2Ev
_ZN9Inspector33JSGlobalObjectInspectorController29setDidBeginCheckedPtrDeletionEv
_ZN9Inspector34HTTPServerBackendDispatcherHandlerD1Ev
_ZN9Inspector34HTTPServerBackendDispatcherHandlerD2Ev
_ZN9Inspector34InspectorBunFrontendDevServerAgent27didCreateFrontendAndBackendEv
_ZN9Inspector36TestReporterBackendDispatcherHandlerD1Ev
_ZN9Inspector36TestReporterBackendDispatcherHandlerD2Ev
_ZN9Inspector38ScriptProfilerBackendDispatcherHandlerD1Ev
_ZN9Inspector38ScriptProfilerBackendDispatcherHandlerD2Ev
_ZN9Inspector41LifecycleReporterBackendDispatcherHandlerD1Ev
_ZN9Inspector41LifecycleReporterBackendDispatcherHandlerD2Ev
_ZN9Inspector44BunFrontendDevServerBackendDispatcherHandlerD1Ev
_ZN9Inspector44BunFrontendDevServerBackendDispatcherHandlerD2Ev
_ZN9Inspector6Socket4initEv
_ZNK3JSC14SourceProvider11updateCacheEPKNS_26UnlinkedFunctionExecutableERKNS_10SourceCodeENS_22CodeSpecializationKindEPKNS_25UnlinkedFunctionCodeBlockE
_ZNK3JSC14SourceProvider13cacheBytecodeERKN3WTF8FunctionIFNS1_6RefPtrINS_14CachedBytecodeENS1_12RawPtrTraitsIS4_EENS1_21DefaultRefDerefTraitsIS4_EEEEvEEE
_ZNK3JSC14SourceProvider20commitCachedBytecodeEv
_ZNK3JSC19AbstractSlotVisitor4dumpERN3WTF11PrintStreamE
_ZNK3JSC21AssignmentElementNode23collectBoundIdentifiersERN3WTF6VectorINS_10IdentifierELm0ENS1_15CrashOnOverflowELm16ENS1_10FastMallocEEE
_ZNK3JSC22AlignedMemoryAllocator4dumpERN3WTF11PrintStreamE
_ZNK3JSC24DestructuringPatternNode29finishDirectBindingAssignmentERNS_17BytecodeGeneratorE
_ZNK3JSC26UnlinkedCodeBlockGenerator4dumpERN3WTF11PrintStreamE
_ZNK3JSC2B35Value8dumpMetaERN3WTF12CommaPrinterERNS2_11PrintStreamE
_ZNK3JSC8Debugger15reportExceptionEPNS_14JSGlobalObjectEPNS_9ExceptionE
_ZNK6icu_7513MessageFormat11DummyFormat11parseObjectERKNS_13UnicodeStringERNS_11FormattableERNS_13ParsePositionE
_ZNK6icu_7518DateIntervalFormat11parseObjectERKNS_13UnicodeStringERNS_11FormattableERNS_13ParsePositionE
_ZNK6icu_7520CompactDecimalFormat5parseERKNS_13UnicodeStringERNS_11FormattableERNS_13ParsePositionE
_ZNK6icu_7521NumeratorSubstitution14doSubstitutionElRNS_13UnicodeStringEiiR10UErrorCode
_ZNK6icu_7521SameValueSubstitution14calcUpperBoundEd
_ZNK6icu_7521SameValueSubstitution15transformNumberEd
_ZNK6icu_7521SameValueSubstitution16composeRuleValueEdd
_ZNK6icu_7526FractionalPartSubstitution14doSubstitutionElRNS_13UnicodeStringEiiR10UErrorCode
_ZNK6icu_758numparse4impl14PaddingMatcher6acceptERNS_13StringSegmentERNS1_12ParsedNumberE
_ZNK6icu_758numparse4impl17IgnorablesMatcher6acceptERNS_13StringSegmentERNS1_12ParsedNumberE
_ZNK6icu_758numparse4impl18NumberParseMatcher11postProcessERNS1_12ParsedNumberE
_ZNK6icu_759ErrorCode13handleFailureEv
_ZNK7simdutf8internal26unsupported_implementation22to_well_formed_utf16beEPKDsmPDs
_ZNK7simdutf8internal26unsupported_implementation22to_well_formed_utf16leEPKDsmPDs
_ZNK7simdutf8internal26unsupported_implementation23change_endianness_utf16EPKDsmPDs
__bun_dispatch__BufferedReaderParentLink__FilterRunHandle__on_reader_done
__bun_dispatch__BufferedReaderParentLink__MultiRunPipeReader__on_reader_done
jpeg_mem_term
lsquic_cleanup_gquic_crypto
lsquic_init_timers
lsquic_pacer_cleanup
pas_mte_ensure_initialized
us_loop_integrate
us_socket_ref
us_socket_unref
uws_h3_res_reset_timeout
uws_h3_res_timeout
_ZN3Bun13ConsoleObject7profileEPN3JSC14JSGlobalObjectERKN3WTF6StringE
_ZN3Bun13ConsoleObject10profileEndEPN3JSC14JSGlobalObjectERKN3WTF6StringE
_ZN7WebCore6CookieD1Ev
_ZN7WebCore6CookieD2Ev
_ZN7WebCore6Cookie6createERKN3WTF6StringES4_S4_S4_lbNS_14CookieSameSiteEbdb
_ZN7WebCore6Cookie17isValidCookieNameERKN3WTF6StringE
_ZN3WTF4SHA112addUTF8BytesENS_10StringViewE
_ZN3WTF4SHA116computeHexDigestEv
_ZN3WTF18makePagesFreezableEPvm
_ZN3WTF6Config10initializeEv
_ZN3WTF6Config8finalizeEv
_ZN3WTF6Config17permanentlyFreezeEv
_ZN3WTF22permanentlyFreezePagesEPvmNS_20FreezePagePermissionE
_ZZNSt9once_flag18_Prepare_executionC1IZSt9call_onceIZN3WTF6Config8finalizeEvE3$_0JEEvRS_OT_DpOT0_EUlvE_EERS7_ENUlvE_8__invokeEv
_ZNK3WTF8WallTime17secondsSinceEpochEv
_ZN3WTF8WordLock8lockSlowEv
_ZN3WTFL28uTextUTF16ContextAwareAccessEP5UTextla
_ZN3WTFL29uTextUTF16ContextAwareExtractEP5UTextllPDsiP10UErrorCode
_ZN3WTFL27uTextUTF16ContextAwareCloseEP5UText
_ZN3WTF15BinarySemaphore6signalEv
_ZN3WTF15BinarySemaphore9waitUntilERKNS_24TimeWithDynamicClockTypeE
_ZN3WTF22ScopedLambdaRefFunctorIFlNS_10ParkingLot12UnparkResultEEZNS_9Condition9notifyOneEvEUlS2_E_E12implFunctionEPvS2_
_ZN3WTF14SignalHandlers3addENS_6SignalEONS_8FunctionIFNS_12SignalActionES1_RNS_7SigInfoERNS_17PlatformRegistersEEEE
_ZN3WTF25activateSignalHandlersForENS_6SignalE
_ZN3WTF16addSignalHandlerENS_6SignalEONS_8FunctionIFNS_12SignalActionES0_RNS_7SigInfoERNS_17PlatformRegistersEEEE
_ZN3WTF14SignalHandlers10initializeEv
_ZN3WTF14SignalHandlers8finalizeEv
_ZN3WTFL16jscSignalHandlerEiP9siginfo_tPv
_Z25uv_get_constrained_memoryv
_ZL9uv__slurpPKcPcm
_Z22uv_get_constrained_cpuv
_ZN3WTF8pageSizeEv
_ZN3WTF10ParkingLot21parkConditionallyImplEPKvRKNS_12ScopedLambdaIFbvEEERKNS3_IFvvEEERKNS_24TimeWithDynamicClockTypeE
_ZN7bmalloc11Environment45computeShouldBmallocAllocateThroughSystemHeapEv
_ZN8Gigacage14ensureGigacageEv
_ZN8Gigacage24disablePrimitiveGigacageEv
_ZN8Gigacage27addPrimitiveDisableCallbackEPFvPvES0_
_ZN8Gigacage30removePrimitiveDisableCallbackEPFvPvES0_
_ZN8Gigacage15shouldBeEnabledEv
_ZZNSt9once_flag18_Prepare_executionC1IZSt9call_onceIZN8Gigacage14ensureGigacageEvE3$_0JEEvRS_OT_DpOT0_EUlvE_EERS6_ENUlvE_8__invokeEv
_ZN7bmalloc16StaticPerProcessINS_25PrimitiveDisableCallbacksEE11getSlowCaseEv
_ZN7bmalloc6VectorIN8Gigacage8CallbackEE14shrinkCapacityEv
_ZN7bmalloc6VectorIN8Gigacage8CallbackEE16reallocateBufferEm
_ZN7bmalloc6VectorIN8Gigacage8CallbackEE12growCapacityEv
_ZZNSt9once_flag18_Prepare_executionC1IZSt9call_onceIZN8Gigacage15shouldBeEnabledEvE3$_0JEEvRS_OT_DpOT0_EUlvE_EERS6_ENUlvE_8__invokeEv
_ZN7bmalloc25ARC4RandomNumberGenerator4stirEv
_ZN7bmalloc12cryptoRandomEPvm
_ZZNSt9once_flag18_Prepare_executionC1IZSt9call_onceIZN7bmalloc25ARC4RandomNumberGenerator4stirEvE3$_0JEEvRS_OT_DpOT0_EUlvE_EERS7_ENUlvE_8__invokeEv
_ZN7bmalloc16StaticPerProcessINS_25ARC4RandomNumberGeneratorEE11getSlowCaseEv
_ZN3WTF7dataLogIJA45_ciA8_cA2_cEEEvDpRKT_
_ZN3WTF7dataLogIJA63_ciA46_ciA2_cS3_EEEvDpRKT_
_ZN3WTF7Unicode7convertESt4spanIKDsLm18446744073709551615EES1_IDuLm18446744073709551615EE
_ZN3WTF7UnicodeL15convertInternalILNS0_11ReplacementE0EDsDuEENS0_16ConversionResultIT1_EESt4spanIKT0_Lm18446744073709551615EES6_IS4_Lm18446744073709551615EE
_ZN3WTF7Unicode7convertESt4spanIKDuLm18446744073709551615EES1_IDsLm18446744073709551615EE
_ZN3WTF7Unicode7convertESt4spanIKhLm18446744073709551615EES1_IDuLm18446744073709551615EE
_ZN3WTF7Unicode32convertReplacingInvalidSequencesESt4spanIKDsLm18446744073709551615EES1_IDuLm18446744073709551615EE
pas_system_heap_memalign
pas_system_heap_memalign_compact
pas_system_heap_realloc
pas_system_heap_realloc_compact
pas_system_heap_free
_ZN7bmalloc16StaticPerProcessINS_11EnvironmentEE11getSlowCaseEv
_ZNSt8__detail9_Map_baseIPvSt4pairIKS1_mESaIS4_ENS_10_Select1stESt8equal_toIS1_ESt4hashIS1_ENS_18_Mod_range_hashingENS_20_Default_ranged_hashENS_20_Prime_rehash_policyENS_17_Hashtable_traitsILb0ELb0ELb1EEELb1EEixERS3_
_ZNSt10_HashtableIPvSt4pairIKS0_mESaIS3_ENSt8__detail10_Select1stESt8equal_toIS0_ESt4hashIS0_ENS5_18_Mod_range_hashingENS5_20_Default_ranged_hashENS5_20_Prime_rehash_policyENS5_17_Hashtable_traitsILb0ELb0ELb1EEEE8_M_eraseESt17integral_constantIbLb1EERS2_
_ZN7bmalloc16StaticPerProcessINS_10SystemHeapEE11getSlowCaseEv
_ZN7bmalloc11EnvironmentC1ERKSt11scoped_lockIJNS_5MutexEEE
_ZN7bmalloc11EnvironmentC2ERKSt11scoped_lockIJNS_5MutexEEE
_ZN7bmalloc5Mutex12lockSlowCaseEv
_ZN7bmalloc3api29tryLargeZeroedMemalignVirtualEmmNS_21CompactAllocationModeENS_8HeapKindE
_ZN7bmalloc3api16freeLargeVirtualEPvmNS_8HeapKindE
bmalloc_heap_config_specialized_try_allocate_common_impl_slow
bmalloc_heap_config_specialized_try_deallocate_not_small_exclusive_segregated
_ZL30pas_allocation_result_identity21pas_allocation_result
bmalloc_force_auxiliary_heap_into_reserved_memory
jit_heap_add_fresh_memory
jit_heap_try_allocate
jit_heap_get_size
jit_heap_deallocate
_ZL50jit_try_allocate_common_primitive_impl_casual_casemm19pas_allocation_mode
_ZL48jit_try_allocate_common_primitive_impl_impl_slowP14__pas_heap_refmm19pas_allocation_mode
pas_segregated_page_config_kind_get_string
tagged_bmalloc_heap_config_activate
_ZL39bmalloc_type_as_heap_type_get_type_sizePK15__pas_heap_type
_ZL44bmalloc_type_as_heap_type_get_type_alignmentPK15__pas_heap_type
_ZL56tagged_bmalloc_small_segregated_page_header_for_boundaryPv
_ZL56tagged_bmalloc_small_segregated_boundary_for_page_headerP13pas_page_base
tagged_bmalloc_small_segregated_page_header_for_boundary_remote
tagged_bmalloc_small_segregated_create_page_header
tagged_bmalloc_small_segregated_destroy_page_header
tagged_bmalloc_heap_config_allocate_small_segregated_page
tagged_bmalloc_small_segregated_page_config_specialized_local_allocator_refill
set_up_range
pas_ensure_heap_forced_into_reserved_memory
pas_create_basic_heap_page_caches_with_reserved_memory
allocate_from_megapages
pas_immortal_heap_allocate_with_manual_alignment
pas_immortal_heap_allocate_with_alignment
pas_immortal_heap_allocate
pas_immortal_heap_allocate_with_heap_lock_hold_mode
pas_immortal_heap_allocate_with_alignment_and_heap_lock_hold_mode
pas_large_heap_construct
pas_large_heap_try_allocate_and_forget
allocate_impl
pas_large_heap_try_allocate_user_allocation
pas_large_heap_try_deallocate
for_each_live_object_entry_callback
pas_large_heap_compute_summary
pas_fast_large_free_heap_try_allocate
pas_ensure_heap_slow
pas_heap_runtime_config_view_cache_capacity_for_object_size
pas_heap_runtime_config_zero_view_cache_capacity
pas_heap_runtime_config_aggressive_view_cache_capacity
pas_compact_bootstrap_free_heap_get_num_free_bytes
compact_bootstrap_source_allocate_aligned
pas_compact_heap_reservation_try_allocate
pas_try_deallocate_known_large
pas_try_deallocate_pgm_large
pas_deallocate_known_large
pas_try_deallocate_slow
pas_try_deallocate_slow_no_cache
pas_page_base_add_free_range
pas_page_header_table_add
pas_page_header_table_hash
pas_page_header_table_remove
pas_lock_free_read_ptr_ptr_hashtable_set
pas_page_malloc_alignment_slow
pas_page_malloc_alignment_shift_slow
pas_page_malloc_try_allocate_without_deallocating_padding
pas_page_malloc_zero_fill
pas_page_malloc_commit
commit_impl
pas_page_malloc_commit_without_mprotect
pas_page_malloc_decommit
decommit_impl
pas_page_malloc_decommit_without_mprotect
pas_page_sharing_participant_create
right_rotate
pas_red_black_tree_remove
remove_fixup
pas_reserved_memory_provider_construct
pas_reserved_memory_provider_try_allocate
null_aligned_allocator
ensure_data_instance
pas_scavenger_did_create_eligible
ChunkInit
_ZN3JSC2B33Air8TmpWidthC1Ev
_ZN3JSC2B33Air8TmpWidthC2Ev
_ZN3JSC3DFG21DesiredWeakReferencesC1Ev
_ZN3JSC3DFG21DesiredWeakReferencesC2Ev
pas_page_sharing_participant_payload_with_use_epoch_construct
pas_simple_large_free_heap_construct
ChunkRelease
ChunkGetIndexFromTag
ChunkGetIdFromTag
ChunkGetTagFromFourCC
ChunkSearchList
ChunkAssignData
fix_free_list_if_necessary
pas_simple_large_free_heap_deallocate
merge_physical
pas_simple_large_free_heap_get_num_free_bytes
append
pas_small_medium_bootstrap_heap_page_provider
pas_small_medium_bootstrap_free_heap_try_allocate_with_alignment
initialize_config
bootstrap_source_allocate_aligned
pas_status_reporter_dump_bitfit_directory
pas_status_reporter_dump_segregated_size_directory
pas_bitfit_view_compute_summary
pas_bootstrap_heap_page_provider
pas_bootstrap_free_heap_try_allocate_with_alignment
pas_bootstrap_free_heap_allocate
pas_bootstrap_free_heap_allocate_with_alignment
pas_bootstrap_free_heap_deallocate
pas_bootstrap_free_heap_get_num_free_bytes
pas_bootstrap_free_heap_hold_lock_and_allocate_for_config
pas_bootstrap_free_heap_hold_lock_and_deallocate_for_config
pas_bootstrap_free_heap_allocate_simple_for_config
pas_bootstrap_free_heap_deallocate_for_config
pas_commit_span_construct
pas_commit_span_add_to_change
pas_commit_span_add_unchanged_and_commit
pas_commit_span_add_unchanged_and_decommit
pas_compact_expendable_memory_allocate
pas_compact_expendable_memory_commit_if_necessary
pas_compact_expendable_memory_scavenge
pas_compact_bootstrap_free_heap_try_allocate_with_alignment
pas_compact_bootstrap_free_heap_allocate_with_alignment
pas_baseline_allocator_detach_directory
pas_segregated_view_get_size_directory_slow
pas_segregated_view_get_page_config
pas_segregated_view_get_page
pas_segregated_view_get_commit_lock
pas_segregated_view_get_ownership_lock
pas_segregated_view_is_owned
pas_segregated_view_lock_ownership_lock_if_owned
pas_segregated_view_unlock_ownership_lock
pas_segregated_view_note_emptiness
pas_segregated_view_for_each_live_object
pas_segregated_view_compute_summary
pas_simple_free_heap_helpers_try_allocate_with_manual_alignment
pas_simple_free_heap_helpers_deallocate
pas_simple_large_free_heap_try_allocate
insert_node
pas_zero_mode_merge
pas_coalign_one_sided
ChunkSetHead
ChunkAppend
ChunkDelete
ChunkListDelete
ChunkListEmit
ChunkListDiskSize
EVP_DecodeInit
EVP_EncodeInit
MuxImageInit
_ZN3JSC11ParserArenaC1Ev
_ZN3JSC11ParserArenaC2Ev
MuxImageRelease
MuxImageCount
MuxImagePush
MuxImageDelete
MuxImageGetNth
MuxImageDiskSize
MuxImageEmit
MuxHasAlpha
MuxEmitRiffHeader
MuxGetChunkListFromId
MuxValidate
try_allocate_without_fixing
allocate_from_compact_megapages
pas_heap_config_kind_get_string
pas_heap_config_kind_set_active
pas_ensure_heap_with_page_caches
pas_enumerable_page_malloc_try_allocate_without_deallocating_padding
pas_enumerable_range_list_append
pas_enumerator_allocate
pas_enumerator_copy_remote
pas_enumerator_map_remote
pas_enumerator_region_allocate
pas_get_epoch
pas_expendable_memory_state_version_next
pas_expendable_memory_construct
pas_expendable_memory_try_allocate
pas_expendable_memory_allocate
pas_expendable_memory_commit_if_necessary
pas_expendable_memory_scavenge
pas_coalign
pas_extended_gcd
pas_compute_summary_live_object_callback
pas_compute_summary_live_object_callback_without_physical_sharing
pas_compute_summary_live_object_callback_for_config
pas_compute_summary_dead_object_callback
pas_compute_summary_dead_object_callback_without_physical_sharing
pas_compute_summary_dead_object_callback_for_config
pas_large_heap_physical_page_sharing_cache_construct
pas_large_heap_physical_page_sharing_cache_try_allocate_with_alignment
large_aligned_allocator
pas_local_view_cache_move
pas_local_view_cache_stop
pas_local_view_cache_did_restart
pas_lock_lock_slow
pas_lock_unlock_slow
pas_vlog_fd
pas_vlog
pas_log
pas_start_crash_logging
compute_msl_status
pas_msl_malloc_logging_slow
pas_msl_free_logging_slow
pas_medium_megapage_cache_try_allocate
pas_megapage_cache_construct
pas_megapage_cache_try_allocate
megapage_cache_allocate_aligned
pas_bitfit_heap_compute_summary
pas_heap_config_activate
pas_heap_config_utils_allocate_aligned
pas_heap_config_utils_prepare_to_enumerate
pas_fast_megapage_cache_try_allocate
table_set_by_index
pas_fast_megapage_table_set_by_index
pas_bitfield_vector_set
fd_stream_vprintf
pas_fd_stream_construct
pas_free_granules_compute_and_mark_decommitted
pas_free_granules_unmark_decommitted
pas_free_granules_decommit_after_locking_range
pas_heap_create
pas_heap_get_type_size
pas_heap_get_type_alignment
pas_heap_compute_summary
pas_heap_ensure_size_directory_for_size_slow
pas_all_heaps_add_heap
pas_all_heaps_for_each_heap
pas_segregated_exclusive_view_compute_summary
pas_segregated_exclusive_view_install_full_use_counts
pas_segregated_heap_construct
pas_compact_atomic_segregated_size_directory_ptr_store
pas_segregated_heap_rare_data_ptr_store
pas_segregated_heap_get_bitfit
pas_probabilistic_guard_malloc_deallocate
pas_probabilistic_guard_malloc_check_exists
pas_probabilistic_guard_malloc_return_as_large_map_entry
pas_probabilistic_guard_malloc_initialize_pgm
pas_probabilistic_guard_malloc_initialize_pgm_as_enabled
pas_ptr_hash_map_rehash
pas_red_black_tree_insert
compute_summary_live_object_callback
aligned_allocator
pas_fast_large_free_heap_construct
left_rotate
_ZN3WTF6Thread7suspendERKNS_19ThreadSuspendLockerE
_ZN3WTF6Thread5yieldEv
_ZN3WTF6Thread6resumeERKNS_19ThreadSuspendLockerE
_ZN3WTF6Thread12getRegistersERKNS_19ThreadSuspendLockerERNS_17PlatformRegistersE
_ZN3WTF6Thread16initializeTLSKeyEv
_ZN3WTF6Thread11destructTLSEPv
_ZN3WTF5MutexD1Ev
_ZN3WTF5MutexD2Ev
_ZN3WTF5Mutex4lockEv
_ZN3WTF5Mutex6unlockEv
_ZN3WTF15ThreadConditionD1Ev
_ZN3WTF15ThreadConditionD2Ev
_ZN3WTF15ThreadCondition4waitERNS_5MutexE
_ZN3WTF15ThreadCondition9timedWaitERNS_5MutexENS_8WallTimeE
_ZN3WTF15ThreadCondition6signalEv
_ZN3WTF9HashTableISt4pairINS_6RefPtrINS_29ThreadSafeWeakPtrControlBlockENS_12RawPtrTraitsIS3_EENS_43ThreadSafeWeakPtrControlBlockRefDerefTraitsEEEPKN3JSC17DeferredWorkTimer10TicketDataEESD_NS_17IdentityExtractorENS_11DefaultHashISD_EENS_10HashTraitsISD_EESI_NS_10FastMallocEE15deallocateTableEPSD_
_ZN3WTF9HashTableISt4pairINS_6RefPtrINS_29ThreadSafeWeakPtrControlBlockENS_12RawPtrTraitsIS3_EENS_43ThreadSafeWeakPtrControlBlockRefDerefTraitsEEEPKN3JSC4Wasm14InstanceAnchorEESD_NS_17IdentityExtractorENS_11DefaultHashISD_EENS_10HashTraitsISD_EESI_NS_10FastMallocEE15deallocateTableEPSD_
_ZN3WTF9HashTableISt4pairINS_6RefPtrINS_29ThreadSafeWeakPtrControlBlockENS_12RawPtrTraitsIS3_EENS_43ThreadSafeWeakPtrControlBlockRefDerefTraitsEEEPKNS_11ThreadGroupEESB_NS_17IdentityExtractorENS_11DefaultHashISB_EENS_10HashTraitsISB_EESG_NS_10FastMallocEE15deallocateTableEPSB_
_ZN3WTF15AtomStringTableD1Ev
_ZN3WTF15AtomStringTableD2Ev
_ZN3WTF14FileSystemImpl10FileHandle4readESt4spanIhLm18446744073709551615EE
_ZN3WTF14FileSystemImpl10FileHandle5writeESt4spanIKhLm18446744073709551615EE
_ZN3WTF14FileSystemImpl10FileHandle8truncateEl
_ZN3WTF14FileSystemImpl10FileHandle5flushEv
_ZN3WTF14FileSystemImpl10FileHandle5closeEv
_ZN3WTF14FileSystemImpl10FileHandle4sizeEv
_ZN3WTF14FileSystemImpl10FileHandle3mapENS0_14MappedFileModeENS0_12FileOpenModeE
_ZN3WTF14FileSystemImpl8openFileERKNS_6StringENS0_12FileOpenModeENS0_20FileAccessPermissionENS_9OptionSetINS0_12FileLockModeELNS_14ConcurrencyTagE0EEEb
_ZN3WTF14FileSystemImpl24fileSystemRepresentationERKNS_6StringE
_ZN3WTF14FileSystemImpl17openTemporaryFileENS_10StringViewES1_RKNS_6StringE
_ZN3WTF14FileSystemImpl14MappedFileDataC1EONS_8MmapSpanIhEE
_ZN3WTF14FileSystemImpl14MappedFileDataC2EONS_8MmapSpanIhEE
_ZN3WTF14FileSystemImpl14MappedFileDataD1Ev
_ZN3WTF14FileSystemImpl14MappedFileDataD2Ev
_ZN3WTF15RealTimeThreads9singletonEv
_ZN3WTF24calculateLocalTimeOffsetEdNS_8TimeTypeE
_ZN3WTF15initializeDatesEv
_ZN3WTF12parseES5DateESt4spanIKhLm18446744073709551615EERb
_ZN3WTF7Unicode32convertReplacingInvalidSequencesESt4spanIKDuLm18446744073709551615EES1_IDsLm18446744073709551615EE
_ZN3WTF7Unicode27checkUTF8WithoutUTF16LengthESt4spanIKDuLm18446744073709551615EE
_ZN3WTF7Unicode9checkUTF8ESt4spanIKDuLm18446744073709551615EE
_ZN3WTF7Unicode5equalESt4spanIKhLm18446744073709551615EES1_IKDuLm18446744073709551615EE
_ZN3WTF7UnicodeL6appendIDuEEbSt4spanIT_Lm18446744073709551615EERmDi
_ZN3WTF15RealTimeThreads14registerThreadERNS_6ThreadE
_ZZNSt9once_flag18_Prepare_executionC1IZSt9call_onceIZN3WTF15RealTimeThreads9singletonEvE3$_0JEEvRS_OT_DpOT0_EUlvE_EERS7_ENUlvE_8__invokeEv
_ZN3WTF6Detail15CallableWrapperIZNS_15RealTimeThreads14registerThreadERNS_6ThreadEE3$_0vJEED2Ev
_ZN3WTF6Detail15CallableWrapperIZNS_15RealTimeThreads14registerThreadERNS_6ThreadEE3$_0vJEED0Ev
_ZN3WTF6Detail15CallableWrapperIZNS_15RealTimeThreads14registerThreadERNS_6ThreadEE3$_0vJEE4callEv
_ZN3WTF7RunLoop19RunLoopGenericStateD1Ev
_ZN3WTF7RunLoop19RunLoopGenericStateD2Ev
_ZN3WTF20ConcurrentPtrHashSet17resizeIfNecessaryEv
_ZN3WTF18constantTimeMemcmpESt4spanIKhLm18446744073709551615EES2_
_ZN3WTF24currentTimeInNanosecondsEv
_ZN3WTF8WallTime3nowEv
_ZN3WTF13MonotonicTime3nowEv
_ZN3WTF24UnbarrieredMonotonicTime3nowEv
_ZN3WTF15ApproximateTime3nowEv
_ZN3WTF14ContinuousTime3nowEv
_ZN3WTF25ContinuousApproximateTime3nowEv
_ZN3WTF8dataFileEv
_ZN3WTF8dataLogFEPKcz
_ZZNSt9once_flag18_Prepare_executionC1IZSt9call_onceIZN3WTFL17initializeLogFileEvE3$_0JEEvRS_OT_DpOT0_EUlvE_EERS6_ENUlvE_8__invokeEv
_ZN3WTFL17minimumYearForDSTEv
_ZN3WTF7UnicodeL4nextILNS0_11ReplacementE0EDuEEDiSt4spanIKT0_Lm18446744073709551615EERm
_ZN3WTF28initializeMainThreadPlatformEv
_ZN3WTF12isMainThreadEv
_ZN3WTF6ThreadD1Ev
_ZN3WTF6ThreadD2Ev
_ZN3WTF6Thread26signalHandlerSuspendResumeEiP9siginfo_tPv
_ZN3WTF6Thread27initializePlatformThreadingEv
_ZN3WTF6Thread15establishHandleERNS0_16NewThreadContextENS_28StackAllocationSpecificationENS_9ThreadQOSENS_22ThreadSchedulingPolicyE
_ZN3WTFL19wtfThreadEntryPointEPv
_ZN3WTF6Thread31initializeCurrentThreadInternalEPKc
_ZN3WTF6Thread17waitForCompletionEv
_ZN3WTF6Thread6detachEv
_ZN3WTF6Thread20initializeCurrentTLSEv
_ZN3WTF6Thread13initializeTLSEONS_3RefIS0_NS_12RawPtrTraitsIS0_EENS_21DefaultRefDerefTraitsIS0_EEEE
_ZN3WTF3RefINS_6ThreadENS_12RawPtrTraitsIS1_EENS_21DefaultRefDerefTraitsIS1_EEED2Ev
pas_thread_local_cache_layout_node_move
pas_thread_local_cache_layout_node_is_committed
pas_thread_local_cache_layout_node_stop
pas_thread_local_cache_layout_node_prepare_to_decommit
pas_thread_local_cache_node_allocate
pas_thread_local_cache_node_deallocate
pas_install_thread_suspender
pas_utility_heap_try_allocate_with_alignment
_ZN3WTF28stringTypeAdapterAccumulatorIDsNS_17StringTypeAdapterImEEJNS1_INS_12ASCIILiteralEEEEEEvSt4spanIT_Lm18446744073709551615EET0_DpT1_
_ZN3WTF7ramSizeEv
_ZN3WTF15availableMemoryEv
_ZN3WTF12memoryStatusEv
_ZNK3WTF11LinuxMemory9footprintEv
_ZZNSt9once_flag18_Prepare_executionC1IZSt9call_onceIZN3WTF11LinuxMemory9singletonEvEUlvE_JEEvRS_OT_DpOT0_EUlvE_EERS7_ENUlvE_8__invokeEv
_ZZNSt9once_flag18_Prepare_executionC1IZSt9call_onceIZN3WTF15availableMemoryEvE3$_0JEEvRS_OT_DpOT0_EUlvE_EERS6_ENUlvE_8__invokeEv
_ZN3WTF7RunLoop14initializeMainEv
_ZN3WTF7RunLoop16currentSingletonEv
_ZN3WTF14NeverDestroyedINS_14ThreadSpecificINS_7RunLoop6HolderELNS_13CanBeGCThreadE0EEENS_22AnyThreadsAccessTraitsEEC2IJEEEDpOT_
_ZN3WTF7RunLoop13mainSingletonEv
_ZN3WTF7RunLoop6createENS_12ASCIILiteralENS_10ThreadTypeENS_9ThreadQOSE
_ZNK3WTF7RunLoop9isCurrentEv
_ZN3WTF7RunLoop11performWorkEv
_ZN3WTF5DequeINS_8FunctionIFvvEEELm0EE8takeLastEv
_ZN3WTF5DequeINS_8FunctionIFvvEEELm0EE9takeFirstEv
_ZN3WTF7RunLoop8dispatchEONS_8FunctionIFvvEEE
_ZN3WTF7RunLoop13dispatchAfterENS_7SecondsEONS_8FunctionIFvvEEE
_ZN3WTF7RunLoop13DispatchTimerC2ERS0_
_ZN3WTF7RunLoop14threadWillExitEv
_ZN3WTF6Thread7didExitEv
_ZN3WTF21ThreadSafeWeakHashSetINS_6ThreadEE6removeIS1_EEbRKT_Qsr3stdE16is_convertible_vIPTL0__PS4_E
_ZNK3WTF21ThreadSafeWeakHashSetINS_11ThreadGroupEE6valuesEv
_ZN3WTF6Thread16addToThreadGroupERKNS_14AbstractLockerERNS_11ThreadGroupE
_ZN3WTF6Thread27exchangeIsCompilationThreadEb
_ZN3WTF6Thread16registerGCThreadENS_12GCThreadTypeE
_ZN3WTF6Thread13mayBeGCThreadEv
_ZN3WTF6Thread16registerJSThreadERS0_
_ZNK3WTF6Thread4dumpERNS_11PrintStreamE
_ZN3WTF6AtomicImE19compareExchangeWeakEmmSt12memory_order
_ZNK3WTF20ThreadSafeRefCountedINS_6Thread16NewThreadContextELNS_17DestructionThreadE0EE5derefEv
_ZN3WTF6AtomicImE11transactionITkNS_9InvocableIFbRT_EEEZNKS_47ThreadSafeRefCountedAndCanMakeThreadSafeWeakPtrIN3JSC12NativeCalleeELNS_17DestructionThreadE0EE12controlBlockEvEUlRmE_EEbRKS4_St12memory_order
_ZN3WTF6AtomicImE11transactionITkNS_9InvocableIFbRT_EEEZNKS_47ThreadSafeRefCountedAndCanMakeThreadSafeWeakPtrIN3JSC17DeferredWorkTimer10TicketDataELNS_17DestructionThreadE0EE12controlBlockEvEUlRmE_EEbRKS4_St12memory_order
_ZN3WTF6AtomicImE11transactionITkNS_9InvocableIFbRT_EEEZNKS_47ThreadSafeRefCountedAndCanMakeThreadSafeWeakPtrIN3JSC4Wasm14InstanceAnchorELNS_17DestructionThreadE0EE12controlBlockEvEUlRmE_EEbRKS4_St12memory_order
_ZN3WTF6AtomicImE11transactionITkNS_9InvocableIFbRT_EEEZNKS_47ThreadSafeRefCountedAndCanMakeThreadSafeWeakPtrIN9Inspector24RemoteControllableTargetELNS_17DestructionThreadE0EE12controlBlockEvEUlRmE_EEbRKS4_St12memory_order
_ZN3WTF6AtomicImE11transactionITkNS_9InvocableIFbRT_EEEZNKS_47ThreadSafeRefCountedAndCanMakeThreadSafeWeakPtrINS_11ThreadGroupELNS_17DestructionThreadE0EE12controlBlockEvEUlRmE_EEbRKS4_St12memory_order
_ZN3WTF6AtomicImE11transactionITkNS_9InvocableIFbRT_EEEZNKS_47ThreadSafeRefCountedAndCanMakeThreadSafeWeakPtrINS_6ThreadELNS_17DestructionThreadE0EE12controlBlockEvEUlRmE_EEbRKS4_St12memory_order
_ZN3WTF9HashTableISt4pairINS_6RefPtrINS_29ThreadSafeWeakPtrControlBlockENS_12RawPtrTraitsIS3_EENS_43ThreadSafeWeakPtrControlBlockRefDerefTraitsEEEPKN3JSC17DeferredWorkTimer10TicketDataEESD_NS_17IdentityExtractorENS_11DefaultHashISD_EENS_10HashTraitsISD_EESI_NS_10FastMallocEE8removeIfITkNS_9InvocableIFbRT0_EEEZNKS_21ThreadSafeWeakHashSetISA_E24amortizedCleanupIfNeededEvEUlRT_E_EEbRKSS_
_ZN3WTF9HashTableISt4pairINS_6RefPtrINS_29ThreadSafeWeakPtrControlBlockENS_12RawPtrTraitsIS3_EENS_43ThreadSafeWeakPtrControlBlockRefDerefTraitsEEEPKN3JSC17DeferredWorkTimer10TicketDataEESD_NS_17IdentityExtractorENS_11DefaultHashISD_EENS_10HashTraitsISD_EESI_NS_10FastMallocEE8removeIfITkNS_9InvocableIFbRT0_EEEZNKS_21ThreadSafeWeakHashSetISA_E6valuesEvEUlRT_E0_EEbRKSS_
_ZN3WTF9HashTableISt4pairINS_6RefPtrINS_29ThreadSafeWeakPtrControlBlockENS_12RawPtrTraitsIS3_EENS_43ThreadSafeWeakPtrControlBlockRefDerefTraitsEEEPKN3JSC4Wasm14InstanceAnchorEESD_NS_17IdentityExtractorENS_11DefaultHashISD_EENS_10HashTraitsISD_EESI_NS_10FastMallocEE8removeIfITkNS_9InvocableIFbRT0_EEEZNKS_21ThreadSafeWeakHashSetISA_E24amortizedCleanupIfNeededEvEUlRT_E_EEbRKSS_
_ZN3WTF9HashTableISt4pairINS_6RefPtrINS_29ThreadSafeWeakPtrControlBlockENS_12RawPtrTraitsIS3_EENS_43ThreadSafeWeakPtrControlBlockRefDerefTraitsEEEPKN3JSC4Wasm14InstanceAnchorEESD_NS_17IdentityExtractorENS_11DefaultHashISD_EENS_10HashTraitsISD_EESI_NS_10FastMallocEE8removeIfITkNS_9InvocableIFbRT0_EEEZNKS_21ThreadSafeWeakHashSetISA_E6valuesEvEUlRT_E0_EEbRKSS_
_ZN3WTF9HashTableISt4pairINS_6RefPtrINS_29ThreadSafeWeakPtrControlBlockENS_12RawPtrTraitsIS3_EENS_43ThreadSafeWeakPtrControlBlockRefDerefTraitsEEEPKNS_11ThreadGroupEESB_NS_17IdentityExtractorENS_11DefaultHashISB_EENS_10HashTraitsISB_EESG_NS_10FastMallocEE8removeIfITkNS_9InvocableIFbRT0_EEEZNKS_21ThreadSafeWeakHashSetIS8_E24amortizedCleanupIfNeededEvEUlRT_E_EEbRKSQ_
_ZN3WTF9HashTableISt4pairINS_6RefPtrINS_29ThreadSafeWeakPtrControlBlockENS_12RawPtrTraitsIS3_EENS_43ThreadSafeWeakPtrControlBlockRefDerefTraitsEEEPKNS_11ThreadGroupEESB_NS_17IdentityExtractorENS_11DefaultHashISB_EENS_10HashTraitsISB_EESG_NS_10FastMallocEE8removeIfITkNS_9InvocableIFbRT0_EEEZNKS_21ThreadSafeWeakHashSetIS8_E6valuesEvEUlRT_E0_EEbRKSQ_
_ZN3WTF9HashTableISt4pairINS_6RefPtrINS_29ThreadSafeWeakPtrControlBlockENS_12RawPtrTraitsIS3_EENS_43ThreadSafeWeakPtrControlBlockRefDerefTraitsEEEPKNS_6ThreadEESB_NS_17IdentityExtractorENS_11DefaultHashISB_EENS_10HashTraitsISB_EESG_NS_10FastMallocEE8removeIfITkNS_9InvocableIFbRT0_EEEZNKS_21ThreadSafeWeakHashSetIS8_E24amortizedCleanupIfNeededEvEUlRT_E_EEbRKSQ_
_ZN10fast_float14parse_mantissaIDsEEvRNS_6bigintERNS_22parsed_number_string_tIT_EEmRm
_ZN3WTF10fastStrDupEPKc
_ZN3WTF10fastMallocEm
_ZN7bmalloc3api18scavengeThisThreadEv
_ZN7bmalloc3api8scavengeEv
_ZN7bmalloc3api9isEnabledENS_8HeapKindE
_ZN7bmalloc3api23decommitAlignedPhysicalEPvmNS_8HeapKindE
_ZN7bmalloc3api14enableMiniModeEb
_ZN7bmalloc3api14forceEnablePGMEt
_ZL52bmalloc_try_allocate_with_alignment_impl_casual_casemm19pas_allocation_mode
bmalloc_try_allocate_casual
bmalloc_try_allocate_auxiliary
_ZL37bmalloc_try_allocate_impl_casual_casemm19pas_allocation_mode
bmalloc_allocate_casual
bmalloc_allocate_auxiliary
_ZL33bmalloc_allocate_impl_casual_casemm19pas_allocation_mode
bmalloc_try_allocate_auxiliary_with_alignment_casual
_ZL47bmalloc_try_allocate_auxiliary_impl_casual_caseP22pas_primitive_heap_refmm19pas_allocation_mode
_ZN7bmalloc10SystemHeap13memalignLargeEmm
_ZN7bmalloc10SystemHeap9freeLargeEPv
_ZN7bmalloc10SystemHeap10tryGetSlowEv
pas_system_heap_should_supplant_bmalloc
pas_system_heap_malloc
pas_system_heap_malloc_compact
_ZN8Gigacage15tryZeroedMallocENS_4KindEm
_ZN8Gigacage10tryReallocENS_4KindEPvm
_ZN8Gigacage4freeENS_4KindEPv
_ZN8Gigacage29tryAllocateZeroedVirtualPagesENS_4KindEm
_ZN8Gigacage16freeVirtualPagesENS_4KindEPvm
_ZL31bmalloc_allocate_impl_impl_slowP14__pas_heap_refmm19pas_allocation_mode
_ZL46bmalloc_allocate_with_alignment_impl_impl_slowP14__pas_heap_refmm19pas_allocation_mode
bmalloc_heap_config_specialized_local_allocator_try_allocate_small_segregated_slow
bmalloc_heap_config_specialized_local_allocator_try_allocate_medium_segregated_with_free_bits
bmalloc_heap_config_specialized_local_allocator_try_allocate_inline_cases
bmalloc_heap_config_specialized_local_allocator_try_allocate_slow
pas_segregated_heap_index_is_greater_equal_cached_index_and_cached_index_is_set
pas_segregated_heap_size_directory_for_index_slow
pas_segregated_heap_medium_directory_tuple_for_index
medium_directory_tuple_for_index_with_lock
pas_segregated_heap_medium_allocator_index_for_index
pas_segregated_heap_ensure_allocator_index
min_object_size_for_heap
rematerialize_size_lookup_if_necessary
ensure_size_lookup
pas_segregated_heap_ensure_size_directory_for_size
_ZL43bmalloc_allocate_auxiliary_impl_casual_caseP22pas_primitive_heap_refmm19pas_allocation_mode
_ZL36pas_allocation_result_crash_on_error21pas_allocation_result
_ZL41bmalloc_allocate_auxiliary_impl_impl_slowP14__pas_heap_refmm19pas_allocation_mode
bmalloc_heap_config_activate
_ZL49bmalloc_small_segregated_page_header_for_boundaryPv
_ZL49bmalloc_small_segregated_boundary_for_page_headerP13pas_page_base
bmalloc_small_segregated_page_header_for_boundary_remote
bmalloc_small_segregated_create_page_header
bmalloc_small_segregated_destroy_page_header
bmalloc_heap_config_allocate_small_segregated_page
bmalloc_small_segregated_page_config_specialized_local_allocator_refill
pas_deferred_decommit_log_add_maybe_locked
pas_deferred_decommit_log_unlock_after_aborted_add
pas_deferred_decommit_log_decommit_all
decommit_all
pas_designated_intrinsic_heap_initialize
stop_allocator
decommit_allocator_range
pas_thread_local_cache_append_deallocation_slow
pas_thread_local_cache_shrink
pas_thread_local_cache_layout_add_node
pas_thread_local_cache_layout_add
pas_thread_local_cache_layout_duplicate
pas_thread_local_cache_layout_add_view_cache
pas_thread_local_cache_layout_get_node_for_index
pas_thread_local_cache_layout_get_last_node
pas_redundant_local_allocator_node_create
pas_thread_local_cache_layout_node_get_directory
pas_thread_local_cache_layout_node_num_allocator_indices
pas_thread_local_cache_layout_node_get_allocator_index_generic
pas_thread_local_cache_layout_node_get_allocator_index_for_allocator
pas_thread_local_cache_layout_node_set_allocator_index
pas_thread_local_cache_layout_node_commit_and_construct
min_align_for_heap
pas_segregated_size_directory_set_min_index
check_medium_directories
compute_ideal_object_size
pas_all_heaps_for_each_segregated_directory
bmalloc_deallocate_casual
bmalloc_allocate_auxiliary_with_alignment_casual
pas_segregated_heap_medium_directory_tuple_ptr_store
pas_segregated_heap_compute_summary
pas_segregated_heap_for_each_size_directory
recompute_size_lookup
rematerialize_size_lookup_set_medium_directory_tuple
size_directory_min_heap_take_min
pas_segregated_page_verify_granules
verify_granules_live_object_callback
pas_segregated_page_deallocation_did_fail
pas_segregated_page_get_num_committed_granules
pas_segregated_page_get_config
pas_segregated_size_directory_create
scavenger_thread_main
pas_scavenger_run_synchronously_now
pas_scavenger_disable_shut_down
pas_large_expendable_memory_allocate
pas_large_expendable_memory_commit_if_necessary
pas_large_expendable_memory_scavenge
pas_segregated_directory_construct
pas_segregated_directory_get_data_slow
pas_segregated_directory_get_use_epoch
pas_segregated_directory_get_sharing_payload
pas_segregated_directory_update_first_eligible_after_search
pas_segregated_directory_view_did_become_eligible_at_index
pas_segregated_size_directory_take_first_eligible
pas_segregated_size_directory_finish_creation
pas_segregated_size_directory_create_tlc_allocator
pas_segregated_size_directory_enable_exclusive_views
pas_scavenger_notify_eligibility_if_needed
pas_segregated_size_directory_get_allocator_from_tlc
pas_segregated_size_directory_compute_summary_for_unowned_exclusive
pas_segregated_size_directory_local_allocator_size
pas_segregated_size_directory_num_allocator_indices
pas_segregated_size_directory_take_first_eligible_impl_should_consider_view_parallel
pas_baseline_allocator_attach_directory
pas_segregated_size_directory_create_tlc_view_cache
pas_segregated_size_directory_ensure_data
pas_segregated_size_directory_get_extended_data
pas_segregated_size_directory_view_cache_capacity
pas_segregated_size_directory_select_allocator_slow
commit_all
pas_large_utility_free_heap_allocate_with_alignment
pas_large_utility_free_heap_allocate
pas_large_utility_free_heap_deallocate
pas_large_utility_free_heap_compute_summary
pas_large_utility_free_heap_allocate_for_allocation_config
pas_large_utility_free_heap_deallocate_for_allocation_config
pas_large_free_heap_helpers_try_allocate_with_alignment
pas_large_free_heap_helpers_deallocate
pas_large_free_heap_helpers_compute_summary
large_utility_aligned_allocator
pas_allocation_result_identity
pas_utility_heap_allocate_with_alignment
pas_utility_heap_try_allocate
pas_utility_heap_allocate
pas_utility_heap_deallocate
pas_utility_heap_for_all_allocators
_ZL24pas_system_heap_allocatemm19pas_allocation_mode
pas_system_heap_allocate
pas_utility_heap_page_header_for_boundary
pas_utility_heap_boundary_for_page_header
pas_utility_heap_create_page_header
pas_utility_heap_destroy_page_header
pas_utility_heap_allocate_page
pas_utility_heap_page_config_specialized_local_allocator_refill
pas_local_allocator_construct
pas_local_allocator_construct_unselected
pas_local_allocator_move
pas_local_allocator_stop
pas_local_allocator_kind_get_string
pas_local_allocator_scavenge
pas_local_allocator_scavenger_data_is_stopped
pas_utility_heap_page_config_specialized_local_allocator_return_memory_to_page
pas_utility_heap_config_specialized_local_allocator_try_allocate_small_segregated_slow
pas_segregated_directory_append
pas_segregated_directory_compute_summary
pas_segregated_exclusive_view_create
pas_segregated_exclusive_view_note_emptiness
_ZN3JSCL34disposableStackProtoDisposedGetterEPNS_14JSGlobalObjectEPNS_9CallFrameE
_ZN3JSC27DoublePredictionFuzzerAgentC1ERNS_2VME
_ZN3JSC27DoublePredictionFuzzerAgentC2ERNS_2VME
_ZN3JSC27DoublePredictionFuzzerAgent13getPredictionEPNS_9CodeBlockERKNS_10CodeOriginEm
_ZN3JSC11DumpContextC1Ev
_ZN3JSC11DumpContextC2Ev
pas_page_sharing_participant_payload_construct
_ZN3JSC11DumpContextD1Ev
_ZN3JSC11DumpContextD2Ev
_ZNK3JSC11DumpContext7isEmptyEv
_ZNK3JSC11DumpContext4dumpERN3WTF11PrintStreamEPKc
_ZNK3WTF21StringHashDumpContextIN3JSC9StructureEE4dumpERNS_11PrintStreamEPKc
take_last_empty_consider_view
bmalloc_small_segregated_page_config_specialized_local_allocator_return_memory_to_page
pas_segregated_directory_view_did_become_empty_at_index
pas_segregated_directory_is_committed
pas_segregated_directory_update_last_empty_plus_one_after_search
pas_page_sharing_participant_get_payload
pas_page_sharing_participant_get_use_epoch
pas_page_sharing_participant_set_parent_pool
pas_page_sharing_participant_is_eligible
pas_page_sharing_participant_take_least_recently_used
pas_page_sharing_pool_add_at_index
pas_page_sharing_pool_add
pas_page_sharing_pool_take_least_recently_used
pas_physical_page_sharing_pool_take
pas_physical_page_sharing_pool_scavenge
pas_physical_page_sharing_pool_take_later
pas_physical_page_sharing_pool_give_back
pas_physical_page_sharing_pool_take_for_page_config
pas_page_sharing_pool_did_create_delta
pas_page_sharing_pool_min_heap_remove
_ZN3Bun23isUnprefixedNodeBuiltinERKN3WTF6StringE
Bun__linux_trace_init
Bun__linux_trace_emit
_ZN3Bun12NapiExternalD1Ev
_ZN3Bun12NapiExternalD2Ev
_ZN3Bun13NapiFinalizer4callEN3WTF6RefPtrI7NapiEnvNS1_12RawPtrTraitsIS3_EENS1_21DefaultRefDerefTraitsIS3_EEEEPvb
_ZN3Bun12NapiExternal7destroyEPN3JSC6JSCellE
BrotliInitBitReader
_ZN3Bun13NapiFinalizer5clearEv
_ZN3JSC16OpaqueByproductsC1Ev
_ZN3JSC16OpaqueByproductsC2Ev
_ZN3JSC20RegisterAtOffsetListC1Ev
_ZN3JSC20RegisterAtOffsetListC2Ev
_ZN3JSC6ParserINS_5LexerIDsEEE23AutoCleanupLexicalScopeC1Ev
_ZN3JSC6ParserINS_5LexerIDsEEE23AutoCleanupLexicalScopeC2Ev
_ZN3JSC6ParserINS_5LexerIhEEE23AutoCleanupLexicalScopeC1Ev
_ZN3JSC6ParserINS_5LexerIhEEE23AutoCleanupLexicalScopeC2Ev
_ZN4bssl14x509_name_initEP12X509_name_st
_ZN9Inspector13AgentRegistryC1Ev
_ZN9Inspector13AgentRegistryC2Ev
cstr_new
pas_physical_memory_transaction_construct
_ZN3Bun19NapiHandleScopeImpl13visitChildrenEPN3JSC6JSCellERNS1_11SlotVisitorE
_ZN3Bun19NapiHandleScopeImpl13visitChildrenEPN3JSC6JSCellERNS1_19AbstractSlotVisitorE
_ZN3Bun19NapiHandleScopeImpl11reserveSlotEv
_ZN3Bun19NapiHandleScopeImpl6createERN3JSC2VMEPNS1_9StructureEPS0_b
_ZN3Bun19NapiHandleScopeImpl17visitChildrenImplIN3JSC19AbstractSlotVisitorEEEvPNS2_6JSCellERT_
_ZN3Bun19NapiHandleScopeImpl17visitChildrenImplIN3JSC11SlotVisitorEEEvPNS2_6JSCellERT_
pas_segregated_page_lock_with_unbias_impl
pas_segregated_page_switch_lock_slow
pas_segregated_page_switch_lock_and_rebias_while_ineligible_impl
pas_page_sharing_pool_min_heap_is_still_ordered
pas_payload_reservation_page_list_append
pas_physical_memory_transaction_begin
pas_physical_memory_transaction_end
pas_physical_memory_transaction_did_fail_to_acquire_lock
pas_probabilistic_guard_malloc_allocate
highway_lower_ascii16
highway_encode_hex_lower
highway_decode_hex8
highway_decode_hex16
_ZN3Bun15isBuiltinModuleERKN3WTF6StringE
pas_segregated_page_construct
_ZN3JSCL24constructDisposableStackEPNS_14JSGlobalObjectEPNS_9CallFrameE
_ZN3JSC24DisposableStackPrototype14finishCreationERNS_2VMEPNS_14JSGlobalObjectE
pas_tiny_large_map_hashtable_rehash
pas_small_large_map_hashtable_rehash
pas_large_map_hashtable_rehash
pas_heap_table_try_allocate_index
pas_large_sharing_pool_boot_free
pas_large_sharing_pool_free
pas_large_sharing_pool_allocate_and_commit
try_splat
pas_get_current_monotonic_time_nanoseconds
pas_range_create_intersection
pas_large_sharing_pool_for_each
remove_from_min_heap
splat_live_bytes
splat_command_get_free_mode
update_min_heap
split_node_and_get_right
split_node_and_get_left
validate_min_heap
merge_if_possible
node_compare_callback
split_node_and_get_right_impl
pas_large_sharing_min_heap_is_index_still_ordered
pas_large_free_heap_deferred_commit_log_construct
pas_large_free_heap_deferred_commit_log_destruct
pas_large_free_heap_deferred_commit_log_add
pas_large_free_heap_deferred_commit_log_commit_all
pas_large_sharing_pool_decommit_least_recently_used
validate_node
fast_write_cursor
pas_large_sharing_pool_validate
fast_merge
remove_node
pas_fast_large_free_heap_deallocate
pas_fast_large_free_heap_for_each_free
pas_compact_cartesian_tree_node_ptr_store
pas_status_reporter_dump_everything
pas_status_reporter_start_if_necessary
start_reporter
tier_up_rate_size_directory_callback
status_reporter_thread_main
pas_heap_summary_dump
pas_compact_large_utility_free_heap_compute_summary
pas_stream_printf
pas_thread_local_cache_create
allocate_cache
destroy
pas_thread_local_cache_get_slow
destructor
pas_thread_local_cache_get_local_allocator_slow
pas_thread_local_cache_flush_deallocation_log
deallocate
pas_thread_local_cache_is_committed
pas_thread_local_cache_compute_decommit_exclusion_range
pas_thread_local_cache_ensure_committed
pas_thread_local_cache_get_local_allocator_if_can_set_cache_for_possibly_uninitialized_index_slow
pas_thread_local_cache_allocator_index_for_allocator
pas_thread_local_cache_stop_local_allocators
pas_large_map_find
pas_large_map_add
pas_local_allocator_scavenger_data_commit_if_necessary_slow
pas_local_allocator_scavenger_data_stop
pas_local_allocator_scavenger_data_prepare_to_decommit
pas_local_view_cache_construct
_ZNK7WebCore9CookieMap10memoryCostEv
_ZN7WebCore9CookieMap8Iterator4nextEv
_ZN7WebCore15URLSearchParams8IteratorC1ERS0_
_ZN7WebCore15URLSearchParams8IteratorC2ERS0_
_ZN7WebCore9CookieMap8IteratorC1ERS0_
_ZN7WebCore9CookieMap8IteratorC2ERS0_
_ZNK7WebCore14JSVMClientData17overrideSourceURLERKN3JSC10StackFrameERKN3WTF6StringE
_RNCINvMNtNtCs4pSCigdXcdu_8lol_html12selectors_vm8compilerINtNtB7_3ast4ExprNtBW_13OnTagNameExprE12compile_exprNCNvXs_B5_BT_NtB5_10Compilable7compiles1_0E0B9_
_RNCINvMs0_NtNtCs4pSCigdXcdu_8lol_html12selectors_vm8compilerINtNtBa_3ast4ExprNtBZ_16OnAttributesExprE12compile_exprNCNCNvXs1_B8_BW_NtB8_10Compilable7compiles2_00E0Bc_
_RNSNvYNCINvMNtNtCs4pSCigdXcdu_8lol_html12selectors_vm8compilerINtNtBc_3ast4ExprNtB11_13OnTagNameExprE12compile_exprNCNvXs_Ba_BY_NtBa_10Compilable7compiles1_0E0INtNtNtCshzHRevywlmE_4core3ops8function6FnOnceTRNtBc_13SelectorStateRNtNtNtBe_4html10local_name9LocalNameEE9call_once6vtableBe_
_RNSNvYNCINvMs0_NtNtCs4pSCigdXcdu_8lol_html12selectors_vm8compilerINtNtBf_3ast4ExprNtB14_16OnAttributesExprE12compile_exprNCNCNvXs1_Bd_B11_NtBd_10Compilable7compiles2_00E0INtNtNtCshzHRevywlmE_4core3ops8function6FnOnceTRNtBf_13SelectorStateRNtNtBf_17attribute_matcher16AttributeMatcherEE9call_once6vtableBh_
_RNvXs2_NtNtCsj5JUsDxu4lF_11bun_install13lockfile_real7packageINtNtB9_16__folder_resolver11NewResolverKVNtNtB9_10resolution3TagTh40_EENtB5_18ResolverContextDyn26check_bundled_dependenciesB9_
_RNvXs2_NtNtCsj5JUsDxu4lF_11bun_install13lockfile_real7packageuNtB5_18ResolverContextDyn7is_voidB9_
_RNvXse_NtCs4YYdkJyg8hg_7bun_jsc15virtual_machineNtB5_11IPCInstanceNtNtB7_3ipc14SendQueueOwner4kind
_ZN12_GLOBAL__N_119WasmStreamingParser6Client21didReceiveSectionDataEN3JSC4Wasm7SectionE
_ZN12_GLOBAL__N_119WasmStreamingParser6Client22didReceiveFunctionDataEN3JSC4Wasm17FunctionCodeIndexERKNS3_12FunctionDataE
_ZN3JSC21SyntheticModuleRecord4linkEPNS_14JSGlobalObjectEN3WTF6RefPtrINS_13ScriptFetcherENS3_12RawPtrTraitsIS5_EENS3_21DefaultRefDerefTraitsIS5_EEEE
_ZN3JSC26ExportLocalDeclarationNode13analyzeModuleERNS_14ModuleAnalyzerE
_ZN3JSC28ExportDefaultDeclarationNode13analyzeModuleERNS_14ModuleAnalyzerE
_ZN3JSC2B33Air7Special16hasNonArgEffectsERNS1_4InstE
_ZN3JSC2B33Air7Special26hasNonArgNonControlEffectsERNS1_4InstE
_ZN3JSC3DFG15FailedFinalizer8isFailedEv
_ZN3JSC4Wasm21StreamingParserClient21didReceiveSectionDataENS0_7SectionE
_ZN3JSC4Wasm9IPIntPlan22didReceiveFunctionDataENS0_17FunctionCodeIndexERKNS0_12FunctionDataE
_ZN3WTF15AutomaticThread11shouldSleepERKNS_14AbstractLockerE
_ZN3WTF6Detail15CallableWrapperIZN3Bun16CheckPrimeJobCtx7runTaskEPN3JSC14JSGlobalObjectEE3$_0bJiiEE4callEii
_ZN3WTF6Detail15CallableWrapperIZN3Bun16jsCheckPrimeSyncEPN3JSC14JSGlobalObjectEPNS3_9CallFrameEE3$_0bJiiEE4callEii
_ZN3WTF6Detail15CallableWrapperIZN3Bun19GeneratePrimeJobCtx7runTaskEPN3JSC14JSGlobalObjectEE3$_0bJiiEE4callEii
_ZN3WTF6Detail15CallableWrapperIZN3Bun19jsGeneratePrimeSyncEPN3JSC14JSGlobalObjectEPNS3_9CallFrameEE3$_0bJiiEE4callEii
_ZN6icu_7513CollationKeys13LevelCallback11needToWriteENS_9Collation5LevelE
_ZNK3JSC10BigIntNode8isBigIntEv
_ZNK3JSC10ImportNode12isImportNodeEv
_ZNK3JSC10NumberNode8isNumberEv
_ZNK3JSC10ReturnNode12isReturnNodeEv
_ZNK3JSC10StringNode8isStringEv
_ZNK3JSC11BindingNode13isBindingNodeEv
_ZNK3JSC11BooleanNode9isBooleanEv
_ZNK3JSC11IntegerNode13isIntegerNodeEv
_ZNK3JSC11ResolveNode10isLocationEv
_ZNK3JSC11ResolveNode13isResolveNodeEv
_ZNK3JSC12BinaryOpNode14isBinaryOpNodeEv
_ZNK3JSC12ConstantNode10isConstantEv
_ZNK3JSC12ConstantNode6isPureERNS_17BytecodeGeneratorE
_ZNK3JSC12ContinueNode10isContinueEv
_ZNK3JSC12ContinueNode23hasEarlyBreakOrContinueEv
_ZNK3JSC12FuncDeclNode14isFuncDeclNodeEv
_ZNK3JSC12FuncExprNode14isFuncExprNodeEv
_ZNK3JSC12FunctionNode14isFunctionNodeEv
_ZNK3JSC13ClassExprNode15isClassExprNodeEv
_ZNK3JSC13DeleteDotNode12isDeleteNodeEv
_ZNK3JSC13NativeJITCode25canSwapCodeRefForDebuggerEv
_ZNK3JSC13NewTargetNode11isNewTargetEv
_ZNK3JSC13StatementNode18hasCompletionValueEv
_ZNK3JSC14ImportMetaNode12isImportMetaEv
_ZNK3JSC15DefineFieldNode17isDefineFieldNodeEv
_ZNK3JSC15DeleteValueNode12isDeleteNodeEv
_ZNK3JSC15DotAccessorNode10isLocationEv
_ZNK3JSC15DotAccessorNode17isDotAccessorNodeEv
_ZNK3JSC16BaseFuncExprNode18isBaseFuncExprNodeEv
_ZNK3JSC16MetaPropertyNode14isMetaPropertyEv
_ZNK3JSC17ArrowFuncExprNode19isArrowFuncExprNodeEv
_ZNK3JSC17AssignResolveNode19isAssignResolveNodeEv
_ZNK3JSC17DeleteBracketNode12isDeleteNodeEv
_ZNK3JSC17DeleteResolveNode12isDeleteNodeEv
_ZNK3JSC17ExprStatementNode15isExprStatementEv
_ZNK3JSC17ObjectLiteralNode15isObjectLiteralEv
_ZNK3JSC17OptionalChainNode15isOptionalChainEv
_ZNK3JSC17RestParameterNode15isRestParameterEv
_ZNK3JSC18EmptyStatementNode16isEmptyStatementEv
_ZNK3JSC19BracketAccessorNode10isLocationEv
_ZNK3JSC19BracketAccessorNode21isBracketAccessorNodeEv
_ZNK3JSC19FunctionCallDotNode14isFunctionCallEv
_ZNK3JSC19VerifierSlotVisitor16mutatorIsStoppedEv
_ZNK3JSC20EvalFunctionCallNode14isFunctionCallEv
_ZNK3JSC20SpreadExpressionNode18isSpreadExpressionEv
_ZNK3JSC21AssignmentElementNode23isAssignmentElementNodeEv
_ZNK3JSC21BytecodeIntrinsicNode23isBytecodeIntrinsicNodeEv
_ZNK3JSC21DebuggerStatementNode19isDebuggerStatementEv
_ZNK3JSC21FunctionCallValueNode14isFunctionCallEv
_ZNK3JSC21ImportDeclarationNode17hasAttributesListEv
_ZNK3JSC21ImportDeclarationNode23isImportDeclarationNodeEv
_ZNK3JSC21ModuleDeclarationNode23isModuleDeclarationNodeEv
_ZNK3JSC21PrivateIdentifierNode19isPrivateIdentifierEv
_ZNK3JSC23FunctionCallBracketNode14isFunctionCallEv
_ZNK3JSC23FunctionCallResolveNode14isFunctionCallEv
_ZNK3JSC24DestructuringPatternNode17bindValueCanThrowERNS_17BytecodeGeneratorE
_ZNK3JSC24ExportAllDeclarationNode17hasAttributesListEv
_ZNK3JSC24JSGlobalObjectDebuggable26automaticInspectionAllowedEv
_ZNK3JSC26ExportNamedDeclarationNode17hasAttributesListEv
_ZNK3JSC27DestructuringAssignmentNode19isDestructuringNodeEv
_ZNK3JSC27DestructuringAssignmentNode20isAssignmentLocationEv
_ZNK3JSC27StaticBlockFunctionCallNode14isFunctionCallEv
_ZNK3JSC29DebuggableMicrotaskDispatcher10isRunnableEv
_ZNK3JSC43AdaptiveInferredPropertyValueWatchpointBase7isValidEv
_ZNK3JSC7AddNode5isAddEv
_ZNK3JSC7SubNode10isSubtractEv
_ZNK3JSC8NullNode6isNullEv
_ZNK3JSC8ThisNode10isThisNodeEv
_ZNK3JSC9ArrayNode14isArrayLiteralEv
_ZNK3JSC9BlockNode7isBlockEv
_ZNK3JSC9BreakNode23hasEarlyBreakOrContinueEv
_ZNK3JSC9BreakNode7isBreakEv
_ZNK3JSC9CommaNode11isCommaNodeEv
_ZNK3JSC9ForOfNode11isForOfNodeEv
_ZNK3JSC9LabelNode7isLabelEv
_ZNK3JSC9SuperNode11isSuperNodeEv
_ZNK6icu_7513MessageFormat11DummyFormateqERKNS_6FormatE
_ZNK6icu_7514CopticCalendar18haveDefaultCenturyEv
_ZNK6icu_7514CopticCalendar22isEra0CountingBackwardEv
_ZNK6icu_7514HebrewCalendar18haveDefaultCenturyEv
_ZNK6icu_7514IndianCalendar18haveDefaultCenturyEv
_ZNK6icu_7514TaiwanCalendar18haveDefaultCenturyEv
_ZNK6icu_7515ChineseCalendar18haveDefaultCenturyEv
_ZNK6icu_7515IslamicCalendar18haveDefaultCenturyEv
_ZNK6icu_7515NoopNormalizer216hasBoundaryAfterEi
_ZNK6icu_7515NoopNormalizer217hasBoundaryBeforeEi
_ZNK6icu_7515NoopNormalizer27isInertEi
_ZNK6icu_7515PersianCalendar18haveDefaultCenturyEv
_ZNK6icu_7516BuddhistCalendar18haveDefaultCenturyEv
_ZNK6icu_7516EthiopicCalendar18haveDefaultCenturyEv
_ZNK6icu_7517GregorianCalendar18haveDefaultCenturyEv
_ZNK6icu_7517GregorianCalendar22isEra0CountingBackwardEv
_ZNK6icu_7517UCharsTrieBuilder23matchNodesCanHaveValuesEv
_ZNK6icu_7519ModulusSubstitution21isModulusSubstitutionEv
_ZNK6icu_7521UTF8CollationIterator25forbidSurrogateCodePointsEv
_ZNK6icu_756number4impl18ScientificModifier8isStrongEv
_ZNK6icu_756number4impl30PropertiesAffixPatternProvider7hasBodyEv
_ZNK6icu_758numparse4impl14PaddingMatcher10isFlexibleEv
_ZNK6icu_758numparse4impl17IgnorablesMatcher10isFlexibleEv
_ZNK6icu_758numparse4impl23CombinedCurrencyMatcher9smokeTestERKNS_13StringSegmentE
_ZNK7WebCore14JSVMClientData21isWebCoreJSClientDataEv
_ZNK7WebCore31CryptoAlgorithmRSAES_PKCS1_v1_510identifierEv
_ZNK9Inspector22InspectorDebuggerAgent24isInspectorDebuggerAgentEv
_ZNK9Inspector33JSGlobalObjectInspectorController29canAccessInspectedScriptStateEPN3JSC14JSGlobalObjectE
_ZThn24_NK9Inspector22InspectorDebuggerAgent24isInspectorDebuggerAgentEv
_ZThn72_N3JSC4Wasm9IPIntPlan22didReceiveFunctionDataENS0_17FunctionCodeIndexERKNS0_12FunctionDataE
pas_dyld_is_libsystem_initialized
_ZN3Bun21BunInjectedScriptHostD0Ev
_ZN9Inspector18InjectedScriptHostD0Ev
Bun__VM__scriptExecutionStatus
EVP_PKEY_CTX_set_rsa_pss_keygen_md
EVP_PKEY_CTX_set_rsa_pss_keygen_mgf1_md
EVP_PKEY_CTX_set_rsa_pss_keygen_saltlen
FIPS_mode
JSC__JSValue__isBigInt32
RSA_get0_pss_params
SSL_get_shared_sigalgs
VP8GetThreadMethod
_RNCINvMNtNtCs4pSCigdXcdu_8lol_html12selectors_vm8compilerINtNtB7_3ast4ExprNtBW_13OnTagNameExprE12compile_exprNCNvXs_B5_BT_NtB5_10Compilable7compile0E0B9_
_RNCNCNvXs1_NtNtCs4pSCigdXcdu_8lol_html12selectors_vm8compilerINtNtBb_3ast4ExprNtB10_16OnAttributesExprENtB9_10Compilable7compiles2_00Bd_
_RNSNvYNCINvMNtNtCs4pSCigdXcdu_8lol_html12selectors_vm8compilerINtNtBc_3ast4ExprNtB11_13OnTagNameExprE12compile_exprNCNvXs_Ba_BY_NtBa_10Compilable7compile0E0INtNtNtCshzHRevywlmE_4core3ops8function6FnOnceTRNtBc_13SelectorStateRNtNtNtBe_4html10local_name9LocalNameEE9call_once6vtableBe_
_RNSNvYNCNCNvXs1_NtNtCs4pSCigdXcdu_8lol_html12selectors_vm8compilerINtNtBg_3ast4ExprNtB15_16OnAttributesExprENtBe_10Compilable7compiles2_00INtNtNtCshzHRevywlmE_4core3ops8function6FnOnceTRNtBg_13SelectorStateRNtNtBg_17attribute_matcher16AttributeMatcherEE9call_once6vtableBi_
_RNvNtCsgCxAifIVzWK_8bun_glob11glob_walker18dummy_filter_false
_RNvNtNtNtCs1yUlXPGwCKD_11bun_runtime3cli12repl_command4repl8cmd_exit
_RNvXs0_NtNtCs1yUlXPGwCKD_11bun_runtime3api21js_bun_spawn_bindingsNtNtB7_14bun_subprocess10SubprocessNtNtCs4YYdkJyg8hg_7bun_jsc3ipc14SendQueueOwner4kind
_RNvXs2_NtNtCsj5JUsDxu4lF_11bun_install13lockfile_real7packageINtNtB9_16__folder_resolver11NewResolverKVNtNtB9_10resolution3TagTh40_EENtB5_18ResolverContextDyn6dep_idB9_
_RNvXs2_NtNtCsj5JUsDxu4lF_11bun_install13lockfile_real7packageINtNtB9_16__folder_resolver11NewResolverKVNtNtB9_10resolution3TagTh40_EENtB5_18ResolverContextDyn6is_gitB9_
_RNvXs2_NtNtCsj5JUsDxu4lF_11bun_install13lockfile_real7packageuNtB5_18ResolverContextDyn26check_bundled_dependenciesB9_
_RNvXs2_NtNtCsj5JUsDxu4lF_11bun_install13lockfile_real7packageuNtB5_18ResolverContextDyn6dep_idB9_
_RNvXs3_NtNtCs1yUlXPGwCKD_11bun_runtime3api14bun_subprocessNtB5_17ArrayBufferSourceNtNtCsggdWDBgjuXA_9bun_spawn10subprocess10SourceData11memory_cost
_RNvXs3_NtNtNtCs7QmvgyBSXbk_3std3sys5stdio4unixNtB5_6StderrNtNtBb_2io5Write5flush
_RNvXs_NtCs4cBhYOTeZUw_13bun_js_parser19react_compiler_hostINtB4_17ReactCompilerHostKb0_KB1k_ENtNtCsc1JzvcHHBIg_18bun_react_compiler7program4Host13scope_for_locB6_
_RNvYINtNtCs4YSnrHLetPa_5alloc3vec3VechENtNtNtCsgtociwQ8c96_8bun_core4util2io5Write5flushCs1yUlXPGwCKD_11bun_runtime
_RNvYINtNvNtCs7QmvgyBSXbk_3std9panicking11begin_panic7PayloadReENtNtCshzHRevywlmE_4core5panic12PanicPayload6as_strB9_
_RNvYNCNvMs_CsdAZa0WVRlFk_9bun_allocNtB9_15AllocatorVTable8NO_ALLOC0INtNtNtCshzHRevywlmE_4core3ops8function6FnOnceTONtNtB1a_3ffi6c_voidjNtB9_9AlignmentjEE9call_onceCs1yUlXPGwCKD_11bun_runtime
_RNvYNCNvMs_CsdAZa0WVRlFk_9bun_allocNtB9_15AllocatorVTable8NO_REMAP0INtNtNtCshzHRevywlmE_4core3ops8function6FnOnceTONtNtB1a_3ffi6c_voidQShNtB9_9AlignmentjjEE9call_onceCs1yUlXPGwCKD_11bun_runtime
_RNvYNCNvMs_CsdAZa0WVRlFk_9bun_allocNtB9_15AllocatorVTable9NO_RESIZE0INtNtNtCshzHRevywlmE_4core3ops8function6FnOnceTONtNtB1b_3ffi6c_voidQShNtB9_9AlignmentjjEE9call_onceCs1yUlXPGwCKD_11bun_runtime
_RNvYNCNvNtNtCs1yUlXPGwCKD_11bun_runtime4bake21framework_router_body38___COMPTIME_STRING_MAP_VALUES_STYLE_MAP0INtNtNtCshzHRevywlmE_4core3ops8function6FnOnceuE9call_onceBa_
_RNvYNtNvXsf_NtNtCs4YSnrHLetPa_5alloc5boxed7convertINtBc_3BoxDNtNtCshzHRevywlmE_4core5error5ErrorNtNtB11_6marker4SendNtB1y_4SyncEL_EINtNtB11_7convert4FromNtNtBe_6string6StringE4from11StringErrorBX_5causeCs1yUlXPGwCKD_11bun_runtime
_ZN3Bun21BunInjectedScriptHost19isHTMLAllCollectionERN3JSC2VMENS1_7JSValueE
_ZN3JSC10ELFSection17writeBodyInternalEN3WTF3RefINS_6WriterENS1_12RawPtrTraitsIS3_EENS1_21DefaultRefDerefTraitsIS3_EEEE
_ZN3JSC11RegisterSet25reservedHardwareRegistersEv
_ZN3JSC15WeakHandleOwner26isReachableFromOpaqueRootsENS_6HandleINS_7UnknownEEEPvRNS_19AbstractSlotVisitorEPN3WTF12ASCIILiteralE
_ZN3JSC19HeapSnapshotBuilder6Client28heapSnapshotBuilderIsElementERKS0_PNS_6JSCellE
_ZN3JSC2B329canonicalizePrePostIncrementsERNS0_9ProcedureE
_ZN3JSC2B33Air12CCallSpecial23extraEarlyClobberedRegsERNS1_4InstE
_ZN3JSC2B33Air7Special10isTerminalERNS1_4InstE
_ZN3JSC2B33Air7Special20shouldTryAliasingDefERNS1_4InstE
_ZN3JSC31StructureAlignedMemoryAllocator17tryAllocateMemoryEm
_ZN3JSC3DFG12JITFinalizer8isFailedEv
_ZN3JSC3DFG15FailedFinalizer8codeSizeEv
_ZN3JSC3DFG15FailedFinalizer8finalizeEv
_ZN3JSC3FTL12JITFinalizer8isFailedEv
_ZN3JSC4Wasm10BBQJITImpl6BBQJIT8Location4noneEv
_ZN3JSC7JITCode17pcToCodeOriginMapEv
_ZN3JSC7JITCode36swapCodePtrWithArityCheckForDebuggerEN3WTF7CodePtrILNS1_6PtrTagE357ELNS1_18FunctionAttributesE0EEE
_ZN3JSC7JITCode50liveRegistersToPreserveAtExceptionHandlingCallSiteEPNS_9CodeBlockENS_13CallSiteIndexE
_ZN3JSC8JSBigInt14concurrentHashEv
_ZN3WTF10Dependency5fenceIJPN3JSC9ButterflyEEEES0_DpT_
_ZN3WTF10Dependency5fenceIJbEEES0_DpT_
_ZN3WTF10Dependency5fenceIJhEEES0_DpT_
_ZN3WTF10Dependency5fenceIJjEEES0_DpT_
_ZN4bssl11SSLKeyShare19SerializePrivateKeyEP6cbb_st
_ZN4bssl11SSLKeyShare21DeserializePrivateKeyEP6cbs_st
_ZN6icu_7512_GLOBAL__N_120FixedSortKeyByteSink6ResizeEii
_ZN6icu_7513ICUServiceKey8fallbackEv
_ZN6icu_7517CollationIterator18foundNULTerminatorEv
_ZN6icu_7517CollationIterator23handleGetTrailSurrogateEv
_ZN6icu_7524WholeStringBreakIterator10isBoundaryEi
_ZN6icu_7524WholeStringBreakIterator5firstEv
_ZN6icu_7524WholeStringBreakIterator8previousEv
_ZN6icu_7524WholeStringBreakIterator9precedingEi
_ZN6icu_758Calendar21getDefaultMonthInYearEiR10UErrorCode
_ZN7WebCore12JSEventOwner26isReachableFromOpaqueRootsEN3JSC6HandleINS1_7UnknownEEEPvRNS1_19AbstractSlotVisitorEPN3WTF12ASCIILiteralE
_ZN7WebCore13JSCookieOwner26isReachableFromOpaqueRootsEN3JSC6HandleINS1_7UnknownEEEPvRNS1_19AbstractSlotVisitorEPN3WTF12ASCIILiteralE
_ZN7WebCore13JSDOMURLOwner26isReachableFromOpaqueRootsEN3JSC6HandleINS1_7UnknownEEEPvRNS1_19AbstractSlotVisitorEPN3WTF12ASCIILiteralE
_ZN7WebCore16JSCookieMapOwner26isReachableFromOpaqueRootsEN3JSC6HandleINS1_7UnknownEEEPvRNS1_19AbstractSlotVisitorEPN3WTF12ASCIILiteralE
_ZN7WebCore17JSURLPatternOwner26isReachableFromOpaqueRootsEN3JSC6HandleINS1_7UnknownEEEPvRNS1_19AbstractSlotVisitorEPN3WTF12ASCIILiteralE
_ZN7WebCore18JSDOMFormDataOwner26isReachableFromOpaqueRootsEN3JSC6HandleINS1_7UnknownEEEPvRNS1_19AbstractSlotVisitorEPN3WTF12ASCIILiteralE
_ZN7WebCore18JSTextEncoderOwner26isReachableFromOpaqueRootsEN3JSC6HandleINS1_7UnknownEEEPvRNS1_19AbstractSlotVisitorEPN3WTF12ASCIILiteralE
_ZN7WebCore19JSDOMExceptionOwner26isReachableFromOpaqueRootsEN3JSC6HandleINS1_7UnknownEEEPvRNS1_19AbstractSlotVisitorEPN3WTF12ASCIILiteralE
_ZN7WebCore19JSFetchHeadersOwner26isReachableFromOpaqueRootsEN3JSC6HandleINS1_7UnknownEEEPvRNS1_19AbstractSlotVisitorEPN3WTF12ASCIILiteralE
_ZN7WebCore21JSMessageChannelOwner26isReachableFromOpaqueRootsEN3JSC6HandleINS1_7UnknownEEEPvRNS1_19AbstractSlotVisitorEPN3WTF12ASCIILiteralE
_ZN7WebCore21JSWritableStreamOwner26isReachableFromOpaqueRootsEN3JSC6HandleINS1_7UnknownEEEPvRNS1_19AbstractSlotVisitorEPN3WTF12ASCIILiteralE
_ZN7WebCore22JSAbortControllerOwner26isReachableFromOpaqueRootsEN3JSC6HandleINS1_7UnknownEEEPvRNS1_19AbstractSlotVisitorEPN3WTF12ASCIILiteralE
_ZN7WebCore22JSURLSearchParamsOwner26isReachableFromOpaqueRootsEN3JSC6HandleINS1_7UnknownEEEPvRNS1_19AbstractSlotVisitorEPN3WTF12ASCIILiteralE
_ZN7WebCore23JSPerformanceEntryOwner26isReachableFromOpaqueRootsEN3JSC6HandleINS1_7UnknownEEEPvRNS1_19AbstractSlotVisitorEPN3WTF12ASCIILiteralE
_ZN7WebCore24JSPerformanceTimingOwner26isReachableFromOpaqueRootsEN3JSC6HandleINS1_7UnknownEEEPvRNS1_19AbstractSlotVisitorEPN3WTF12ASCIILiteralE
_ZN7WebCore28JSWasmStreamingCompilerOwner26isReachableFromOpaqueRootsEN3JSC6HandleINS1_7UnknownEEEPvRNS1_19AbstractSlotVisitorEPN3WTF12ASCIILiteralE
_ZN7WebCore30JSPerformanceServerTimingOwner26isReachableFromOpaqueRootsEN3JSC6HandleINS1_7UnknownEEEPvRNS1_19AbstractSlotVisitorEPN3WTF12ASCIILiteralE
_ZN7WebCore35JSPerformanceObserverEntryListOwner26isReachableFromOpaqueRootsEN3JSC6HandleINS1_7UnknownEEEPvRNS1_19AbstractSlotVisitorEPN3WTF12ASCIILiteralE
_ZN7ncrypto16EVPKeyCtxPointer15setDhParametersEij
_ZN9Inspector18InjectedScriptHost19isHTMLAllCollectionERN3JSC2VMENS1_7JSValueE
_ZN9Inspector18InjectedScriptHost21getInternalPropertiesERN3JSC2VMEPNS1_14JSGlobalObjectENS1_7JSValueE
_ZN9Inspector22JSGlobalObjectDebugger20runLoopModeSingletonEv
_ZNK3Bun22BunInspectorConnection14connectionTypeEv
_ZNK3JSC10DoubleNode13isIntegerNodeEv
_ZNK3JSC12ContinueNode18hasCompletionValueEv
_ZNK3JSC12FuncDeclNode18hasCompletionValueEv
_ZNK3JSC13ClassDeclNode18hasCompletionValueEv
_ZNK3JSC13ScriptFetcher21isCachedScriptFetcherEv
_ZNK3JSC13ScriptFetcher21isWorkerScriptFetcherEv
_ZNK3JSC13StatementNode10isContinueEv
_ZNK3JSC13StatementNode11isForOfNodeEv
_ZNK3JSC13StatementNode12isReturnNodeEv
_ZNK3JSC13StatementNode14isFuncDeclNodeEv
_ZNK3JSC13StatementNode14isFunctionNodeEv
_ZNK3JSC13StatementNode15isExprStatementEv
_ZNK3JSC13StatementNode16isEmptyStatementEv
_ZNK3JSC13StatementNode17isDefineFieldNodeEv
_ZNK3JSC13StatementNode19isDebuggerStatementEv
_ZNK3JSC13StatementNode23hasEarlyBreakOrContinueEv
_ZNK3JSC13StatementNode23isModuleDeclarationNodeEv
_ZNK3JSC13StatementNode7isBlockEv
_ZNK3JSC13StatementNode7isBreakEv
_ZNK3JSC13StatementNode7isLabelEv
_ZNK3JSC14ExpressionNode10isConstantEv
_ZNK3JSC14ExpressionNode10isLocationEv
_ZNK3JSC14ExpressionNode10isSubtractEv
_ZNK3JSC14ExpressionNode10isThisNodeEv
_ZNK3JSC14ExpressionNode11isArgumentsERNS_2VME
_ZNK3JSC14ExpressionNode11isCommaNodeEv
_ZNK3JSC14ExpressionNode11isNewTargetEv
_ZNK3JSC14ExpressionNode11isSuperNodeEv
_ZNK3JSC14ExpressionNode12isDeleteNodeEv
_ZNK3JSC14ExpressionNode12isImportMetaEv
_ZNK3JSC14ExpressionNode12isImportNodeEv
_ZNK3JSC14ExpressionNode13isResolveNodeEv
_ZNK3JSC14ExpressionNode13isSimpleArrayEv
_ZNK3JSC14ExpressionNode14isArrayLiteralEv
_ZNK3JSC14ExpressionNode14isBinaryOpNodeEv
_ZNK3JSC14ExpressionNode14isFuncExprNodeEv
_ZNK3JSC14ExpressionNode14isFunctionCallEv
_ZNK3JSC14ExpressionNode14isMetaPropertyEv
_ZNK3JSC14ExpressionNode14isOptionalCallEv
_ZNK3JSC14ExpressionNode15isClassExprNodeEv
_ZNK3JSC14ExpressionNode15isObjectLiteralEv
_ZNK3JSC14ExpressionNode15isOptionalChainEv
_ZNK3JSC14ExpressionNode17isDotAccessorNodeEv
_ZNK3JSC14ExpressionNode17isPrivateLocationEv
_ZNK3JSC14ExpressionNode18isBaseFuncExprNodeEv
_ZNK3JSC14ExpressionNode18isSpreadExpressionEv
_ZNK3JSC14ExpressionNode19isArrowFuncExprNodeEv
_ZNK3JSC14ExpressionNode19isAssignResolveNodeEv
_ZNK3JSC14ExpressionNode19isDestructuringNodeEv
_ZNK3JSC14ExpressionNode19isPrivateIdentifierEv
_ZNK3JSC14ExpressionNode21isBracketAccessorNodeEv
_ZNK3JSC14ExpressionNode23isArgumentsLengthAccessERNS_2VME
_ZNK3JSC14ExpressionNode23isBytecodeIntrinsicNodeEv
_ZNK3JSC14ExpressionNode5isAddEv
_ZNK3JSC14ExpressionNode6isNullEv
_ZNK3JSC14ExpressionNode6isPureERNS_17BytecodeGeneratorE
_ZNK3JSC14ExpressionNode8isBigIntEv
_ZNK3JSC14ExpressionNode8isNumberEv
_ZNK3JSC14ExpressionNode8isStringEv
_ZNK3JSC14ExpressionNode9isBooleanEv
_ZNK3JSC14SourceProvider10memoryCostEv
_ZNK3JSC14SourceProvider28isScriptBufferSourceProviderEv
_ZNK3JSC18EmptyStatementNode18hasCompletionValueEv
_ZNK3JSC19VerifierSlotVisitor12isFirstVisitEv
_ZNK3JSC20DeclarationStatement18hasCompletionValueEv
_ZNK3JSC20TypedArrayController29isWebCoreTypedArrayControllerEv
_ZNK3JSC21DebuggerStatementNode18hasCompletionValueEv
_ZNK3JSC21ModuleDeclarationNode17hasAttributesListEv
_ZNK3JSC21ModuleDeclarationNode18hasCompletionValueEv
_ZNK3JSC21ModuleDeclarationNode23isImportDeclarationNodeEv
_ZNK3JSC21ScriptFetchParameters16isTopLevelModuleEv
_ZNK3JSC24DestructuringPatternNode13isBindingNodeEv
_ZNK3JSC24DestructuringPatternNode15isRestParameterEv
_ZNK3JSC24DestructuringPatternNode23isAssignmentElementNodeEv
_ZNK3JSC24DestructuringPatternNode31writableDirectBindingIfPossibleERNS_17BytecodeGeneratorE
_ZNK3JSC24JSGlobalObjectDebuggable16hasLocalDebuggerEv
_ZNK3JSC2B35Value11absConstantERNS0_9ProcedureE
_ZNK3JSC2B35Value11addConstantERNS0_9ProcedureEPKS1_
_ZNK3JSC2B35Value11addConstantERNS0_9ProcedureEi
_ZNK3JSC2B35Value11divConstantERNS0_9ProcedureEPKS1_
_ZNK3JSC2B35Value11modConstantERNS0_9ProcedureEPKS1_
_ZNK3JSC2B35Value11mulConstantERNS0_9ProcedureEPKS1_
_ZNK3JSC2B35Value11negConstantERNS0_9ProcedureE
_ZNK3JSC2B35Value11shlConstantERNS0_9ProcedureEPKS1_
_ZNK3JSC2B35Value11subConstantERNS0_9ProcedureEPKS1_
_ZNK3JSC2B35Value12ceilConstantERNS0_9ProcedureE
_ZNK3JSC2B35Value12fMaxConstantERNS0_9ProcedureEPKS1_
_ZNK3JSC2B35Value12fMinConstantERNS0_9ProcedureEPKS1_
_ZNK3JSC2B35Value12iToDConstantERNS0_9ProcedureE
_ZNK3JSC2B35Value12iToFConstantERNS0_9ProcedureE
_ZNK3JSC2B35Value12rotLConstantERNS0_9ProcedureEPKS1_
_ZNK3JSC2B35Value12rotRConstantERNS0_9ProcedureEPKS1_
_ZNK3JSC2B35Value12sShrConstantERNS0_9ProcedureEPKS1_
_ZNK3JSC2B35Value12sqrtConstantERNS0_9ProcedureE
_ZNK3JSC2B35Value12uDivConstantERNS0_9ProcedureEPKS1_
_ZNK3JSC2B35Value12uModConstantERNS0_9ProcedureEPKS1_
_ZNK3JSC2B35Value12zShrConstantERNS0_9ProcedureEPKS1_
_ZNK3JSC2B35Value13bitOrConstantERNS0_9ProcedureEPKS1_
_ZNK3JSC2B35Value13floorConstantERNS0_9ProcedureE
_ZNK3JSC2B35Value14bitAndConstantERNS0_9ProcedureEPKS1_
_ZNK3JSC2B35Value14bitXorConstantERNS0_9ProcedureEPKS1_
_ZNK3JSC2B35Value14fTruncConstantERNS0_9ProcedureE
_ZNK3JSC2B35Value15mulHighConstantERNS0_9ProcedureEPKS1_
_ZNK3JSC2B35Value16checkAddConstantERNS0_9ProcedureEPKS1_
_ZNK3JSC2B35Value16checkMulConstantERNS0_9ProcedureEPKS1_
_ZNK3JSC2B35Value16checkNegConstantERNS0_9ProcedureE
_ZNK3JSC2B35Value16checkSubConstantERNS0_9ProcedureEPKS1_
_ZNK3JSC2B35Value16uMulHighConstantERNS0_9ProcedureEPKS1_
_ZNK3JSC2B35Value16vectorOrConstantERNS0_9ProcedureEPKS1_
_ZNK3JSC2B35Value17purifyNaNConstantERNS0_9ProcedureE
_ZNK3JSC2B35Value17vectorAndConstantERNS0_9ProcedureEPKS1_
_ZNK3JSC2B35Value17vectorXorConstantERNS0_9ProcedureEPKS1_
_ZNK3JSC2B35Value19bitwiseCastConstantERNS0_9ProcedureE
_ZNK3JSC2B35Value21doubleToFloatConstantERNS0_9ProcedureE
_ZNK3JSC2B35Value21floatToDoubleConstantERNS0_9ProcedureE
_ZNK3JSC4Wasm12OSREntryPlan13multiThreadedEv
_ZNK3JSC4Wasm13StreamingPlan13multiThreadedEv
_ZNK3JSC4Wasm7BBQPlan13multiThreadedEv
_ZNK3JSC4Wasm7OMGPlan13multiThreadedEv
_ZNK3JSC7JITCode25canSwapCodeRefForDebuggerEv
_ZNK3JSC7JITCode39canSwapCodePtrWithArityCheckForDebuggerEv
_ZNK3JSC7JITCode9signatureEv
_ZNK3JSC8Debugger15isContentScriptEPNS_14JSGlobalObjectE
_ZNK3JSC9BreakNode18hasCompletionValueEv
_ZNK6icu_7510ICUService13handleDefaultERKNS_13ICUServiceKeyEPNS_13UnicodeStringER10UErrorCode
_ZNK6icu_7511Normalizer217getCombiningClassEi
_ZNK6icu_7511Normalizer219getRawDecompositionEiRNS_13UnicodeStringE
_ZNK6icu_7513BreakIterator13getRuleStatusEv
_ZNK6icu_7513UnicodeString11hasMetaDataEv
_ZNK6icu_7514NFSubstitution21isModulusSubstitutionEv
_ZNK6icu_7514UnicodeFunctor10toReplacerEv
_ZNK6icu_7515ISO8601Calendar22isEra0CountingBackwardEv
_ZNK6icu_7515NoopNormalizer216getDecompositionEiRNS_13UnicodeStringE
_ZNK6icu_7516BuddhistCalendar22isEra0CountingBackwardEv
_ZNK6icu_7516BytesTrieBuilder23matchNodesCanHaveValuesEv
_ZNK6icu_7516JapaneseCalendar18haveDefaultCenturyEv
_ZNK6icu_7516JapaneseCalendar22isEra0CountingBackwardEv
_ZNK6icu_7516JapaneseCalendar23defaultCenturyStartYearEv
_ZNK6icu_7516LocaleKeyFactory12handleCreateERKNS_6LocaleEiPKNS_10ICUServiceER10UErrorCode
_ZNK6icu_7516LocaleKeyFactory15getSupportedIDsER10UErrorCode
_ZNK6icu_7517CollationIterator25forbidSurrogateCodePointsEv
_ZNK6icu_7517StringEnumeration5cloneEv
_ZNK6icu_7519InitialTimeZoneRule12getNextStartEdiiaRd
_ZNK6icu_7519InitialTimeZoneRule13getFinalStartEiiRd
_ZNK6icu_7519InitialTimeZoneRule13getFirstStartEiiRd
_ZNK6icu_7519InitialTimeZoneRule16getPreviousStartEdiiaRd
_ZNK6icu_7520CompactDecimalFormat13parseCurrencyERKNS_13UnicodeStringERNS_13ParsePositionE
_ZNK6icu_7522BytesDictionaryMatcher7getTypeEv
_ZNK6icu_7524WholeStringBreakIterator5cloneEv
_ZNK6icu_7524WholeStringBreakIterator7currentEv
_ZNK6icu_7524WholeStringBreakIteratoreqERKNS_13BreakIteratorE
_ZNK6icu_7526FractionalPartSubstitution15transformNumberEl
_ZNK6icu_7535SimpleFilteredSentenceBreakIterator17getDynamicClassIDEv
_ZNK6icu_756number4impl13EmptyModifier13containsFieldENS_22FormattedStringBuilder5FieldE
_ZNK6icu_756number4impl13EmptyModifier15getPrefixLengthEv
_ZNK6icu_756number4impl13EmptyModifier17getCodePointCountEv
_ZNK6icu_756number4impl13EmptyModifier5applyERNS_22FormattedStringBuilderEiiR10UErrorCode
_ZNK6icu_756number4impl18ScientificModifier15getPrefixLengthEv
_ZNK6icu_757UObject17getDynamicClassIDEv
_ZNK6icu_758Calendar22isEra0CountingBackwardEv
_ZNK6icu_758numparse4impl14PaddingMatcher10isDisabledERKNS1_12ParsedNumberE
_ZNK6icu_758numparse4impl17IgnorablesMatcher10isDisabledERKNS1_12ParsedNumberE
_ZNK6icu_758numparse4impl17ValidationMatcher5matchERNS_13StringSegmentERNS1_12ParsedNumberER10UErrorCode
_ZNK6icu_758numparse4impl17ValidationMatcher9smokeTestERKNS_13StringSegmentE
_ZNK6icu_758numparse4impl18NumberParseMatcher10isFlexibleEv
_ZNK7WebCore11EventTarget16isPaymentRequestEv
_ZNK7WebCore11EventTarget6isNodeEv
_ZNK7WebCore12CryptoKeyAES8keyClassEv
_ZNK7WebCore15JSEventListener14sourcePositionEv
_ZNK7WebCore15JSEventListener20initializeJSFunctionERNS_22ScriptExecutionContextE
_ZNK7WebCore25CryptoAlgorithmParameters15parametersClassEv
_ZNK7WebCore5Event13relatedTargetEv
_ZNK7simdutf8internal26unsupported_implementation10count_utf8EPKcm
_ZNK7simdutf8internal26unsupported_implementation13count_utf16beEPKDsm
_ZNK7simdutf8internal26unsupported_implementation13count_utf16leEPKDsm
_ZNK7simdutf8internal26unsupported_implementation13validate_utf8EPKcm
_ZNK7simdutf8internal26unsupported_implementation14validate_asciiEPKcm
_ZNK7simdutf8internal26unsupported_implementation14validate_utf32EPKDim
_ZNK7simdutf8internal26unsupported_implementation16binary_to_base64EPKcmPcNS_14base64_optionsE
_ZNK7simdutf8internal26unsupported_implementation16detect_encodingsEPKcm
_ZNK7simdutf8internal26unsupported_implementation16validate_utf16beEPKDsm
_ZNK7simdutf8internal26unsupported_implementation16validate_utf16leEPKDsm
_ZNK7simdutf8internal26unsupported_implementation21convert_utf32_to_utf8EPKDimPc
_ZNK7simdutf8internal26unsupported_implementation21convert_utf8_to_utf32EPKcmPDi
_ZNK7simdutf8internal26unsupported_implementation22convert_latin1_to_utf8EPKcmPc
_ZNK7simdutf8internal26unsupported_implementation22convert_utf8_to_latin1EPKcmPc
_ZNK7simdutf8internal26unsupported_implementation22utf16_length_from_utf8EPKcm
_ZNK7simdutf8internal26unsupported_implementation22utf32_length_from_utf8EPKcm
_ZNK7simdutf8internal26unsupported_implementation22utf8_length_from_utf32EPKDim
_ZNK7simdutf8internal26unsupported_implementation23convert_latin1_to_utf32EPKcmPDi
_ZNK7simdutf8internal26unsupported_implementation23convert_utf16be_to_utf8EPKDsmPc
_ZNK7simdutf8internal26unsupported_implementation23convert_utf16le_to_utf8EPKDsmPc
_ZNK7simdutf8internal26unsupported_implementation23convert_utf32_to_latin1EPKDimPc
_ZNK7simdutf8internal26unsupported_implementation23convert_utf8_to_utf16beEPKcmPDs
_ZNK7simdutf8internal26unsupported_implementation23convert_utf8_to_utf16leEPKcmPDs
_ZNK7simdutf8internal26unsupported_implementation23latin1_length_from_utf8EPKcm
_ZNK7simdutf8internal26unsupported_implementation23utf16_length_from_utf32EPKDim
_ZNK7simdutf8internal26unsupported_implementation23utf8_length_from_latin1EPKcm
_ZNK7simdutf8internal26unsupported_implementation24convert_utf16be_to_utf32EPKDsmPDi
_ZNK7simdutf8internal26unsupported_implementation24convert_utf16le_to_utf32EPKDsmPDi
_ZNK7simdutf8internal26unsupported_implementation24convert_utf32_to_utf16beEPKDimPDs
_ZNK7simdutf8internal26unsupported_implementation24convert_utf32_to_utf16leEPKDimPDs
_ZNK7simdutf8internal26unsupported_implementation24utf8_length_from_utf16beEPKDsm
_ZNK7simdutf8internal26unsupported_implementation24utf8_length_from_utf16leEPKDsm
_ZNK7simdutf8internal26unsupported_implementation25binary_length_from_base64EPKDsm
_ZNK7simdutf8internal26unsupported_implementation25binary_length_from_base64EPKcm
_ZNK7simdutf8internal26unsupported_implementation25convert_latin1_to_utf16beEPKcmPDs
_ZNK7simdutf8internal26unsupported_implementation25convert_latin1_to_utf16leEPKcmPDs
_ZNK7simdutf8internal26unsupported_implementation25convert_utf16be_to_latin1EPKDsmPc
_ZNK7simdutf8internal26unsupported_implementation25convert_utf16le_to_latin1EPKDsmPc
_ZNK7simdutf8internal26unsupported_implementation25utf32_length_from_utf16beEPKDsm
_ZNK7simdutf8internal26unsupported_implementation25utf32_length_from_utf16leEPKDsm
_ZNK7simdutf8internal26unsupported_implementation25validate_utf16be_as_asciiEPKDsm
_ZNK7simdutf8internal26unsupported_implementation25validate_utf16le_as_asciiEPKDsm
_ZNK7simdutf8internal26unsupported_implementation27binary_to_base64_with_linesEPKcmPcmNS_14base64_optionsE
_ZNK7simdutf8internal26unsupported_implementation27convert_valid_utf32_to_utf8EPKDimPc
_ZNK7simdutf8internal26unsupported_implementation27convert_valid_utf8_to_utf32EPKcmPDi
_ZNK7simdutf8internal26unsupported_implementation28convert_valid_utf8_to_latin1EPKcmPc
_ZNK7simdutf8internal26unsupported_implementation29convert_valid_utf16be_to_utf8EPKDsmPc
_ZNK7simdutf8internal26unsupported_implementation29convert_valid_utf16le_to_utf8EPKDsmPc
_ZNK7simdutf8internal26unsupported_implementation29convert_valid_utf32_to_latin1EPKDimPc
_ZNK7simdutf8internal26unsupported_implementation29convert_valid_utf8_to_utf16beEPKcmPDs
_ZNK7simdutf8internal26unsupported_implementation29convert_valid_utf8_to_utf16leEPKcmPDs
_ZNK7simdutf8internal26unsupported_implementation30convert_valid_utf16be_to_utf32EPKDsmPDi
_ZNK7simdutf8internal26unsupported_implementation30convert_valid_utf16le_to_utf32EPKDsmPDi
_ZNK7simdutf8internal26unsupported_implementation30convert_valid_utf32_to_utf16beEPKDimPDs
_ZNK7simdutf8internal26unsupported_implementation30convert_valid_utf32_to_utf16leEPKDimPDs
_ZNK7simdutf8internal26unsupported_implementation31convert_valid_utf16be_to_latin1EPKDsmPc
_ZNK7simdutf8internal26unsupported_implementation31convert_valid_utf16le_to_latin1EPKDsmPc
_ZNK7simdutf8internal26unsupported_implementation40convert_utf16be_to_utf8_with_replacementEPKDsmPc
_ZNK7simdutf8internal26unsupported_implementation40convert_utf16le_to_utf8_with_replacementEPKDsmPc
_ZNK7simdutf8internal26unsupported_implementation4findEPKDsS3_Ds
_ZNK7simdutf8internal26unsupported_implementation4findEPKcS3_c
_ZNK9Inspector21InjectedScriptManager26isWebInjectedScriptManagerEv
_ZNK9Inspector22RemoteInspectionTarget20webContentProcessPIDEv
_ZNK9Inspector22RemoteInspectionTarget26automaticInspectionAllowedEv
_ZNK9Inspector22RemoteInspectionTarget39automaticInspectionAllowedInSameProcessEv
_ZNK9Inspector24RemoteConnectionToTarget14connectionTypeEv
archive_string_default_conversion_for_read
ares_library_initialized
jpeg_mem_init
lsquic_headers_stream_get_stream
lsquic_init_gquic_crypto
lsquic_mini_conn_new
pas_process_is_shutting_down
_ZN3Bun13ConsoleObjectD2Ev
pas_thread_local_cache_stop_local_allocators_if_necessary
pas_thread_local_cache_for_all
bmalloc_marge_bitfit_page_config_specialized_allocator_try_allocate
_ZN3WTF17StringPrintStream7vprintfEPKcP13__va_list_tag
_ZNK3WTF17StringPrintStream9toCStringEv
_ZN3WTF17StringPrintStream5resetEv
_ZNK3WTF17StringPrintStream11tryToStringEv
_ZNK3WTF17StringPrintStream8toStringEv
_ZNK3WTF17StringPrintStream26toStringWithLatin1FallbackEv
_ZN3WTF19ThreadSuspendLockerC1Ev
_ZN3WTF19ThreadSuspendLockerC2Ev
_ZN3WTF19ThreadSuspendLockerD1Ev
_ZN3WTF19ThreadSuspendLockerD2Ev
_ZN3WTF10ThreadLike15currentSequenceEv
_ZN3WTF6Thread19normalizeThreadNameEPKc
_ZNK3WTF10StringView5rightEj
_ZN3WTF6Thread18initializeInThreadEv
initialize
pas_baseline_allocator_table_get_random_index
pas_baseline_allocator_table_for_all
pas_basic_heap_config_enumerator_data_add_page_header_table
pas_bitfit_allocator_construct
pas_bitfit_allocator_stop
pas_bitfit_allocator_commit_view
flush_deallocation_log_for_scavenger
_ZN3WTF17fastCompactMallocEm
deallocate_segregated
pas_debug_spectrum_dump
pas_debug_spectrum_reset
pas_deferred_decommit_log_construct
pas_deferred_decommit_log_destruct
pas_deferred_decommit_log_lock_for_adding
pas_deferred_decommit_log_add
pas_deferred_decommit_log_add_already_locked
pas_bmalloc_force_allocations_into_bitfit_heaps_where_available
pas_page_base_header_size
pas_page_base_compute_committed_when_owned
_ZN3WTF7RunLoop9TimerBaseC2EONS_3RefIS0_NS_12RawPtrTraitsIS0_EENS_21DefaultRefDerefTraitsIS0_EEEENS_12ASCIILiteralE
_ZN3WTF7RunLoop9TimerBaseD1Ev
_ZN3WTF7RunLoop9TimerBaseD2Ev
_ZN3WTF7RunLoop9TimerBase4stopEv
_ZNK3WTF7RunLoop9TimerBase8isActiveEv
_ZN3WTF7RunLoop9TimerBase5startENS_7SecondsEb
WTFTimer__fire
_ZN3WTF7RunLoopC1Ev
_ZN3WTF7RunLoopC2Ev
_ZN3WTF7RunLoopD1Ev
_ZN3WTF7RunLoopD2Ev
_ZN3WTF7RunLoopD0Ev
_ZN3WTF7RunLoop3runEv
_ZN3WTF7RunLoop4stopEv
_ZN3WTF7RunLoop6wakeUpEv
_ZN3WTF7RunLoop5cycleEj
_ZN3WTF5DequeINS_3RefINS_7RunLoop9TimerBase13ScheduledTaskENS_12RawPtrTraitsIS4_EENS_21DefaultRefDerefTraitsIS4_EEEELm0EE14expandCapacityEv
_ZN3WTF5DequeINS_3RefINS_7RunLoop9TimerBase13ScheduledTaskENS_12RawPtrTraitsIS4_EENS_21DefaultRefDerefTraitsIS4_EEEELm0EE10destroyAllEv
_ZN3WTF12RedBlackTreeINS_7RunLoop9TimerBase13ScheduledTaskENS_13MonotonicTimeEE10treeInsertEPS3_
_ZN3WTF12RedBlackTreeINS_7RunLoop9TimerBase13ScheduledTaskENS_13MonotonicTimeEE10leftRotateEPS3_
_ZN3WTF12RedBlackTreeINS_7RunLoop9TimerBase13ScheduledTaskENS_13MonotonicTimeEE11rightRotateEPS3_
_ZN3WTF12RedBlackTreeINS_7RunLoop9TimerBase13ScheduledTaskENS_13MonotonicTimeEE11removeFixupEPS3_S6_
_ZN3WTF18FunctionDispatcherC2Ev
_ZN13OpaqueJSClassD1Ev
_ZN13OpaqueJSClassD2Ev
JSClassRelease
_ZN24OpaqueJSClassContextDataC1ERN3JSC2VMEP13OpaqueJSClass
_ZN24OpaqueJSClassContextDataC2ERN3JSC2VMEP13OpaqueJSClass
_ZN13OpaqueJSClass11contextDataEPN3JSC14JSGlobalObjectE
_ZN3JSC14JSGlobalObject11contextDataEP13OpaqueJSClass
_ZN13OpaqueJSClass9classNameEv
_ZN13OpaqueJSClass12staticValuesEPN3JSC14JSGlobalObjectE
_ZN13OpaqueJSClass15staticFunctionsEPN3JSC14JSGlobalObjectE
_ZN13OpaqueJSClass9prototypeEPN3JSC14JSGlobalObjectE
_ZN3JSC16JSCallbackObjectINS_16JSNonFinalObjectEE6createEPNS_14JSGlobalObjectEPNS_9StructureEP13OpaqueJSClassPv
JSObjectMake
_Z23handleExceptionIfNeededRN3JSC17TopExceptionScopeEPK15OpaqueJSContextPPK13OpaqueJSValue
JSObjectMakeDate
_ZN3JSC22IndirectEvalExecutable9tryCreateEPNS_14JSGlobalObjectERKNS_10SourceCodeEhNS_18DerivedContextTypeEbNS_15EvalContextTypeE
_ZN3JSC34initializeWithOptionsCustomizationERKN3WTF12ScopedLambdaIFvvEEE
_ZN3WTF19StringParsingBufferIhE7advanceEv
_ZN3JSCL8parseIntIhEEdSt4spanIKT_Lm18446744073709551615EEi
_ZN3WTF19StringParsingBufferIhE9advanceByEm
_ZN3JSC7ISO8601L14handleFractionERNS0_8DurationEiN3WTF10StringViewENS_12TemporalUnitE
_ZN3WTF19StringParsingBufferIDsE7advanceEv
_ZN3JSCL8parseIntIDsEEdSt4spanIKT_Lm18446744073709551615EEi
_ZN3WTF19StringParsingBufferIDsE9advanceByEm
_ZN3WTF37tryMakeStringImplFromAdaptersInternalIJNS_17StringTypeAdapterIcEENS1_INS_20PaddingSpecificationIjEEEEEEENS_6RefPtrINS_10StringImplENS_12RawPtrTraitsIS7_EENS_21DefaultRefDerefTraitsIS7_EEEEjbDpT_
_ZZNSt9once_flag18_Prepare_executionC1IZSt9call_onceIZN3JSC34initializeWithOptionsCustomizationERKN3WTF12ScopedLambdaIFvvEEEE3$_0JEEvRS_OT_DpOT0_EUlvE_EERSC_ENUlvE_8__invokeEv
_ZN3WTF19ScopedLambdaFunctorIFvvENS_12ScopedLambdaIS1_EEE12implFunctionEPv
_ZN3JSC19UPluralRulesDeleterclEP12UPluralRules
_ZN3JSC21UListFormatterDeleterclEP14UListFormatter
_ZN3JSC26UDateIntervalFormatDeleterclEP19UDateIntervalFormat
_ZNK3JSC29UFieldPositionIteratorDeleterclEP22UFieldPositionIterator
_ZN3JSC18IntlDateTimeFormat13visitChildrenEPNS_6JSCellERNS_11SlotVisitorE
_ZN3JSC18IntlDateTimeFormat13visitChildrenEPNS_6JSCellERNS_19AbstractSlotVisitorE
_ZN3JSC7Options20notifyOptionsChangedEv
_ZN3JSC7Options34initializeWithOptionsCustomizationERKN3WTF12ScopedLambdaIFvvEEE
_ZN3JSC7Options8finalizeEv
_ZN3JSC7Options24assertOptionsAreCoherentEv
_ZN3JSC7Options21setOptionWithoutAliasEPKcb
_ZN3WTF37tryMakeStringImplFromAdaptersInternalIJNS_17StringTypeAdapterISt4spanIKcLm18446744073709551615EEEENS1_IcEES5_EEENS_6RefPtrINS_10StringImplENS_12RawPtrTraitsIS8_EENS_21DefaultRefDerefTraitsIS8_EEEEjbDpT_
_ZZNSt9once_flag18_Prepare_executionC1IZSt9call_onceIZN3JSC7Options34initializeWithOptionsCustomizationERKN3WTF12ScopedLambdaIFvvEEEE3$_0JEEvRS_OT_DpOT0_EUlvE_EERSD_ENUlvE_8__invokeEv
_ZZN3JSC7Options34initializeWithOptionsCustomizationERKN3WTF12ScopedLambdaIFvvEEEENK3$_0clEv
_ZN3WTF7CStringC1ENS_12ASCIILiteralE
_ZN3WTF7CStringC2ENS_12ASCIILiteralE
_ZN3WTF7CStringC1EPKc
_ZN3WTF7CStringC2EPKc
_ZN3WTF7CStringC1ESt4spanIKcLm18446744073709551615EE
_ZN3WTF7CStringC2ESt4spanIKcLm18446744073709551615EE
_ZN3WTF7CString11mutableSpanEv
_ZN3WTF7CString18copyBufferIfNeededEv
_ZN3WTF7CString16newUninitializedEmRSt4spanIcLm18446744073709551615EE
_ZN3WTFeqERKNS_7CStringES2_
_ZL50bmalloc_medium_segregated_page_header_for_boundaryPv
_ZL50bmalloc_medium_segregated_boundary_for_page_headerP13pas_page_base
bmalloc_medium_segregated_page_header_for_boundary_remote
bmalloc_medium_segregated_create_page_header
bmalloc_medium_segregated_destroy_page_header
bmalloc_heap_config_allocate_medium_segregated_page
bmalloc_medium_segregated_page_config_specialized_local_allocator_refill
pas_segregated_page_note_emptiness
pas_segregated_page_take_empty_granules
pas_segregated_page_take_physically
pas_segregated_page_commit_fully
bmalloc_small_bitfit_page_config_specialized_page_deallocate_with_page
bmalloc_small_bitfit_page_config_specialized_page_get_allocation_size_with_page
_ZN3JSC27overrideOptionWithHeuristicINS_11OptionRangeEEEbRT_NS_7Options2IDEPKcNS4_12AvailabilityE
_ZN3WTF37tryMakeStringImplFromAdaptersInternalIJNS_17StringTypeAdapterINS_6StringEEENS1_IcEENS1_INS_12ASCIILiteralEEEEEENS_6RefPtrINS_10StringImplENS_12RawPtrTraitsIS8_EENS_21DefaultRefDerefTraitsIS8_EEEEjbDpT_
_ZN3WTF28stringTypeAdapterAccumulatorIDsNS_17StringTypeAdapterINS_6StringEEEJNS1_IcEENS1_INS_12ASCIILiteralEEEEEEvSt4spanIT_Lm18446744073709551615EET0_DpT1_
_ZN3WTF28stringTypeAdapterAccumulatorIDsNS_17StringTypeAdapterINS_6StringEEEJNS1_IcEENS1_ISt4spanIKcLm18446744073709551615EEEEEEEvS5_IT_Lm18446744073709551615EET0_DpT1_
_ZN3WTF13StringBuilder18appendFromAdaptersIJNS_17StringTypeAdapterIN3JSC9GCLogging5LevelEEEEEEvDpRKT_
_ZN3JSC17PinballCompletion7destroyEPNS_6JSCellE
_ZN3JSC17PinballCompletion13visitChildrenEPNS_6JSCellERNS_11SlotVisitorE
_ZN3JSC17PinballCompletion13visitChildrenEPNS_6JSCellERNS_19AbstractSlotVisitorE
_ZN3JSC17PinballCompletion15createStructureERNS_2VMEPNS_14JSGlobalObjectENS_7JSValueE
_ZN3JSC17PinballCompletion6createERNS_2VMEON3WTF6VectorISt10unique_ptrINS_19EvacuatedStackSliceESt14default_deleteIS6_EELm0ENS3_15CrashOnOverflowELm16ENS3_10FastMallocEEEPlPNS_9JSPromiseE
_ZN3JSC13jsAddSlowCaseEPNS_14JSGlobalObjectENS_7JSValueES2_
_ZN3JSC5parseINS_9OSLogTypeEEESt8optionalIT_EPKc
_ZN3JSC7Options34overrideAliasedOptionWithHeuristicEPKc
_ZN3JSC7Options9setOptionEPKcb
_ZNK3JSC11OptionRange9isInRangeEj
_ZN3JSCL17setterHandlerImplILb1EEEvRNS_2VMERNS_12CCallHelpersENS_11JSValueRegsES5_NS_12X86Registers10RegisterIDES7_S7_
_ZN3JSCL17setterHandlerImplILb0EEEvRNS_2VMERNS_12CCallHelpersENS_11JSValueRegsES5_NS_12X86Registers10RegisterIDES7_S7_
_ZN3JSC18IntlDateTimeFormat6createERNS_2VMEPNS_9StructureE
_ZN3JSC18IntlDateTimeFormat15createStructureERNS_2VMEPNS_14JSGlobalObjectENS_7JSValueE
_ZN3JSC18IntlDateTimeFormat17visitChildrenImplINS_19AbstractSlotVisitorEEEvPNS_6JSCellERT_
_ZN3JSC18IntlDateTimeFormat17visitChildrenImplINS_11SlotVisitorEEEvPNS_6JSCellERT_
_ZN3JSC7Options18executeDumpOptionsEv
_ZN3JSC7Options14dumpAllOptionsERN3WTF13StringBuilderENS0_9DumpLevelENS1_12ASCIILiteralES5_S5_S5_NS0_18DumpDefaultsOptionE
_ZN3WTF7dataLogIJNS_6StringEEEEvDpRKT_
_ZN3WTF11PrintStream9printImplIN3JSC13BytecodeIndexEJA3_cNS2_15InlineCallFrame4KindEEEEvRKT_DpRKT0_
_ZN3JSC26AbstractMacroAssemblerBase16initializeRandomEv
_ZN3WTF13printInternalERNS_11PrintStreamEN3JSC26AbstractMacroAssemblerBase15StatusConditionE
_ZN3JSC27threadSpecificAssemblerDataEv
_ZN3JSC23AssemblyCommentRegistry10initializeEv
_ZN3JSC23AssemblyCommentRegistry9singletonEv
_ZN3JSC12isX86_64_AVXEv
_ZN3JSC10LinkBuffer34finalizeCodeWithoutDisassemblyImplEN3WTF12ASCIILiteralE
_ZN3JSC10LinkBuffer20logJITCodeForJITDumpERNS_21MacroAssemblerCodeRefILN3WTF6PtrTagE25031EEENS2_12ASCIILiteralE
_ZN3WTF11PrintStream5printIJA26_cPKcA7_cEEEvDpRKT_
_ZN3WTF11PrintStream5printIJA5_cPKcA3_cEEEvDpRKT_
_ZN3JSCL11profileNameENS_10LinkBuffer7ProfileE
_ZZN3JSC10LinkBuffer20logJITCodeForJITDumpERNS_21MacroAssemblerCodeRefILN3WTF6PtrTagE25031EEENS2_12ASCIILiteralEENK3$_0clERNS2_17StringPrintStreamES6_
_ZN3JSC10LinkBuffer31finalizeCodeWithDisassemblyImplEbN3WTF12ASCIILiteralEPKcz
_ZN3JSC17AssemblerDataImplILNS_17AssemblerDataTypeE0EED2Ev
_ZN3WTF14ThreadSpecificIN3JSC17AssemblerDataImplILNS1_17AssemblerDataTypeE0EEELNS_13CanBeGCThreadE1EE4DataC2EPS6_
_ZN3WTF9HashTableIPN3JSC6JSCellENS_12KeyValuePairIS3_NS_6StringEEENS_24KeyValuePairKeyExtractorIS6_EENS_11DefaultHashIS3_EENS_7HashMapIS3_S5_SA_NS_10HashTraitsIS3_EENSC_IS5_EENS_15HashTableTraitsELNS_17ShouldValidateKeyE0ENS_10FastMallocEE18KeyValuePairTraitsESD_SH_E6rehashENS_7CheckedIjNS_15CrashOnOverflowEEEPS6_
_ZN3WTF9HashTableIPN3JSC6JSCellENS_12KeyValuePairIS3_NS_6StringEEENS_24KeyValuePairKeyExtractorIS6_EENS_11DefaultHashIS3_EENS_7HashMapIS3_S5_SA_NS_10HashTraitsIS3_EENSC_IS5_EENS_15HashTableTraitsELNS_17ShouldValidateKeyE1ENS_10FastMallocEE18KeyValuePairTraitsESD_SH_E6rehashENS_7CheckedIjNS_15CrashOnOverflowEEEPS6_
_ZN3WTF9HashTableImNS_12KeyValuePairImNS_6StringEEENS_24KeyValuePairKeyExtractorIS3_EENS_11DefaultHashImEENS_7HashMapImS2_S7_NS_10HashTraitsImEENS9_IS2_EENS_15HashTableTraitsELNS_17ShouldValidateKeyE0ENS_10FastMallocEE18KeyValuePairTraitsESA_SE_E6rehashENS_7CheckedIjNS_15CrashOnOverflowEEEPS3_
_ZN3JSC14MacroAssembler5probeEPFvRNS_5Probe7ContextEEPv
_ZN3JSC20MacroAssemblerX86_6418collectCPUFeaturesEv
_ZZNSt9once_flag18_Prepare_executionC1IZSt9call_onceIZN3JSC20MacroAssemblerX86_6418collectCPUFeaturesEvE3$_0JEEvRS_OT_DpOT0_EUlvE_EERS7_ENUlvE_8__invokeEv
_ZN3WTF11CodePtrBase12dumpWithNameEPvS1_NS_12ASCIILiteralERNS_11PrintStreamE
_ZN3JSC17CallFrameShuffler12emitDisplaceERNS_14CachedRecoveryE
_ZN3JSC29doExecutableAllocationFuzzingEv
_ZN3JSC19ExecutableAllocator29initializeUnderlyingAllocatorEv
_ZN3JSC30FixedVMPoolExecutableAllocatorC2Ev
_ZNK3JSC19ExecutableAllocator7isValidEv
_ZN3JSC19ExecutableAllocator24memoryPressureMultiplierEm
_ZN3JSC19ExecutableAllocator8allocateEmNS_20JITCompilationEffortE
_ZN3JSC30FixedVMPoolExecutableAllocator8allocateEm
_ZN3JSC19ExecutableAllocator23isValidExecutableMemoryERKN3WTF14AbstractLockerEPv
_ZNK3JSC19ExecutableAllocator7getLockEv
_ZN3JSC34endOfFixedExecutableMemoryPoolImplEv
_ZN3JSC13dumpJITMemoryEPKvS1_m
_ZN3JSC22ExecutableMemoryHandleD1Ev
_ZN3JSC22ExecutableMemoryHandleD2Ev
_ZN3JSC19ExecutableAllocator10initializeEv
_ZN3JSC19ExecutableAllocator9singletonEv
_ZN3JSC21GCAwareJITStubRoutineC1ENS_14JITStubRoutine4TypeERKNS_21MacroAssemblerCodeRefILN3WTF6PtrTagE49594EEEPNS_6JSCellEb
_ZN3JSC21GCAwareJITStubRoutineC2ENS_14JITStubRoutine4TypeERKNS_21MacroAssemblerCodeRefILN3WTF6PtrTagE49594EEEPNS_6JSCellEb
_ZN3JSC21GCAwareJITStubRoutine11makeGCAwareERNS_2VME
_ZN3JSC21GCAwareJITStubRoutine23observeZeroRefCountImplEv
_ZN3JSC21GCAwareJITStubRoutine12deleteFromGCEv
_ZN3JSC21GCAwareJITStubRoutine16removeDeadOwnersERNS_2VME
_ZN3JSC16SharedJITStubSet6removeEPNS_31PolymorphicAccessJITStubRoutineE
_ZN3WTF9HashTableIN3JSC8QueryKeyENS_12KeyValuePairIS2_PNS1_12TypeLocationEEENS_24KeyValuePairKeyExtractorIS6_EENS_11DefaultHashIS2_EENS_7HashMapIS2_S5_SA_NS_10HashTraitsIS2_EENSC_IS5_EENS_15HashTableTraitsELNS_17ShouldValidateKeyE0ENS_10FastMallocEE18KeyValuePairTraitsESD_SH_E6rehashENS_7CheckedIjNS_15CrashOnOverflowEEEPS6_
_ZN3WTF9HashTableISt4pairIPN3JSC9StructureEPNS2_6JSCellEENS_12KeyValuePairIS7_NS_6RefPtrINS2_14StructureShapeENS_12RawPtrTraitsISA_EENS_21DefaultRefDerefTraitsISA_EEEEEENS_24KeyValuePairKeyExtractorISG_EENS_11DefaultHashIS7_EENS_7HashMapIS7_SF_SK_NS_10HashTraitsIS7_EENSM_ISF_EENS_15HashTableTraitsELNS_17ShouldValidateKeyE0ENS_10FastMallocEE18KeyValuePairTraitsESN_SR_E3addINS_17HashMapTranslatorIST_SK_EELSQ_0ERKS7_TkSt9invocableZNSS_9inlineAddISZ_RSF_EENS_18HashTableAddResultINS_17HashTableIteratorISU_S7_SG_SI_SK_ST_SN_EEEEOT_OT0_EUlvE_EES15_OT1_RKT2_
_ZN3WTF9HashTableISt4pairIPN3JSC9StructureEPNS2_6JSCellEENS_12KeyValuePairIS7_NS_6RefPtrINS2_14StructureShapeENS_12RawPtrTraitsISA_EENS_21DefaultRefDerefTraitsISA_EEEEEENS_24KeyValuePairKeyExtractorISG_EENS_11DefaultHashIS7_EENS_7HashMapIS7_SF_SK_NS_10HashTraitsIS7_EENSM_ISF_EENS_15HashTableTraitsELNS_17ShouldValidateKeyE0ENS_10FastMallocEE18KeyValuePairTraitsESN_SR_E6rehashENS_7CheckedIjNS_15CrashOnOverflowEEEPSG_
_ZN3WTF9HashTableIPN3JSC9StructureENS_12KeyValuePairIS3_NS_6RefPtrINS1_14StructureShapeENS_12RawPtrTraitsIS6_EENS_21DefaultRefDerefTraitsIS6_EEEEEENS_24KeyValuePairKeyExtractorISC_EENS_11DefaultHashIS3_EENS_7HashMapIS3_SB_SG_NS_10HashTraitsIS3_EENSI_ISB_EENS_15HashTableTraitsELNS_17ShouldValidateKeyE0ENS_10FastMallocEE18KeyValuePairTraitsESJ_SN_E3addINS_17HashMapTranslatorISP_SG_EELSM_0ERKS3_TkSt9invocableZNSO_9inlineAddISV_RSB_EENS_18HashTableAddResultINS_17HashTableIteratorISQ_S3_SC_SE_SG_SP_SJ_EEEEOT_OT0_EUlvE_EES11_OT1_RKT2_
_ZN3WTF9HashTableIPN3JSC9StructureENS_12KeyValuePairIS3_NS_6RefPtrINS1_14StructureShapeENS_12RawPtrTraitsIS6_EENS_21DefaultRefDerefTraitsIS6_EEEEEENS_24KeyValuePairKeyExtractorISC_EENS_11DefaultHashIS3_EENS_7HashMapIS3_SB_SG_NS_10HashTraitsIS3_EENSI_ISB_EENS_15HashTableTraitsELNS_17ShouldValidateKeyE0ENS_10FastMallocEE18KeyValuePairTraitsESJ_SN_E6rehashENS_7CheckedIjNS_15CrashOnOverflowEEEPSC_
_ZN3JSC2VM21defaultMicrotaskQueueEv
_ZNK3JSC2VM29currentThreadIsHoldingAPILockEv
_ZN3JSC2VM16computeCanUseJITEv
_ZN3JSC2VMC1ENS0_6VMTypeENS_8HeapTypeEPN3WTF7RunLoopEPb
_ZN3JSC2VMC2ENS0_6VMTypeENS_8HeapTypeEPN3WTF7RunLoopEPb
_ZN3WTF22ScopedLambdaRefFunctorIFvRNS_17PlatformRegistersEEZN3JSC7VMTraps12SignalSender4workEvEUlS2_E_E12implFunctionEPvS2_
_ZN3JSC6WaiterD2Ev
_ZZNSt9once_flag18_Prepare_executionC1IZSt9call_onceIZN3JSC2VM15canUseAssemblerEvE3$_0JEEvRS_OT_DpOT0_EUlvE_EERS7_ENUlvE_8__invokeEv
_ZN3WTF12parseIntegerIicEESt8optionalIT_ESt4spanIKT0_Lm18446744073709551615EEhNS_18TrailingJunkPolicyENS_28ParseIntegerWhitespacePolicyE
_ZN3JSC6GdbJIT3logERKN3WTF7CStringENS_21MacroAssemblerCodeRefILNS1_6PtrTagE25031EEE
_ZN3JSC10ELFSection9writeBodyENS_6Writer4SlotINS_16ELFsectionHeaderEEEN3WTF3RefIS1_NS5_12RawPtrTraitsIS1_EENS5_21DefaultRefDerefTraitsIS1_EEEE
_ZN3JSC10ELFSection14populateHeaderENS_6Writer4SlotINS_16ELFsectionHeaderEEE
_ZN3JSCL28initializeJITPageReservationEv
_ZN3WTF7dataLogIJiA38_cNS_10RawPointerEA4_cS2_A16_cS2_A2_cEEEvDpRKT_
_ZNSt8_Rb_treeImSt4pairIKmS0_ImN3WTF7HashMapImNS2_6StringENS2_11DefaultHashImEENS2_10HashTraitsImEENS7_IS4_EENS2_15HashTableTraitsELNS2_17ShouldValidateKeyE0ENS2_10FastMallocEEEEESt10_Select1stISF_ESt4lessImENS2_13FastAllocatorISF_EEE5eraseB5cxx11ESt17_Rb_tree_iteratorISF_E
_ZN3WTF9HashTableIN3JSC16SharedJITStubSet4Hash3KeyES4_NS_17IdentityExtractorES3_NS_21SimpleClassHashTraitsIS4_EES7_NS_10FastMallocEE12inlineLookupINS_24HashSetTranslatorAdapterINS2_17PointerTranslatorEEELNS_17ShouldValidateKeyE0EPNS1_31PolymorphicAccessJITStubRoutineEEEPS4_RKT1_
_ZZN3JSC17ConservativeRoots17genericAddPointerILb0ENS_13DummyMarkHookEEEvPcjjNS_15TinyBloomFilterImEES5_RT0_ENKUlPvE_clES8_
_ZZN3JSC17ConservativeRoots17genericAddPointerILb1ENS_13DummyMarkHookEEEvPcjjNS_15TinyBloomFilterImEES5_RT0_ENKUlPvE_clES8_
_ZN3JSC17ConservativeRoots17genericAddPointerILb1ENS_17CompositeMarkHookEEEvPcjjNS_15TinyBloomFilterImEES5_RT0_
_ZN3JSC17ConservativeRoots17genericAddPointerILb0ENS_17CompositeMarkHookEEEvPcjjNS_15TinyBloomFilterImEES5_RT0_
_ZZN3JSC17ConservativeRoots17genericAddPointerILb0ENS_17CompositeMarkHookEEEvPcjjNS_15TinyBloomFilterImEES5_RT0_ENKUlPNS_17PreciseAllocationEE_clES9_
_ZZN3JSC17ConservativeRoots17genericAddPointerILb1ENS_17CompositeMarkHookEEEvPcjjNS_15TinyBloomFilterImEES5_RT0_ENKUlPNS_17PreciseAllocationEE_clES9_
_ZZN3JSC17ConservativeRoots17genericAddPointerILb0ENS_17CompositeMarkHookEEEvPcjjNS_15TinyBloomFilterImEES5_RT0_ENKUlPvE_clES8_
_ZZN3JSC17ConservativeRoots17genericAddPointerILb1ENS_17CompositeMarkHookEEEvPcjjNS_15TinyBloomFilterImEES5_RT0_ENKUlPvE_clES8_
_ZN3WTF11OSAllocator19tryReserveAndCommitEmNS0_5UsageEPvbbbj
_ZN3WTF11OSAllocator23tryReserveAndCommitImplEmNS0_5UsageEPvbbbjb
_ZN3WTF11OSAllocator21tryReserveUncommittedEmNS0_5UsageEPvbbbj
jit_heap_config_specialized_local_allocator_try_allocate_slow
jit_heap_config_specialized_try_allocate_common_impl_slow
jit_heap_config_specialized_try_deallocate_not_small_exclusive_segregated
page_provider
jit_heap_config_add_fresh_memory
fresh_memory_aligned_allocator
pas_allocation_result_zero_large_slow
pas_baseline_allocator_table_initialize_if_necessary
_ZZN3JSC11SlotVisitor26performIncrementOfDrainingEmENK3$_2clERNS_14MarkStackArrayE
_ZN3WTF11PrintStream9printImplINS_15PointerListDumpIN3JSC14MarkStackArrayEEEJA14_cS5_A2_cEEEvRKT_DpRKT0_
_ZN3WTF11PrintStream10atomicallyIZNS0_5printIJA3_cNS_10FormatImplIJPKcdEEEA4_cS8_S7_A2_cS8_S7_S9_EEEvDpRKT_EUlRS0_E_EEvRKT_
_ZN3JSC20StopIfNecessaryTimerC1ERNS_2VME
_ZN3JSC20StopIfNecessaryTimerC2ERNS_2VME
_ZN3JSC20StopIfNecessaryTimer6doWorkERNS_2VME
_ZN3JSC20StopIfNecessaryTimer12scheduleSoonEv
_ZN3JSC20StopIfNecessaryTimer7disableEv
_ZN3JSC31StructureAlignedMemoryAllocatorC1Ev
_ZN3JSC31StructureAlignedMemoryAllocatorC2Ev
_ZNK3JSC31StructureAlignedMemoryAllocator4dumpERN3WTF11PrintStreamE
_ZN3JSC31StructureAlignedMemoryAllocator19tryReallocateMemoryEPvm
_ZN3JSC31StructureAlignedMemoryAllocator24tryAllocateAlignedMemoryEmm
_ZN3JSC22StructureMemoryManager23tryMallocStructureBlockEv
_ZN3JSC31StructureAlignedMemoryAllocator17freeAlignedMemoryEPv
_ZN3JSC22StructureMemoryManager18freeStructureBlockEPv
_ZN3JSC31StructureAlignedMemoryAllocator31initializeStructureAddressSpaceEv
_ZN3JSC22StructureMemoryManager44computePreferredStructureHeapReservationSizeEv
_ZN3JSC8SubspaceC1ENS_12SubspaceKindEN3WTF7CStringERNS_4HeapE
_ZN3JSC8SubspaceC2ENS_12SubspaceKindEN3WTF7CStringERNS_4HeapE
_ZN3JSC8Subspace10initializeERKNS_12HeapCellTypeEPNS_22AlignedMemoryAllocatorE
_ZN3JSC8SubspaceD1Ev
_ZN3JSC8SubspaceD2Ev
_ZN3JSC8SubspaceD0Ev
_ZN3JSC8Subspace11finishSweepERNS_11MarkedBlock6HandleEPNS_8FreeListE
_ZN3JSC8Subspace7destroyERNS_2VMEPNS_6JSCellE
_ZN3JSC8Subspace20prepareForAllocationEv
_ZN3JSC8Subspace21findEmptyBlockToStealEv
_ZN3JSC8Subspace33parallelNotEmptyMarkedBlockSourceEv
_ZN3JSC8Subspace11sweepBlocksEv
_ZN3JSC39SynchronousStopTheWorldMutatorSchedulerC1Ev
_ZN3JSC39SynchronousStopTheWorldMutatorSchedulerC2Ev
_ZN3JSC39SynchronousStopTheWorldMutatorScheduler15beginCollectionEv
_ZN3JSC39SynchronousStopTheWorldMutatorScheduler10timeToStopEv
_ZN3JSC39SynchronousStopTheWorldMutatorScheduler12timeToResumeEv
_ZN3JSC39SynchronousStopTheWorldMutatorScheduler13endCollectionEv
_ZN3JSC19VerifierSlotVisitor15MarkedBlockData13addMarkerDataEjONS0_10MarkerDataE
_ZN3JSC19VerifierSlotVisitorC1ERNS_4HeapE
_ZN3JSC19VerifierSlotVisitorC2ERNS_4HeapE
_ZN3JSC9WeakBlock5visitERNS_11SlotVisitorE
_ZN3JSC9WeakBlock4reapEv
_ZNK3WTF9BitVector7findBitEmb
_ZN3WTF9BitVector3setEm
_ZN3WTF9BitVector10quickClearEm
_ZZN3JSC8Subspace23parallelDirectorySourceEvEN4Task3runEv
_ZN3WTF9HashTableIPN3JSC11MarkedBlockENS_12KeyValuePairIS3_St10unique_ptrINS1_19VerifierSlotVisitor15MarkedBlockDataESt14default_deleteIS7_EEEENS_24KeyValuePairKeyExtractorISB_EENS_11DefaultHashIS3_EENS_7HashMapIS3_SA_SF_NS_10HashTraitsIS3_EENSH_ISA_EENS_15HashTableTraitsELNS_17ShouldValidateKeyE0ENS_10FastMallocEE18KeyValuePairTraitsESI_SM_E15deallocateTableEPSB_
_ZN3JSC22StructureMemoryManagerC2Ev
_ZZNSt9once_flag18_Prepare_executionC1IZSt9call_onceIZN3JSC22StructureMemoryManager44computePreferredStructureHeapReservationSizeEvE3$_0JEEvRS_OT_DpOT0_EUlvE_EERS7_ENUlvE_8__invokeEv
_ZN3JSC21ParallelSourceAdapterIPNS_14BlockDirectoryEPNS_11MarkedBlock6HandleEZNS_8Subspace33parallelNotEmptyMarkedBlockSourceEvE3$_0ED2Ev
_ZN3JSC21ParallelSourceAdapterIPNS_14BlockDirectoryEPNS_11MarkedBlock6HandleEZNS_8Subspace33parallelNotEmptyMarkedBlockSourceEvE3$_0ED0Ev
_ZN3JSC21ParallelSourceAdapterIPNS_14BlockDirectoryEPNS_11MarkedBlock6HandleEZNS_8Subspace33parallelNotEmptyMarkedBlockSourceEvE3$_0E3runEv
_ZN3WTF6VectorIN3JSC19VerifierSlotVisitor10MarkerDataELm0ENS_15CrashOnOverflowELm16ENS_10FastMallocEE14expandCapacityILNS_13FailureActionE0EEEbm
_ZN3WTF5DequeINS_6RefPtrINS_10SharedTaskIFvRN3JSC19AbstractSlotVisitorEEEENS_12RawPtrTraitsIS7_EENS_21DefaultRefDerefTraitsIS7_EEEELm32EE10destroyAllEv
_ZN3WTF5DequeINS_6RefPtrINS_10SharedTaskIFvRN3JSC19AbstractSlotVisitorEEEENS_12RawPtrTraitsIS7_EENS_21DefaultRefDerefTraitsIS7_EEEELm32EE14expandCapacityEv
_ZN3WTF9HashTableIPvNS_12KeyValuePairIS1_St10unique_ptrIN3JSC19VerifierSlotVisitor14OpaqueRootDataESt14default_deleteIS6_EEEENS_24KeyValuePairKeyExtractorISA_EENS_11DefaultHashIS1_EENS_7HashMapIS1_S9_SE_NS_10HashTraitsIS1_EENSG_IS9_EENS_15HashTableTraitsELNS_17ShouldValidateKeyE0ENS_10FastMallocEE18KeyValuePairTraitsESH_SL_E3addINS_17HashMapTranslatorISN_SE_EELSK_0ERKS1_TkSt9invocableZNSM_9inlineAddIST_DnEENS_18HashTableAddResultINS_17HashTableIteratorISO_S1_SA_SC_SE_SN_SH_EEEEOT_OT0_EUlvE_EESY_OT1_RKT2_
_ZN3WTF11OSAllocator28tryReserveUncommittedAlignedEmmNS0_5UsageEPvbbbj
_ZN3WTF11OSAllocator18releaseDecommittedEPvmj
_ZN3WTF11OSAllocator16reserveAndCommitEmNS0_5UsageEPvbbbj
_ZN3WTF11OSAllocator6commitEPvmbb
_ZN3WTF11OSAllocator8decommitEPvm
_ZN3WTF11OSAllocator7protectEPvmbb
_ZN3WTF9dataLogLnIJA18_cPKcEEEvDpRKT_
_ZN3WTF11OSAllocator8zeroFillEPvm
_ZN3WTF12safeStrerrorEi
_ZN3JSC22FullGCActivityCallbackC1ERNS_4HeapENS_15SynchronousnessE
_ZN3JSC22FullGCActivityCallbackC2ERNS_4HeapENS_15SynchronousnessE
_ZN3JSC18GCActivityCallbackC2ERNS_4HeapENS_15SynchronousnessE
_ZN3JSC18GCActivityCallbackD1Ev
_ZN3JSC18GCActivityCallbackD2Ev
_ZN3JSC22FullGCActivityCallbackD1Ev
_ZN3JSC22FullGCActivityCallbackD2Ev
_ZN3JSC22FullGCActivityCallback12doCollectionERNS_2VME
_ZN3WTF16fastZeroedMallocEm
_ZN3WTF19tryFastZeroedMallocEm
_ZN3WTF11fastReallocEPvm
_ZN3WTF8fastFreeEPv
_ZN3WTF17fastAlignedMallocEmm
_ZN3JSC5IPInt10initializeEv
_ZN3JSC5IPInt20verifyInitializationEv
_ZN3JSC5LLInt10initializeEv
_ZN3JSC5LLInt11defaultCallEv
_ZN3JSC5LLInt10arityFixupEv
_ZN3JSC5LLInt32getHostCallReturnValueEntrypointEv
_ZN3JSC5LLInt39fuzzerReturnEarlyFromLoopHintEntrypointEv
_ZN3JSC5LLInt13setEntrypointEPNS_9CodeBlockE
llintPCRangeStart
vmEntryToJavaScript
llint_call_javascript
vmEntryToJavaScriptWith0Arguments
vmEntryToJavaScriptWith1Arguments
vmEntryToJavaScriptWith2Arguments
vmEntryToJavaScriptWith3Arguments
vmEntryToJavaScriptWith4Arguments
vmEntryToJavaScriptWith5Arguments
vmEntryToJavaScriptWith6Arguments
vmEntryToNative
vmEntryToYarrJIT
vmEntryCustomGetter
vmEntryCustomSetter
vmEntryHostFunction
sanitizeStackForVMImpl
vmEntryRecord
llint_entry
llint_op_wide16
llint_op_wide32
llint_op_wide16_wide16
llint_op_wide16_wide32
llint_op_wide32_wide16
llint_op_wide32_wide32
llint_op_enter_wide16
llint_op_enter_wide32
llint_program_prologue
_ZZNSt9once_flag18_Prepare_executionC1IZSt9call_onceIZN3JSC5LLInt35functionForConstructArityCheckThunkEvE3$_0JEEvRS_OT_DpOT0_EUlvE_EERS7_ENUlvE_8__invokeEv
_ZZNSt9once_flag18_Prepare_executionC1IZSt9call_onceIZN3JSC5LLInt14evalEntryThunkEvE3$_0JEEvRS_OT_DpOT0_EUlvE_EERS7_ENUlvE_8__invokeEv
_ZZNSt9once_flag18_Prepare_executionC1IZSt9call_onceIZN3JSC5LLInt17programEntryThunkEvE3$_0JEEvRS_OT_DpOT0_EUlvE_EERS7_ENUlvE_8__invokeEv
_ZZNSt9once_flag18_Prepare_executionC1IZSt9call_onceIZN3JSC5LLInt23moduleProgramEntryThunkEvE3$_0JEEvRS_OT_DpOT0_EUlvE_EERS7_ENUlvE_8__invokeEv
_ZZNSt9once_flag18_Prepare_executionC1IZSt9call_onceIZN3JSC5LLInt16defaultCallThunkEvE3$_0JEEvRS_OT_DpOT0_EUlvE_EERS7_ENUlvE_8__invokeEv
_ZN3JSC10LinkBuffer21dumpProfileStatisticsESt8optionalIPN3WTF11PrintStreamEE
_ZSt16__introsort_loopIPZN3JSC10LinkBuffer21dumpProfileStatisticsESt8optionalIPN3WTF11PrintStreamEEE4StatlN9__gnu_cxx5__ops15_Iter_comp_iterIZNS1_21dumpProfileStatisticsES6_E3$_0EEEvT_SE_T0_T1_
_ZN3WTF11PrintStream10atomicallyIZNS0_5printIJA3_cA21_cS3_mS3_dA2_cPKcS5_EEEvDpRKT_EUlRS0_E_EEvRKT_
_ZZNSt9once_flag18_Prepare_executionC1IZSt9call_onceIZN3JSC26AbstractMacroAssemblerBase16initializeRandomEvE3$_0JEEvRS_OT_DpOT0_EUlvE_EERS7_ENUlvE_8__invokeEv
_ZZNSt9once_flag18_Prepare_executionC1IZSt9call_onceIZN3JSC27threadSpecificAssemblerDataEvE3$_0JEEvRS_OT_DpOT0_EUlvE_EERS6_ENUlvE_8__invokeEv
_ZN3WTF14ThreadSpecificIN3JSC17AssemblerDataImplILNS1_17AssemblerDataTypeE0EEELNS_13CanBeGCThreadE1EE7destroyEPv
_ZN3JSC15AssemblyHelpersC2EPNS_9CodeBlockE
_ZN3WTF14ThreadSpecificIN3JSC17AssemblerDataImplILNS1_17AssemblerDataTypeE0EEELNS_13CanBeGCThreadE1EEcvPS4_Ev
_ZN3JSC20MacroAssemblerX86_644or64ENS_12X86Registers10RegisterIDES2_S2_
_ZN3JSC20MacroAssemblerX86_644or64ENS_22AbstractMacroAssemblerINS_12X86AssemblerEE12TrustedImm64ENS_12X86Registers10RegisterIDE
_ZN3JSC12X86Assembler6orq_irEiNS_12X86Registers10RegisterIDE
_ZN3JSC12X86Assembler23X86InstructionFormatter9twoByteOpENS0_15TwoByteOpcodeIDEiNS_12X86Registers10RegisterIDEi
_ZN3JSC12X86Assembler7andl_irEiNS_12X86Registers10RegisterIDE
_ZN3JSC20MacroAssemblerX86_648branch32ENS0_19RelationalConditionENS_22AbstractMacroAssemblerINS_12X86AssemblerEE7AddressENS4_12TrustedImm32E
_ZN3JSC10LinkBuffer27finalizeCodeWithDisassemblyILN3WTF6PtrTagE0EJPKcEEENS_21MacroAssemblerCodeRefIXT_EEEbNS2_12ASCIILiteralES5_DpT0_
_ZN3JSC10LinkBuffer27finalizeCodeWithDisassemblyILN3WTF6PtrTagE10924EJPKcEEENS_21MacroAssemblerCodeRefIXT_EEEbNS2_12ASCIILiteralES5_DpT0_
_ZN3JSC10LinkBuffer27finalizeCodeWithDisassemblyILN3WTF6PtrTagE26129EJPKcEEENS_21MacroAssemblerCodeRefIXT_EEEbNS2_12ASCIILiteralES5_DpT0_
_ZN3JSC10LinkBuffer27finalizeCodeWithDisassemblyILN3WTF6PtrTagE357EJPKcEEENS_21MacroAssemblerCodeRefIXT_EEEbNS2_12ASCIILiteralES5_DpT0_
_ZN3JSC10LinkBuffer27finalizeCodeWithDisassemblyILN3WTF6PtrTagE49594EJPKcEEENS_21MacroAssemblerCodeRefIXT_EEEbNS2_12ASCIILiteralES5_DpT0_
_ZN3JSC20MacroAssemblerX86_647store64ENS_12X86Registers10RegisterIDEPv
_ZN3JSC12CCallHelpers16shuffleRegistersINS_12X86Registers10RegisterIDELj1EEEvSt5arrayIT_XT0_EES6_
_ZN3WTF6VectorIN3JSC12CCallHelpers13ShuffleStatusELm1ENS_15CrashOnOverflowELm16ENS_10FastMallocEE4fillERKS3_m
_ZN3WTF17SharedTaskFunctorIFvRN3JSC10LinkBufferEEZNKS1_22AbstractMacroAssemblerINS1_12X86AssemblerEE4Jump9linkThunkILNS_6PtrTagE0EEEvNS1_17CodeLocationLabelIXT_EEEPS7_EUlRT_E_E3runES3_
_ZN3WTF17SharedTaskFunctorIFvRN3JSC10LinkBufferEEZNKS1_22AbstractMacroAssemblerINS1_12X86AssemblerEE4Jump9linkThunkILNS_6PtrTagE10924EEEvNS1_17CodeLocationLabelIXT_EEEPS7_EUlRT_E_E3runES3_
_ZN3WTF17SharedTaskFunctorIFvRN3JSC10LinkBufferEEZNKS1_22AbstractMacroAssemblerINS1_12X86AssemblerEE4Jump9linkThunkILNS_6PtrTagE26129EEEvNS1_17CodeLocationLabelIXT_EEEPS7_EUlRT_E_E3runES3_
_ZN3WTF17SharedTaskFunctorIFvRN3JSC10LinkBufferEEZNKS1_22AbstractMacroAssemblerINS1_12X86AssemblerEE4Jump9linkThunkILNS_6PtrTagE26432EEEvNS1_17CodeLocationLabelIXT_EEEPS7_EUlRT_E_E3runES3_
_ZN3WTF17SharedTaskFunctorIFvRN3JSC10LinkBufferEEZNKS1_22AbstractMacroAssemblerINS1_12X86AssemblerEE4Jump9linkThunkILNS_6PtrTagE49594EEEvNS1_17CodeLocationLabelIXT_EEEPS7_EUlRT_E_E3runES3_
_ZN3JSC10LinkBuffer27finalizeCodeWithDisassemblyILN3WTF6PtrTagE0EJEEENS_21MacroAssemblerCodeRefIXT_EEEbNS2_12ASCIILiteralEPKcDpT0_
_ZN3JSC10LinkBuffer27finalizeCodeWithDisassemblyILN3WTF6PtrTagE26129EJEEENS_21MacroAssemblerCodeRefIXT_EEEbNS2_12ASCIILiteralEPKcDpT0_
_ZN3JSC10LinkBuffer27finalizeCodeWithDisassemblyILN3WTF6PtrTagE357EJEEENS_21MacroAssemblerCodeRefIXT_EEEbNS2_12ASCIILiteralEPKcDpT0_
_ZN3JSC10LinkBuffer27finalizeCodeWithDisassemblyILN3WTF6PtrTagE38072EJEEENS_21MacroAssemblerCodeRefIXT_EEEbNS2_12ASCIILiteralEPKcDpT0_
_ZN3JSC10LinkBuffer27finalizeCodeWithDisassemblyILN3WTF6PtrTagE40109EJEEENS_21MacroAssemblerCodeRefIXT_EEEbNS2_12ASCIILiteralEPKcDpT0_
_ZN3JSC10LinkBuffer27finalizeCodeWithDisassemblyILN3WTF6PtrTagE49594EJEEENS_21MacroAssemblerCodeRefIXT_EEEbNS2_12ASCIILiteralEPKcDpT0_
_ZN3JSC10LinkBuffer27finalizeCodeWithDisassemblyILN3WTF6PtrTagE50227EJEEENS_21MacroAssemblerCodeRefIXT_EEEbNS2_12ASCIILiteralEPKcDpT0_
_ZN3JSC10LinkBuffer27finalizeCodeWithDisassemblyILN3WTF6PtrTagE57659EJEEENS_21MacroAssemblerCodeRefIXT_EEEbNS2_12ASCIILiteralEPKcDpT0_
_ZN3JSC12CCallHelpers16shuffleRegistersINS_12X86Registers10RegisterIDELj3EEEvSt5arrayIT_XT0_EES6_
_ZN3JSC20MacroAssemblerX86_6413callOperationILN3WTF6PtrTagE12563EEEvNS2_7CodePtrIXT_ELNS2_18FunctionAttributesE0EEE
_ZN3JSC20MacroAssemblerX86_6413callOperationILN3WTF6PtrTagE59118EEEvNS2_7CodePtrIXT_ELNS2_18FunctionAttributesE0EEE
_ZN3JSC20MacroAssemblerX86_6413callOperationILN3WTF6PtrTagE64323EEEvNS2_7CodePtrIXT_ELNS2_18FunctionAttributesE0EEE
_ZN3JSC12CCallHelpers16shuffleRegistersINS_12X86Registers10RegisterIDELj2EEEvSt5arrayIT_XT0_EES6_
_ZN3WTF6VectorIN3JSC12CCallHelpers13ShuffleStatusELm2ENS_15CrashOnOverflowELm16ENS_10FastMallocEE4fillERKS3_m
_ZN3JSC12CCallHelpers15emitShuffleMoveINS_12X86Registers10RegisterIDELm1ESt4pairIS3_S3_EEEvRN3WTF6VectorIT1_XT0_ENS6_15CrashOnOverflowELm16ENS6_10FastMallocEEERNS7_INS0_13ShuffleStatusEXT0_ES9_Lm16ESA_EEjT_
_ZN3JSC12CCallHelpers15emitShuffleMoveINS_12X86Registers10RegisterIDELm2ESt4pairIS3_S3_EEEvRN3WTF6VectorIT1_XT0_ENS6_15CrashOnOverflowELm16ENS6_10FastMallocEEERNS7_INS0_13ShuffleStatusEXT0_ES9_Lm16ESA_EEjT_
_ZN3JSC12CCallHelpers15emitShuffleMoveINS_12X86Registers10RegisterIDELm3ESt4pairIS3_S3_EEEvRN3WTF6VectorIT1_XT0_ENS6_15CrashOnOverflowELm16ENS6_10FastMallocEEERNS7_INS0_13ShuffleStatusEXT0_ES9_Lm16ESA_EEjT_
_ZN3JSC12CCallHelpers15emitShuffleMoveINS_12X86Registers10RegisterIDELm4ESt4pairIS3_S3_EEEvRN3WTF6VectorIT1_XT0_ENS6_15CrashOnOverflowELm16ENS6_10FastMallocEEERNS7_INS0_13ShuffleStatusEXT0_ES9_Lm16ESA_EEjT_
_ZN3JSC12CCallHelpers15emitShuffleMoveINS_12X86Registers10RegisterIDELm5ESt4pairIS3_S3_EEEvRN3WTF6VectorIT1_XT0_ENS6_15CrashOnOverflowELm16ENS6_10FastMallocEEERNS7_INS0_13ShuffleStatusEXT0_ES9_Lm16ESA_EEjT_
_ZN3WTF6VectorIN3JSC22AbstractMacroAssemblerINS1_12X86AssemblerEE4JumpELm2ENS_15CrashOnOverflowELm16ENS_10FastMallocEE14expandCapacityILNS_13FailureActionE0EEEPS5_mSB_
_ZN3WTF6VectorIN3JSC2B33Air3TmpELm2ENS_15CrashOnOverflowELm16ENS_10FastMallocEE14expandCapacityILNS_13FailureActionE0EEEPS4_mSA_
_ZN3WTF6VectorIN3JSC4Wasm10BBQJITImpl6BBQJIT8LocationELm2ENS_15CrashOnOverflowELm16ENS_10FastMallocEE14expandCapacityILNS_13FailureActionE0EEEPS5_mSB_
_ZN3WTF6VectorIN3JSC22AbstractMacroAssemblerINS1_12X86AssemblerEE4JumpELm2ENS_15CrashOnOverflowELm16ENS_10FastMallocEE15reserveCapacityILNS_13FailureActionE0EEEbm
_ZN3WTF6VectorIN3JSC2B33Air3TmpELm2ENS_15CrashOnOverflowELm16ENS_10FastMallocEE15reserveCapacityILNS_13FailureActionE0EEEbm
_ZN3WTF6VectorIN3JSC4Wasm10BBQJITImpl6BBQJIT8LocationELm2ENS_15CrashOnOverflowELm16ENS_10FastMallocEE15reserveCapacityILNS_13FailureActionE0EEEbm
_ZN3JSC15AssemblyHelpers13branchIfInt32ENS_12X86Registers10RegisterIDENS_16TagRegistersModeE
_ZN3JSC5LLIntL23generateThunkWithJumpToILN3WTF6PtrTagE10924EEENS_21MacroAssemblerCodeRefIXT_EEEPFvvEPKc
_ZZNSt9once_flag18_Prepare_executionC1IZSt9call_onceIZN3JSC5LLInt28handleUncaughtExceptionThunkEvE3$_0JEEvRS_OT_DpOT0_EUlvE_EERS7_ENUlvE_8__invokeEv
_ZZNSt9once_flag18_Prepare_executionC1IZSt9call_onceIZN3JSC5LLInt16handleCatchThunkENS3_10OpcodeSizeEE3$_0JEEvRS_OT_DpOT0_EUlvE_EERS8_ENUlvE_8__invokeEv
_ZZNSt9once_flag18_Prepare_executionC1IZSt9call_onceIZN3JSC5LLInt16handleCatchThunkENS3_10OpcodeSizeEE3$_1JEEvRS_OT_DpOT0_EUlvE_EERS8_ENUlvE_8__invokeEv
_ZZNSt9once_flag18_Prepare_executionC1IZSt9call_onceIZN3JSC5LLInt16handleCatchThunkENS3_10OpcodeSizeEE3$_2JEEvRS_OT_DpOT0_EUlvE_EERS8_ENUlvE_8__invokeEv
_ZZNSt9once_flag18_Prepare_executionC1IZSt9call_onceIZN3JSC5LLInt23genericReturnPointThunkENS3_10OpcodeSizeEE3$_0JEEvRS_OT_DpOT0_EUlvE_EERS8_ENUlvE_8__invokeEv
_ZN3JSC5LLIntL39generateThunkWithJumpToLLIntReturnPointILN3WTF6PtrTagE357EEENS_21MacroAssemblerCodeRefIXT_EEEPFvvEPKc
_ZN3WTF17ScopedPrintStream7vprintfEPKcP13__va_list_tag
_ZN3WTF17ScopedPrintStreamD2Ev
_ZN3JSC10LinkBuffer8linkCodeERNS_14MacroAssemblerENS_20JITCompilationEffortE
_ZN3JSC10LinkBuffer8allocateERNS_14MacroAssemblerENS_20JITCompilationEffortE
_ZN3JSC16performJITMemcpyIXtlN3WTF18ConstexprOptionSetINS_14RepatchingFlagEEEEEEEPvS5_PKvm
_ZN3JSC10LinkBuffer12linkCommentsERNS_14MacroAssemblerE
_ZN3JSC10LinkBuffer10locationOfILN3WTF6PtrTagE3123EEENS_17CodeLocationLabelIXT_EEENS_22AbstractMacroAssemblerINS_12X86AssemblerEE5LabelE
_ZN3WTF7HashMapImNS_6StringENS_11DefaultHashImEENS_10HashTraitsImEENS4_IS1_EENS_15HashTableTraitsELNS_17ShouldValidateKeyE0ENS_10FastMallocEE6ensureITkNS_9InvocableIFNT3_9TraitTypeEvEEEZN3JSC10LinkBuffer12linkCommentsERNSG_14MacroAssemblerEE3$_0EENS_18HashTableAddResultINS_17HashTableIteratorINS_9HashTableImNS_12KeyValuePairImS1_EENS_24KeyValuePairKeyExtractorISP_EES3_NSA_18KeyValuePairTraitsES5_S9_EEmSP_SR_S3_SS_S5_EEEERKmRKT_
tagged_bmalloc_heap_config_specialized_local_allocator_try_allocate_slow
tagged_bmalloc_heap_config_specialized_try_allocate_common_impl_slow
tagged_bmalloc_heap_config_specialized_try_deallocate_not_small_exclusive_segregated
bmalloc_type_try_name_dump
bmalloc_type_as_heap_type_dump
jit_type_dump
jit_heap_config_activate
jit_type_size
jit_type_alignment
jit_small_page_header_for_boundary
jit_prepare_to_enumerate
jit_heap_config_specialized_local_allocator_try_allocate_small_segregated_slow
jit_heap_config_specialized_local_allocator_try_allocate_medium_segregated_with_free_bits
jit_heap_config_specialized_local_allocator_try_allocate_inline_cases
_ZN3JSC19InlineCacheCompiler20tryFoldToMegamorphicISt4spanIKN3WTF3RefINS_10AccessCaseENS3_12RawPtrTraitsIS5_EENS3_21DefaultRefDerefTraitsIS5_EEEELm18446744073709551615EEEENS3_6RefPtrIS5_S7_S9_EEPNS_9CodeBlockERKT_
_ZN3JSCL15needsScratchFPRENS_10AccessCase10AccessTypeE
_ZN3JSC15AssemblyHelpers16branchIfNotInt32ENS_12X86Registers10RegisterIDENS_16TagRegistersModeE
_ZNK3JSC22AbstractMacroAssemblerINS_12X86AssemblerEE8JumpList9linkThunkILN3WTF6PtrTagE0EEEvNS_17CodeLocationLabelIXT_EEEPS2_
_ZNK3JSC22AbstractMacroAssemblerINS_12X86AssemblerEE8JumpList9linkThunkILN3WTF6PtrTagE10924EEEvNS_17CodeLocationLabelIXT_EEEPS2_
_ZNK3JSC22AbstractMacroAssemblerINS_12X86AssemblerEE8JumpList9linkThunkILN3WTF6PtrTagE26129EEEvNS_17CodeLocationLabelIXT_EEEPS2_
_ZNK3JSC22AbstractMacroAssemblerINS_12X86AssemblerEE8JumpList9linkThunkILN3WTF6PtrTagE26432EEEvNS_17CodeLocationLabelIXT_EEEPS2_
_ZNK3JSC22AbstractMacroAssemblerINS_12X86AssemblerEE8JumpList9linkThunkILN3WTF6PtrTagE49594EEEvNS_17CodeLocationLabelIXT_EEEPS2_
_ZN3JSC10LinkBufferD2Ev
_ZN3JSC29getByIdLoadOwnPropertyHandlerERNS_2VME
_ZN3JSC22AbstractMacroAssemblerINS_12X86AssemblerEED2Ev
_ZN3JSC20MacroAssemblerX86_645and32ENS_22AbstractMacroAssemblerINS_12X86AssemblerEE12TrustedImm32ENS_12X86Registers10RegisterIDE
_ZN3JSC12InlineAccess26generateSelfPropertyAccessERNS_19PropertyInlineCacheEPNS_9StructureEi
_ZN3JSCL14linkCodeInlineEPKcRNS_12CCallHelpersERNS_29RepatchingPropertyInlineCacheE
_ZN3JSC12InlineAccess30canGenerateSelfPropertyReplaceERNS_19PropertyInlineCacheEi
_ZN3JSC12InlineAccess27generateSelfPropertyReplaceERNS_19PropertyInlineCacheEPNS_9StructureEi
_ZN3JSCL18getScratchRegisterERNS_19PropertyInlineCacheE
_ZN3JSC12InlineAccess22isCacheableArrayLengthERNS_19PropertyInlineCacheEPNS_7JSArrayE
_ZN3JSC12InlineAccess19generateArrayLengthERNS_19PropertyInlineCacheEPNS_7JSArrayE
_ZN3JSC12InlineAccess23isCacheableStringLengthERNS_19PropertyInlineCacheE
_ZN3JSC12InlineAccess20generateStringLengthERNS_19PropertyInlineCacheE
_ZN3JSC20MacroAssemblerX86_647farJumpENS_22AbstractMacroAssemblerINS_12X86AssemblerEE13TrustedImmPtrEN3WTF6PtrTagE
_ZZNSt9once_flag18_Prepare_executionC1IZSt9call_onceIZN3JSC5LLInt23genericReturnPointThunkENS3_10OpcodeSizeEE3$_1JEEvRS_OT_DpOT0_EUlvE_EERS8_ENUlvE_8__invokeEv
_ZZNSt9once_flag18_Prepare_executionC1IZSt9call_onceIZN3JSC5LLInt23genericReturnPointThunkENS3_10OpcodeSizeEE3$_2JEEvRS_OT_DpOT0_EUlvE_EERS8_ENUlvE_8__invokeEv
_ZZNSt9once_flag18_Prepare_executionC1IZSt9call_onceIZN3JSC5LLInt34fuzzerReturnEarlyFromLoopHintThunkEvE3$_0JEEvRS_OT_DpOT0_EUlvE_EERS7_ENUlvE_8__invokeEv
_ZZNSt9once_flag18_Prepare_executionC1IZSt9call_onceIZN3JSC5LLInt15arityFixupThunkEvE3$_0JEEvRS_OT_DpOT0_EUlvE_EERS7_ENUlvE_8__invokeEv
_ZZNSt9once_flag18_Prepare_executionC1IZSt9call_onceIZN3JSC5LLInt28normalOSRExitTrampolineThunkEvE3$_0JEEvRS_OT_DpOT0_EUlvE_EERS7_ENUlvE_8__invokeEv
_ZZNSt9once_flag18_Prepare_executionC1IZSt9call_onceIZN3JSC5LLInt32checkpointOSRExitTrampolineThunkEvE3$_0JEEvRS_OT_DpOT0_EUlvE_EERS7_ENUlvE_8__invokeEv
_ZZNSt9once_flag18_Prepare_executionC1IZSt9call_onceIZN3JSC5LLInt47checkpointOSRExitFromInlinedCallTrampolineThunkEvE3$_0JEEvRS_OT_DpOT0_EUlvE_EERS7_ENUlvE_8__invokeEv
_ZZNSt9once_flag18_Prepare_executionC1IZSt9call_onceIZN3JSC5LLInt40arraySortComparatorReturnTrampolineThunkEvE3$_0JEEvRS_OT_DpOT0_EUlvE_EERS7_ENUlvE_8__invokeEv
_ZZNSt9once_flag18_Prepare_executionC1IZSt9call_onceIZN3JSC5LLInt19returnLocationThunkENS3_8OpcodeIDENS3_10OpcodeSizeEE3$_0JEEvRS_OT_DpOT0_EUlvE_EERS9_ENUlvE_8__invokeEv
_ZZNSt9once_flag18_Prepare_executionC1IZSt9call_onceIZN3JSC5LLInt19returnLocationThunkENS3_8OpcodeIDENS3_10OpcodeSizeEE3$_1JEEvRS_OT_DpOT0_EUlvE_EERS9_ENUlvE_8__invokeEv
_ZZNSt9once_flag18_Prepare_executionC1IZSt9call_onceIZN3JSC5LLInt19returnLocationThunkENS3_8OpcodeIDENS3_10OpcodeSizeEE3$_2JEEvRS_OT_DpOT0_EUlvE_EERS9_ENUlvE_8__invokeEv
_ZZNSt9once_flag18_Prepare_executionC1IZSt9call_onceIZN3JSC5LLInt19returnLocationThunkENS3_8OpcodeIDENS3_10OpcodeSizeEE3$_3JEEvRS_OT_DpOT0_EUlvE_EERS9_ENUlvE_8__invokeEv
_ZZNSt9once_flag18_Prepare_executionC1IZSt9call_onceIZN3JSC5LLInt19returnLocationThunkENS3_8OpcodeIDENS3_10OpcodeSizeEE3$_4JEEvRS_OT_DpOT0_EUlvE_EERS9_ENUlvE_8__invokeEv
_ZZNSt9once_flag18_Prepare_executionC1IZSt9call_onceIZN3JSC5LLInt19returnLocationThunkENS3_8OpcodeIDENS3_10OpcodeSizeEE3$_5JEEvRS_OT_DpOT0_EUlvE_EERS9_ENUlvE_8__invokeEv
_ZZNSt9once_flag18_Prepare_executionC1IZSt9call_onceIZN3JSC5LLInt19returnLocationThunkENS3_8OpcodeIDENS3_10OpcodeSizeEE3$_6JEEvRS_OT_DpOT0_EUlvE_EERS9_ENUlvE_8__invokeEv
_ZZNSt9once_flag18_Prepare_executionC1IZSt9call_onceIZN3JSC5LLInt19returnLocationThunkENS3_8OpcodeIDENS3_10OpcodeSizeEE3$_7JEEvRS_OT_DpOT0_EUlvE_EERS9_ENUlvE_8__invokeEv
_ZZNSt9once_flag18_Prepare_executionC1IZSt9call_onceIZN3JSC5LLInt19returnLocationThunkENS3_8OpcodeIDENS3_10OpcodeSizeEE3$_8JEEvRS_OT_DpOT0_EUlvE_EERS9_ENUlvE_8__invokeEv
_ZZNSt9once_flag18_Prepare_executionC1IZSt9call_onceIZN3JSC5LLInt19returnLocationThunkENS3_8OpcodeIDENS3_10OpcodeSizeEE3$_9JEEvRS_OT_DpOT0_EUlvE_EERS9_ENUlvE_8__invokeEv
_ZZNSt9once_flag18_Prepare_executionC1IZSt9call_onceIZN3JSC5LLInt19returnLocationThunkENS3_8OpcodeIDENS3_10OpcodeSizeEE4$_10JEEvRS_OT_DpOT0_EUlvE_EERS9_ENUlvE_8__invokeEv
_ZZNSt9once_flag18_Prepare_executionC1IZSt9call_onceIZN3JSC5LLInt19returnLocationThunkENS3_8OpcodeIDENS3_10OpcodeSizeEE4$_11JEEvRS_OT_DpOT0_EUlvE_EERS9_ENUlvE_8__invokeEv
_ZZNSt9once_flag18_Prepare_executionC1IZSt9call_onceIZN3JSC5LLInt19returnLocationThunkENS3_8OpcodeIDENS3_10OpcodeSizeEE4$_12JEEvRS_OT_DpOT0_EUlvE_EERS9_ENUlvE_8__invokeEv
_ZZNSt9once_flag18_Prepare_executionC1IZSt9call_onceIZN3JSC5LLInt19returnLocationThunkENS3_8OpcodeIDENS3_10OpcodeSizeEE4$_13JEEvRS_OT_DpOT0_EUlvE_EERS9_ENUlvE_8__invokeEv
_ZZNSt9once_flag18_Prepare_executionC1IZSt9call_onceIZN3JSC5LLInt19returnLocationThunkENS3_8OpcodeIDENS3_10OpcodeSizeEE4$_14JEEvRS_OT_DpOT0_EUlvE_EERS9_ENUlvE_8__invokeEv
_ZZNSt9once_flag18_Prepare_executionC1IZSt9call_onceIZN3JSC5LLInt19returnLocationThunkENS3_8OpcodeIDENS3_10OpcodeSizeEE4$_15JEEvRS_OT_DpOT0_EUlvE_EERS9_ENUlvE_8__invokeEv
_ZZNSt9once_flag18_Prepare_executionC1IZSt9call_onceIZN3JSC5LLInt19returnLocationThunkENS3_8OpcodeIDENS3_10OpcodeSizeEE4$_16JEEvRS_OT_DpOT0_EUlvE_EERS9_ENUlvE_8__invokeEv
_ZZNSt9once_flag18_Prepare_executionC1IZSt9call_onceIZN3JSC5LLInt19returnLocationThunkENS3_8OpcodeIDENS3_10OpcodeSizeEE4$_17JEEvRS_OT_DpOT0_EUlvE_EERS9_ENUlvE_8__invokeEv
_ZZNSt9once_flag18_Prepare_executionC1IZSt9call_onceIZN3JSC5LLInt19returnLocationThunkENS3_8OpcodeIDENS3_10OpcodeSizeEE4$_18JEEvRS_OT_DpOT0_EUlvE_EERS9_ENUlvE_8__invokeEv
_ZZNSt9once_flag18_Prepare_executionC1IZSt9call_onceIZN3JSC5LLInt19returnLocationThunkENS3_8OpcodeIDENS3_10OpcodeSizeEE4$_19JEEvRS_OT_DpOT0_EUlvE_EERS9_ENUlvE_8__invokeEv
_ZZNSt9once_flag18_Prepare_executionC1IZSt9call_onceIZN3JSC5LLInt19returnLocationThunkENS3_8OpcodeIDENS3_10OpcodeSizeEE4$_20JEEvRS_OT_DpOT0_EUlvE_EERS9_ENUlvE_8__invokeEv
_ZZNSt9once_flag18_Prepare_executionC1IZSt9call_onceIZN3JSC5LLInt19returnLocationThunkENS3_8OpcodeIDENS3_10OpcodeSizeEE4$_21JEEvRS_OT_DpOT0_EUlvE_EERS9_ENUlvE_8__invokeEv
_ZZNSt9once_flag18_Prepare_executionC1IZSt9call_onceIZN3JSC5LLInt19returnLocationThunkENS3_8OpcodeIDENS3_10OpcodeSizeEE4$_22JEEvRS_OT_DpOT0_EUlvE_EERS9_ENUlvE_8__invokeEv
_ZZNSt9once_flag18_Prepare_executionC1IZSt9call_onceIZN3JSC5LLInt19returnLocationThunkENS3_8OpcodeIDENS3_10OpcodeSizeEE4$_23JEEvRS_OT_DpOT0_EUlvE_EERS9_ENUlvE_8__invokeEv
_ZZNSt9once_flag18_Prepare_executionC1IZSt9call_onceIZN3JSC5LLInt19returnLocationThunkENS3_8OpcodeIDENS3_10OpcodeSizeEE4$_24JEEvRS_OT_DpOT0_EUlvE_EERS9_ENUlvE_8__invokeEv
_ZZNSt9once_flag18_Prepare_executionC1IZSt9call_onceIZN3JSC5LLInt19returnLocationThunkENS3_8OpcodeIDENS3_10OpcodeSizeEE4$_25JEEvRS_OT_DpOT0_EUlvE_EERS9_ENUlvE_8__invokeEv
_ZZNSt9once_flag18_Prepare_executionC1IZSt9call_onceIZN3JSC5LLInt19returnLocationThunkENS3_8OpcodeIDENS3_10OpcodeSizeEE4$_26JEEvRS_OT_DpOT0_EUlvE_EERS9_ENUlvE_8__invokeEv
_ZZNSt9once_flag18_Prepare_executionC1IZSt9call_onceIZN3JSC5LLInt19returnLocationThunkENS3_8OpcodeIDENS3_10OpcodeSizeEE4$_27JEEvRS_OT_DpOT0_EUlvE_EERS9_ENUlvE_8__invokeEv
_ZZNSt9once_flag18_Prepare_executionC1IZSt9call_onceIZN3JSC5LLInt19returnLocationThunkENS3_8OpcodeIDENS3_10OpcodeSizeEE4$_28JEEvRS_OT_DpOT0_EUlvE_EERS9_ENUlvE_8__invokeEv
_ZN7WebCoreL49jsPerformanceServerTimingPrototypeFunction_toJSONEPN3JSC14JSGlobalObjectEPNS0_9CallFrameE
_ZN3JSC15AssemblerBuffer13outOfLineGrowEv
_ZN7WebCore24JSDOMConstructorCallableINS_14JSEventEmitterEE15createStructureERN3JSC2VMERNS3_14JSGlobalObjectENS3_7JSValueE
_ZN3JSC21speculationFromStringEPKc
_ZNK3JSC12StructureSet11markIfCheapINS_19AbstractSlotVisitorEEEvRT_
_ZNK3JSC12StructureSet11markIfCheapINS_11SlotVisitorEEEvRT_
_ZNK3JSC12StructureSet12isStillAliveERNS_2VME
_ZNK3JSC12StructureSet13dumpInContextERN3WTF11PrintStreamEPNS_11DumpContextE
_ZN3JSC22initializeSuperSamplerEv
_ZN3WTF7dataLogIJA27_cdA2_cEEEvDpRKT_
_ZN3WTF7dataLogIJA34_cdA2_cEEEvDpRKT_
_ZN3WTF7dataLogIJA41_cdA3_cEEEvDpRKT_
_ZN3WTF7dataLogIJA4_cdS1_EEEvDpRKT_
_ZN3JSC18enableSuperSamplerEv
_ZN3JSC19disableSuperSamplerEv
_ZN3JSC5mergeENS_12ToThisStatusES0_
_ZN3JSC17TrackedReferences3addEPNS_6JSCellE
_ZN3JSC17TrackedReferences3addENS_7JSValueE
_ZNK3JSC17TrackedReferences5checkEPNS_6JSCellE
_ZN3WTF7dataLogIJA20_cN3JSC7JSValueEA2_cEEEvDpRKT_
_ZN3WTF7dataLogIJA28_cN3JSC7JSValueEA2_cEEEvDpRKT_
_ZN3WTF7dataLogIJA5_cN3JSC7JSValueEA2_cEEEvDpRKT_
_ZN3WTF7dataLogIJA25_cN3JSC17TrackedReferencesEA2_cEEEvDpRKT_
_ZNK3JSC17TrackedReferences5checkENS_7JSValueE
_ZNK3JSC17TrackedReferences4dumpERN3WTF11PrintStreamE
_ZN3JSC36NarrowingNumberPredictionFuzzerAgent13getPredictionEPNS_9CodeBlockERKNS_10CodeOriginEm
_ZN3JSC19MicrotaskDispatcherD2Ev
_ZN3JSC20TypedArrayControllerD1Ev
_ZN3JSC20TypedArrayControllerD2Ev
_ZN3JSC29DebuggableMicrotaskDispatcherD0Ev
_ZN3JSC14MicrotaskQueue21scheduleToRunIfNeededEv
_ZN3WTF5DequeIN3JSC10QueuedTaskELm0EED2Ev
_ZN3JSC20MarkedMicrotaskDeque7dequeueEv
_ZN3JSC20ScriptProfilingScopeC2EPNS_14JSGlobalObjectENS_15ProfilingReasonE
_ZN3JSC20ScriptProfilingScopeD2Ev
_ZN3WTF7dataLogIJA21_cNS_6StringEA18_cN3JSC13BytecodeIndexEA13_cNS4_15SpeculationDumpEA14_cS7_A2_cS9_EEEvDpRKT_
_ZN3WTF7dataLogIJA58_cNS_6StringEA18_cN3JSC13BytecodeIndexEA13_cNS4_15SpeculationDumpEA14_cS7_A2_cS9_EEEvDpRKT_
_ZN3WTF7dataLogIJA59_cNS_6StringEA18_cN3JSC13BytecodeIndexEA13_cNS4_15SpeculationDumpEA14_cS7_A2_cS9_EEEvDpRKT_
_ZN3WTF11PrintStream10atomicallyIZNS0_5printIJA21_cNS_6StringEA18_cN3JSC13BytecodeIndexEA13_cNS6_15SpeculationDumpEA14_cS9_A2_cSB_EEEvDpRKT_EUlRS0_E_EEvRKT_
_ZN3WTF11PrintStream10atomicallyIZNS0_5printIJA58_cNS_6StringEA18_cN3JSC13BytecodeIndexEA13_cNS6_15SpeculationDumpEA14_cS9_A2_cSB_EEEvDpRKT_EUlRS0_E_EEvRKT_
_ZN3WTF11PrintStream10atomicallyIZNS0_5printIJA59_cNS_6StringEA18_cN3JSC13BytecodeIndexEA13_cNS6_15SpeculationDumpEA14_cS9_A2_cSB_EEEvDpRKT_EUlRS0_E_EEvRKT_
_ZN3JSC12NativeCalleeC1ENS0_8CategoryENS_24ImplementationVisibilityE
_ZN3JSC12NativeCalleeC2ENS0_8CategoryENS_24ImplementationVisibilityE
_ZN3JSC12NativeCalleedlEPS0_St19destroying_delete_t
_ZN3JSC20NativeCalleeRegistry9singletonEv
_ZN3JSC20NativeCalleeRegistry16unregisterCalleeEPNS_12NativeCalleeE
_ZN3JSC20NativeCalleeRegistry10initializeEv
_ZN3JSC26NativeErrorConstructorBase14finishCreationERNS_2VMEPNS_20NativeErrorPrototypeENS_9ErrorTypeE
_ZN3JSC22NativeErrorConstructorILNS_9ErrorTypeE1EE13constructImplEPNS_14JSGlobalObjectEPNS_9CallFrameE
_ZN3JSC22NativeErrorConstructorILNS_9ErrorTypeE1EEC1ERNS_2VMEPNS_9StructureE
_ZN3JSC22NativeErrorConstructorILNS_9ErrorTypeE1EEC2ERNS_2VMEPNS_9StructureE
_ZN3JSC22NativeErrorConstructorILNS_9ErrorTypeE2EE13constructImplEPNS_14JSGlobalObjectEPNS_9CallFrameE
_ZN3JSC22NativeErrorConstructorILNS_9ErrorTypeE2EEC1ERNS_2VMEPNS_9StructureE
_ZN3JSC22NativeErrorConstructorILNS_9ErrorTypeE2EEC2ERNS_2VMEPNS_9StructureE
_ZN3JSC22NativeErrorConstructorILNS_9ErrorTypeE3EE13constructImplEPNS_14JSGlobalObjectEPNS_9CallFrameE
_ZN3JSC22NativeErrorConstructorILNS_9ErrorTypeE3EEC1ERNS_2VMEPNS_9StructureE
_ZN3JSC22NativeErrorConstructorILNS_9ErrorTypeE3EEC2ERNS_2VMEPNS_9StructureE
_ZN3JSC22NativeErrorConstructorILNS_9ErrorTypeE4EE13constructImplEPNS_14JSGlobalObjectEPNS_9CallFrameE
_ZN3JSC4Wasm39triggerOMGEntryTierUpThunkGeneratorImplERKN3WTF14AbstractLockerEb
_ZN3JSC4Wasm39triggerOMGEntryTierUpThunkGeneratorSIMDERKN3WTF14AbstractLockerE
_ZN3JSC4Wasm41triggerOMGEntryTierUpThunkGeneratorNoSIMDERKN3WTF14AbstractLockerE
_ZN3JSC4Wasm6Thunks10initializeEv
_ZN3JSC4Wasm6Thunks4stubEPFNS_21MacroAssemblerCodeRefILN3WTF6PtrTagE26129EEERKNS3_14AbstractLockerEE
_ZN3JSC4Wasm11TierUpCountC1Ev
_ZN3JSC4Wasm11TierUpCountC2Ev
_ZN3JSC4Wasm11TierUpCountD1Ev
_ZN3JSC4Wasm11TierUpCountD2Ev
_ZN3JSC4Wasm11TierUpCount15addOSREntryDataENS0_17FunctionCodeIndexEjON3WTF11FixedVectorINS0_13OSREntryValueENS3_10FastMallocEEE
_ZN3JSC4Wasm11TierUpCount12osrEntryDataEj
_ZNK3JSC4Wasm11StorageType4dumpERN3WTF11PrintStreamE
_ZN3JSC4Wasm3RTT17tryCreateFunctionEbONS0_18RTTFunctionPayloadE
_ZN3JSC4Wasm3RTT17tryCreateFunctionERKS1_bONS0_18RTTFunctionPayloadE
_ZN3JSC4Wasm3RTTC2INS0_18RTTFunctionPayloadEEENS0_7RTTKindERKS1_bjOT_
_ZN3JSC4Wasm3RTT15tryCreateStructEbONS0_16RTTStructPayloadE
_ZN3JSC4Wasm3RTT15tryCreateStructERKS1_bONS0_16RTTStructPayloadE
_ZN3JSC4Wasm3RTTC2INS0_16RTTStructPayloadEEENS0_7RTTKindERKS1_bjOT_
_ZN3JSC7VMTraps25tryInstallTrapBreakpointsERNS0_13SignalContextEN3WTF11StackBoundsE
_ZN3JSC7VMTraps27invalidateCodeBlocksOnStackEv
_ZN3JSC7VMTraps27invalidateCodeBlocksOnStackEPNS_9CallFrameE
_ZN3JSC7VMTraps17initializeSignalsEv
_ZN3JSC7VMTraps25requestThreadStopIfNeededERN3WTF6LockerINS1_4LockEEE
_ZN3JSC7VMTraps31updateThreadStopRequestIfNeededEv
_ZN3JSC7VMTraps19handleTrapsIfNeededEj
_ZN3JSC7VMTraps20deferTerminationSlowENS0_11DeferActionE
_ZN3JSC7VMTraps24undoDeferTerminationSlowENS0_11DeferActionE
_ZN3JSC7VMTrapsD1Ev
_ZN3JSC7VMTrapsD2Ev
_ZNK3JSC9VarOffset4dumpERN3WTF11PrintStreamE
_ZN3WTF13printInternalERNS_11PrintStreamEN3JSC7VarKindE
_ZN3JSC6WaiterC1EPNS_9JSPromiseE
_ZN3JSC6WaiterC2EPNS_9JSPromiseE
_ZN3WTF17ThreadSafeWeakPtrIN3JSC17DeferredWorkTimer10TicketDataENS_15NoTaggingTraitsIS3_EEEC2IS3_EEPKT_
_ZN3JSC17WaiterListManager9waitAsyncEPNS_14JSGlobalObjectERNS_2VMEPiiN3WTF7SecondsE
_ZN3JSC17WaiterListManager13waitAsyncImplIiEENS_7JSValueEPNS_14JSGlobalObjectERNS_2VMEPT_S7_N3WTF7SecondsE
_ZN3WTF7dataLogIJA27_cNS_10RawPointerEA28_cS2_A20_cS2_A19_cS2_A3_cS2_A2_cS7_EEEvDpRKT_
_ZN3WTF11PrintStream9printImplINS_10RawPointerEJA28_cS2_A20_cS2_A19_cS2_A3_cS2_A2_cS7_EEEvRKT_DpRKT0_
_ZZNSt9once_flag18_Prepare_executionC1IZSt9call_onceIZN3JSC7VMTraps12SignalSender17initializeSignalsEvEUlvE_JEEvRS_OT_DpOT0_EUlvE_EERS8_ENUlvE_8__invokeEv
_ZN3WTF6Detail15CallableWrapperIZZN3JSC7VMTraps12SignalSender17initializeSignalsEvENKUlvE_clEvEUlNS_6SignalERNS_7SigInfoERNS_17PlatformRegistersEE_NS_12SignalActionEJS6_S8_SA_EE4callES6_S8_SA_
_ZZZN3JSC7VMTraps12SignalSender17initializeSignalsEvENKUlvE_clEvENKUlN3WTF6SignalERNS3_7SigInfoERNS3_17PlatformRegistersEE_clES4_S6_S8_
_ZN3WTF22ScopedLambdaRefFunctorIFvPN3JSC9CodeBlockEEZZZNS1_7VMTraps12SignalSender17initializeSignalsEvENKUlvE_clEvENKUlNS_6SignalERNS_7SigInfoERNS_17PlatformRegistersEE_clES8_SA_SC_EUlS3_E_E12implFunctionEPvS3_
_ZN3WTF6Detail15CallableWrapperIZN3JSC7VMTraps12SignalSender4workEvEUlvE_vJEED2Ev
_ZN3WTF6Detail15CallableWrapperIZN3JSC7VMTraps12SignalSender6notifyERNS_14AbstractLockerEEUlvE_vJEED2Ev
_ZN3WTF6Detail15CallableWrapperIZN3JSC7VMTraps12SignalSender4workEvEUlvE_vJEED0Ev
_ZN3WTF6Detail15CallableWrapperIZN3JSC7VMTraps12SignalSender6notifyERNS_14AbstractLockerEEUlvE_vJEED0Ev
_ZN3WTF6Detail15CallableWrapperIZN3JSC7VMTraps12SignalSender4workEvEUlvE_vJEE4callEv
_ZN3WTF6Detail15CallableWrapperIZN3JSC7VMTraps12SignalSender6notifyERNS_14AbstractLockerEEUlvE_vJEE4callEv
_ZN3JSC4Wasm9EntryPlan21generateWasmToJSStubsEv
_ZN3JSC4Wasm9EntryPlan8completeEv
_ZN3JSC4Wasm9EntryPlan24generateStubsIfNecessaryEv
_ZN3JSC4Wasm9EntryPlan22completeSyncIfPossibleEv
_ZNSt12experimental15fundamentals_v317__expected_detail4baseIN3JSC21MacroAssemblerCodeRefILN3WTF6PtrTagE64376EEENS3_4Wasm14BindingFailureEED2Ev
_ZN3JSC4Wasm23activateSignalingMemoryEv
_ZN3JSC4Wasm22prepareSignalingMemoryEv
_ZN3JSC4Wasm35maxAcceptableOffsetForNullReferenceEv
_ZNK3JSC4Wasm20WasmCallableFunction4isJSEv
_ZN3JSC4Wasm7Segment9tryCreateESt8optionalINS0_11I32InitExprEEjNS1_4KindEj
_ZN3JSC4Wasm10makeStringERKN3WTF6VectorIDuLm0ENS1_15CrashOnOverflowELm16ENS1_10FastMallocEEE
_ZNK3JSC4Wasm14BlockSignature4dumpERN3WTF11PrintStreamE
_ZN3JSC4Wasm30FunctionIPIntMetadataGenerator9addLengthEm
_ZN3JSC4Wasm30FunctionIPIntMetadataGenerator13addMemoryGrowEh
_ZN3JSC4Wasm30FunctionIPIntMetadataGenerator13addMemorySizeEh
_ZN3JSC4Wasm30FunctionIPIntMetadataGenerator10addRefFuncEjm
_ZN3JSC4Wasm30FunctionIPIntMetadataGenerator11addElemDropEjm
_ZN3JSC4Wasm30FunctionIPIntMetadataGenerator13addDataAccessEjm
_ZN3JSC4Wasm30FunctionIPIntMetadataGenerator14addTableAccessEjm
_ZN3JSC4Wasm30FunctionIPIntMetadataGenerator13addMemoryInitEhjm
_ZN3JSC4Wasm30FunctionIPIntMetadataGenerator13addMemoryFillEhm
_ZN3JSC4Wasm30FunctionIPIntMetadataGenerator13addMemoryCopyEhhm
_ZN3JSC4Wasm30FunctionIPIntMetadataGenerator21addAtomicMemoryAccessEhmm
_ZN3JSC4Wasm9EntryPlanD2Ev
_ZN3WTF7dataLogIJA6_cdA23_cA2_cEEEvDpRKT_
_ZN3WTF6VectorIN3JSC21MacroAssemblerCodeRefILNS_6PtrTagE64376EEELm0ENS_15CrashOnOverflowELm16ENS_10FastMallocEE15reserveCapacityILNS_13FailureActionE1EEEbm
_ZN3WTF6VectorINS0_IDuLm0ENS_15CrashOnOverflowELm16ENS_10FastMallocEEELm0ES1_Lm16ES2_E15reserveCapacityILNS_13FailureActionE1EEEbm
_ZN3WTF6VectorINS0_IN3JSC4Wasm22UnlinkedWasmToWasmCallELm0ENS_15CrashOnOverflowELm16ENS_10FastMallocEEELm0ES4_Lm16ES5_E15reserveCapacityILNS_13FailureActionE1EEEbm
_ZN3WTF6VectorIN3JSC21MacroAssemblerCodeRefILNS_6PtrTagE64376EEELm0ENS_15CrashOnOverflowELm16ENS_10FastMallocEE15reserveCapacityILNS_13FailureActionE0EEEbm
_ZZNSt9once_flag18_Prepare_executionC1IZSt9call_onceIZN3JSC4Wasm23activateSignalingMemoryEvE3$_0JEEvRS_OT_DpOT0_EUlvE_EERS7_ENUlvE_8__invokeEv
_ZZNSt9once_flag18_Prepare_executionC1IZSt9call_onceIZN3JSC4Wasm22prepareSignalingMemoryEvE3$_0JEEvRS_OT_DpOT0_EUlvE_EERS7_ENUlvE_8__invokeEv
_ZN3WTF6Detail15CallableWrapperIZZN3JSC4Wasm22prepareSignalingMemoryEvENK3$_0clEvEUlNS_6SignalERNS_7SigInfoERNS_17PlatformRegistersEE_NS_12SignalActionEJS5_S7_S9_EE4callES5_S7_S9_
_ZN3WTF37tryMakeStringImplFromAdaptersInternalIJNS_17StringTypeAdapterINS_6VectorIDuLm0ENS_15CrashOnOverflowELm16ENS_10FastMallocEEEEEEEENS_6RefPtrINS_10StringImplENS_12RawPtrTraitsIS8_EENS_21DefaultRefDerefTraitsIS8_EEEEjbDpT_
ipint_extern_prologue_osr
_ZN3JSC5IPIntL26jitCompileAndSetHeuristicsERNS_4Wasm11IPIntCalleeEPNS_21JSWebAssemblyInstanceENS0_6OSRForE
_RNvMsc_NtCslDwGP1S1boP_15bun_collections14array_hash_mapINtB5_12ArrayHashMapINtNtCs4YSnrHLetPa_5alloc5boxed3BoxShENtNtCs6gwODWbkV84_10bun_dotenv10env_loader14HashTableValueINtB5_17BoxedSliceContextNtB5_13StringContextEE14swap_remove_atCs4YYdkJyg8hg_7bun_jsc
_RNvMs7_NtCs4YYdkJyg8hg_7bun_jsc15virtual_machineNtB5_14VirtualMachine50on_quiet_unhandled_rejection_handler_capture_value
_RNvMsn_NtCs4YSnrHLetPa_5alloc4syncINtB5_3ArcNtNtCs4YYdkJyg8hg_7bun_jsc9rare_data18RefCountedEnvValueE9drop_slowBK_
_RNvMsa_NtCs4YYdkJyg8hg_7bun_jsc15virtual_machineNtB5_14VirtualMachine4init
_RINvNtNtCs7QmvgyBSXbk_3std3sys9backtrace26___rust_end_short_backtraceNCNvNtB6_5alloc8rust_oom0zEB6_
_RNCNvNtCs7QmvgyBSXbk_3std5alloc8rust_oom0B5_
_RNvNtCs7QmvgyBSXbk_3std5alloc24default_alloc_error_hook
_RINvNtNtCs7QmvgyBSXbk_3std3sys9backtrace26___rust_end_short_backtraceNCNvNtB6_9panicking13panic_handler0zEB6_
_RNCNvNtCs7QmvgyBSXbk_3std9panicking13panic_handler0B5_
_RNvXs0_NvNtCs7QmvgyBSXbk_3std9panicking13panic_handlerNtB5_19FormatStringPayloadNtNtCshzHRevywlmE_4core3fmt7Display3fmt
_RNvXs_NvNtCs7QmvgyBSXbk_3std9panicking13panic_handlerNtB4_19FormatStringPayloadNtNtCshzHRevywlmE_4core5panic12PanicPayload8take_box
_RNvXs_NvNtCs7QmvgyBSXbk_3std9panicking13panic_handlerNtB4_19FormatStringPayloadNtNtCshzHRevywlmE_4core5panic12PanicPayload3get
_RNvXNtCshzHRevywlmE_4core3anyNtNtCs4YSnrHLetPa_5alloc6string6StringNtB2_3Any7type_idCs7QmvgyBSXbk_3std
_RNvXs1_NvNtCs7QmvgyBSXbk_3std9panicking13panic_handlerNtB5_16StaticStrPayloadNtNtCshzHRevywlmE_4core5panic12PanicPayload8take_box
_RNvXs1_NvNtCs7QmvgyBSXbk_3std9panicking13panic_handlerNtB5_16StaticStrPayloadNtNtCshzHRevywlmE_4core5panic12PanicPayload3get
_RNvXs1_NvNtCs7QmvgyBSXbk_3std9panicking13panic_handlerNtB5_16StaticStrPayloadNtNtCshzHRevywlmE_4core5panic12PanicPayload6as_str
_RNvCs3TqXShXgh4d_7___rustc12___rust_abort
_RNvCs3TqXShXgh4d_7___rustc17rust_begin_unwind
_RNvCs3TqXShXgh4d_7___rustc26___rust_alloc_error_handler
_RNvNtCs7QmvgyBSXbk_3std5alloc8rust_oom
_RNvMNtCs7QmvgyBSXbk_3std4timeNtB2_7Instant14duration_since
_RNvMNtNtNtNtCs7QmvgyBSXbk_3std3sys3pal4unix4timeNtB2_8Timespec12sub_timespec
_RNvMNtCs7QmvgyBSXbk_3std4timeNtB2_7Instant3now
_RINvNtCshzHRevywlmE_4core3ptr13drop_in_placeNtNtNtCs7QmvgyBSXbk_3std2io5error5ErrorEBM_
_RNvMs7_NtCs4YYdkJyg8hg_7bun_jsc15virtual_machineNtB5_14VirtualMachine30default_on_unhandled_rejection
_RNvMs1_NtCs4YYdkJyg8hg_7bun_jsc10event_loopNtB5_9EventLoop26tick_concurrent_with_count
_RNvMs1_NtCs4YYdkJyg8hg_7bun_jsc10event_loopNtB5_9EventLoop4tick
_RNvMs7_NtCs4YYdkJyg8hg_7bun_jsc15virtual_machineNtB5_14VirtualMachine14on_before_exit
_RNvMs_NtCs4YYdkJyg8hg_7bun_jsc29garbage_collection_controllerNtB4_27GarbageCollectionController31process_gc_timer_with_heap_size
_RNvNtCs4YYdkJyg8hg_7bun_jsc29garbage_collection_controller21on_gc_repeating_timer
_RNvNtCs4YYdkJyg8hg_7bun_jsc29garbage_collection_controller11on_gc_timer
_RNvMs4_NtCslDwGP1S1boP_15bun_collections11linear_fifoINtB5_10LinearFifoNtNtCsi1Wn4G8Kyrk_14bun_event_loop14ConcurrentTask4TaskINtB5_13DynamicBufferB17_EE22ensure_unused_capacityCs4YYdkJyg8hg_7bun_jsc
_RNvMsa_NtCs4YYdkJyg8hg_7bun_jsc15virtual_machineNtB5_14VirtualMachine18reload_entry_point
_RNvNtCs1yUlXPGwCKD_11bun_runtime9jsc_hooks20get_hardcoded_module
_RNvNtCs1yUlXPGwCKD_11bun_runtime9jsc_hooks18init_runtime_state
_RNvNtCs1yUlXPGwCKD_11bun_runtime9jsc_hooks20deinit_runtime_state
_RNvNtCs1yUlXPGwCKD_11bun_runtime9jsc_hooks20generate_entry_point
_RNvNtCs1yUlXPGwCKD_11bun_runtime9jsc_hooks13load_preloads
_RNvNvMNtNtCs7QmvgyBSXbk_3std6thread2idNtB4_8ThreadId3new9exhausted
_RNvNtNtCs7QmvgyBSXbk_3std6thread7current12init_current
_RNvMs_NtNtCs7QmvgyBSXbk_3std6thread6threadNtB4_6Thread3new
_RNvXsX_NtNtCs4YSnrHLetPa_5alloc3ffi5c_strNtB5_8NulErrorNtNtCshzHRevywlmE_4core3fmt5Debug3fmt.4517
_RNvMNtNtNtNtCs7QmvgyBSXbk_3std3sys4sync6rwlock5futexNtB2_6RwLock15write_contended
_RNvMs0_NtNtNtCs7QmvgyBSXbk_3std3sys6thread4unixNtB5_6Thread3new
_RNvMs1_NtCsHrYIFyNDn9_9hashbrown3mapINtB5_7HashMapNtNtCslDwGP1S1boP_15bun_collections14array_hash_map16StringHashMapKeyRShINtNtCshzHRevywlmE_4core4hash18BuildHasherDefaultNtCslE9Wbi68HL1_10bun_wyhash13OneShotHasherENtCsdAZa0WVRlFk_9bun_alloc12DefaultAllocE6insertCse0gOrsKjhbD_11bun_bundler
_RINvNtCshzHRevywlmE_4core3ptr13drop_in_placeINtNtCs4YSnrHLetPa_5alloc3vec3VecNtNtCsg31y7KV7Avq_12bun_resolver7options15WildcardPatternEECse0gOrsKjhbD_11bun_bundler
_RINvNtCshzHRevywlmE_4core3ptr13drop_in_placeINtNtCs4YSnrHLetPa_5alloc3vec3VecNtNtNtCs1yUlXPGwCKD_11bun_runtime3cli23package_manager_command17NodeModulesFolderEEB1j_
_RNvMso_NtCslDwGP1S1boP_15bun_collections14array_hash_mapINtB5_18StringArrayHashMapNtNtCs8WZIztbKAR_7bun_ast6loader6LoaderE6insertCse0gOrsKjhbD_11bun_bundler
_RNvMs0_NtCse0gOrsKjhbD_11bun_bundler12options_implNtB5_14DefaultLoaders3get
_RNvMs4_NtCse0gOrsKjhbD_11bun_bundler10transpilerNtB5_10Transpiler4init
_RNvMs1_NtCs4FfJ4Lq6U93_9bun_paths12resolve_pathNtB5_11JoinScratch4init.1870
_RNvMNtCsg31y7KV7Avq_12bun_resolver2fsNtB2_10FileSystem4init
_RNvMsb_NtCsg31y7KV7Avq_12bun_resolver2fsNtB5_12DirnameStore12append_slice
_RNvNvNtCsg31y7KV7Avq_12bun_resolver7fs_full19entry_store_backing4slow
_RNvNvNtCsg31y7KV7Avq_12bun_resolver2fs21dirname_store_backing4slow
_RINvMsv_CsdAZa0WVRlFk_9bun_allocINtB6_13BSSStringListKj1000_Kj81_E9do_appendRShECsg31y7KV7Avq_12bun_resolver
_RNvXs1g_NtCshzHRevywlmE_4core3fmtRhNtB6_5Debug3fmtCs1hxaBEKURXO_4bstr
_RNvMs4_NtCs1hxaBEKURXO_4bstr9ext_sliceNtB5_4Find3new
_RNvXs_NtNtNtCshzHRevywlmE_4core4iter8adapters4takeINtB4_4TakeINtNtB6_9enumerate9EnumerateINtNtNtBa_5slice4iter4IterhEEENtNtNtB8_6traits8iterator8Iterator3nthCs1hxaBEKURXO_4bstr
_RNvXs6_NtNtCshzHRevywlmE_4core3num5errorNtB5_15TryFromIntErrorNtNtB9_3fmt5Debug3fmt
_RNvXs6_NtNtCshzHRevywlmE_4core3num5errorNtB5_15TryFromIntErrorNtNtB9_3fmt5Debug3fmt.1022
_RNvXs6_NtNtCshzHRevywlmE_4core3num5errorNtB5_15TryFromIntErrorNtNtB9_3fmt5Debug3fmt.1068
_RNvXs6_NtNtCshzHRevywlmE_4core3num5errorNtB5_15TryFromIntErrorNtNtB9_3fmt5Debug3fmt.1161
_RNvXs6_NtNtCshzHRevywlmE_4core3num5errorNtB5_15TryFromIntErrorNtNtB9_3fmt5Debug3fmt.1247
_RNvXs6_NtNtCshzHRevywlmE_4core3num5errorNtB5_15TryFromIntErrorNtNtB9_3fmt5Debug3fmt.1531
_RNvXs6_NtNtCshzHRevywlmE_4core3num5errorNtB5_15TryFromIntErrorNtNtB9_3fmt5Debug3fmt.1580
_RNvXs6_NtNtCshzHRevywlmE_4core3num5errorNtB5_15TryFromIntErrorNtNtB9_3fmt5Debug3fmt.1603
_RNvXs6_NtNtCshzHRevywlmE_4core3num5errorNtB5_15TryFromIntErrorNtNtB9_3fmt5Debug3fmt.1619
_RNvXs6_NtNtCshzHRevywlmE_4core3num5errorNtB5_15TryFromIntErrorNtNtB9_3fmt5Debug3fmt.1769
_RNvXs6_NtNtCshzHRevywlmE_4core3num5errorNtB5_15TryFromIntErrorNtNtB9_3fmt5Debug3fmt.1778
_RNvXs6_NtNtCshzHRevywlmE_4core3num5errorNtB5_15TryFromIntErrorNtNtB9_3fmt5Debug3fmt.1888
_RNvXs6_NtNtCshzHRevywlmE_4core3num5errorNtB5_15TryFromIntErrorNtNtB9_3fmt5Debug3fmt.1991
_RNvXs6_NtNtCshzHRevywlmE_4core3num5errorNtB5_15TryFromIntErrorNtNtB9_3fmt5Debug3fmt.2017
_RNvXs6_NtNtCshzHRevywlmE_4core3num5errorNtB5_15TryFromIntErrorNtNtB9_3fmt5Debug3fmt.2371
_RNvXs6_NtNtCshzHRevywlmE_4core3num5errorNtB5_15TryFromIntErrorNtNtB9_3fmt5Debug3fmt.2440
_RNvXs6_NtNtCshzHRevywlmE_4core3num5errorNtB5_15TryFromIntErrorNtNtB9_3fmt5Debug3fmt.2455
_RNvXs6_NtNtCshzHRevywlmE_4core3num5errorNtB5_15TryFromIntErrorNtNtB9_3fmt5Debug3fmt.2561
_RNvXs6_NtNtCshzHRevywlmE_4core3num5errorNtB5_15TryFromIntErrorNtNtB9_3fmt5Debug3fmt.2639
_RNvXs6_NtNtCshzHRevywlmE_4core3num5errorNtB5_15TryFromIntErrorNtNtB9_3fmt5Debug3fmt.2696
_RNvXs6_NtNtCshzHRevywlmE_4core3num5errorNtB5_15TryFromIntErrorNtNtB9_3fmt5Debug3fmt.2776
_RNvXs6_NtNtCshzHRevywlmE_4core3num5errorNtB5_15TryFromIntErrorNtNtB9_3fmt5Debug3fmt.2786
_RNvXs6_NtNtCshzHRevywlmE_4core3num5errorNtB5_15TryFromIntErrorNtNtB9_3fmt5Debug3fmt.290
_RNvXs6_NtNtCshzHRevywlmE_4core3num5errorNtB5_15TryFromIntErrorNtNtB9_3fmt5Debug3fmt.2934
_RNvXs6_NtNtCshzHRevywlmE_4core3num5errorNtB5_15TryFromIntErrorNtNtB9_3fmt5Debug3fmt.2960
_RNvXs6_NtNtCshzHRevywlmE_4core3num5errorNtB5_15TryFromIntErrorNtNtB9_3fmt5Debug3fmt.3287
_RNvXs6_NtNtCshzHRevywlmE_4core3num5errorNtB5_15TryFromIntErrorNtNtB9_3fmt5Debug3fmt.3424
_RNvXs6_NtNtCshzHRevywlmE_4core3num5errorNtB5_15TryFromIntErrorNtNtB9_3fmt5Debug3fmt.35
_RNvXs6_NtNtCshzHRevywlmE_4core3num5errorNtB5_15TryFromIntErrorNtNtB9_3fmt5Debug3fmt.3511
_RNvXs6_NtNtCshzHRevywlmE_4core3num5errorNtB5_15TryFromIntErrorNtNtB9_3fmt5Debug3fmt.37
_RNvXs6_NtNtCshzHRevywlmE_4core3num5errorNtB5_15TryFromIntErrorNtNtB9_3fmt5Debug3fmt.38
_RNvXs6_NtNtCshzHRevywlmE_4core3num5errorNtB5_15TryFromIntErrorNtNtB9_3fmt5Debug3fmt.3863
_RNvXs6_NtNtCshzHRevywlmE_4core3num5errorNtB5_15TryFromIntErrorNtNtB9_3fmt5Debug3fmt.3867
_RNvXs6_NtNtCshzHRevywlmE_4core3num5errorNtB5_15TryFromIntErrorNtNtB9_3fmt5Debug3fmt.479
_RNvXs6_NtNtCshzHRevywlmE_4core3num5errorNtB5_15TryFromIntErrorNtNtB9_3fmt5Debug3fmt.526
_RNvXs6_NtNtCshzHRevywlmE_4core3num5errorNtB5_15TryFromIntErrorNtNtB9_3fmt5Debug3fmt.56
_RNvXs6_NtNtCshzHRevywlmE_4core3num5errorNtB5_15TryFromIntErrorNtNtB9_3fmt5Debug3fmt.72
_RNvXs6_NtNtCshzHRevywlmE_4core3num5errorNtB5_15TryFromIntErrorNtNtB9_3fmt5Debug3fmt.867
_RNvXs6_NtNtCshzHRevywlmE_4core3num5errorNtB5_15TryFromIntErrorNtNtB9_3fmt5Debug3fmt.872
_RNvXs6_NtNtCshzHRevywlmE_4core3num5errorNtB5_15TryFromIntErrorNtNtB9_3fmt5Debug3fmt.917
_RNvXs6_NtNtCshzHRevywlmE_4core3num5errorNtB5_15TryFromIntErrorNtNtB9_3fmt5Debug3fmt.919
_RNvXs6_NtNtCshzHRevywlmE_4core3num5errorNtB5_15TryFromIntErrorNtNtB9_3fmt5Debug3fmt.92
_RNvXs6_NtNtCshzHRevywlmE_4core3num5errorNtB5_15TryFromIntErrorNtNtB9_3fmt5Debug3fmt.921
_RNvXs6_NtNtCshzHRevywlmE_4core3num5errorNtB5_15TryFromIntErrorNtNtB9_3fmt5Debug3fmt.926
_RNvXs6_NtNtCshzHRevywlmE_4core3num5errorNtB5_15TryFromIntErrorNtNtB9_3fmt5Debug3fmt.937
_RNvXs6_NtNtCshzHRevywlmE_4core3num5errorNtB5_15TryFromIntErrorNtNtB9_3fmt5Debug3fmt.945
_RNvXs6_NtNtCshzHRevywlmE_4core3num5errorNtB5_15TryFromIntErrorNtNtB9_3fmt5Debug3fmt.949
_RNvXs6_NtNtCshzHRevywlmE_4core3num5errorNtB5_15TryFromIntErrorNtNtB9_3fmt5Debug3fmt.973
_RNvNvXNtNtCs1hxaBEKURXO_4bstr5impls4bstrNtNtB8_4bstr4BStrNtNtCshzHRevywlmE_4core3fmt7Display3fmt10write_bstr
_RNvNvXNtNtCs1hxaBEKURXO_4bstr5impls4bstrNtNtB8_4bstr4BStrNtNtCshzHRevywlmE_4core3fmt7Display3fmt10write_pads
_RNvMNtCsdAZa0WVRlFk_9bun_alloc5basicNtB2_17MimallocAllocator29resize_with_default_allocator
_RNvMNtCsdAZa0WVRlFk_9bun_alloc5basicNtB2_17MimallocAllocator28remap_with_default_allocator
_RNvMNtCsdAZa0WVRlFk_9bun_alloc5basicNtB2_17MimallocAllocator28alloc_with_default_allocator
_RNvCsdAZa0WVRlFk_9bun_alloc13out_of_memory
_RNvNvCsdAZa0WVRlFk_9bun_alloc14bss_arena_bump9map_arena
_RNvCsdAZa0WVRlFk_9bun_alloc14copy_lowercase
_RNvCsdAZa0WVRlFk_9bun_alloc9buf_print
_RNvXs6_CsdAZa0WVRlFk_9bun_allocNtB5_11SliceCursorNtNtCshzHRevywlmE_4core3fmt5Write9write_str
_RNvYNtCsdAZa0WVRlFk_9bun_alloc11SliceCursorNtNtCshzHRevywlmE_4core3fmt5Write10write_charB4_
_RNvXs_NvNtNtCshzHRevywlmE_4core3fmt5Write9write_fmtQNtCsdAZa0WVRlFk_9bun_alloc11SliceCursorNtB4_12SpecWriteFmt14spec_write_fmtCsadMcfFuP9ae_14bun_s3_signing
_RNvYNtCsdAZa0WVRlFk_9bun_alloc11SliceCursorNtNtCshzHRevywlmE_4core3fmt5Write9write_fmtB4_
_RNvYNtCsdAZa0WVRlFk_9bun_alloc11SliceCursorNtNtCshzHRevywlmE_4core3fmt5Write9write_fmtCsadMcfFuP9ae_14bun_s3_signing
_RNvYNtCsdAZa0WVRlFk_9bun_alloc11SliceCursorNtNtCshzHRevywlmE_4core3fmt5Write9write_fmtCsg31y7KV7Avq_12bun_resolver
_RNvYNtCsdAZa0WVRlFk_9bun_alloc11SliceCursorNtNtCshzHRevywlmE_4core3fmt5Write9write_fmtCsgtociwQ8c96_8bun_core
_RNvNvMs1_NtCsdAZa0WVRlFk_9bun_alloc14mimalloc_arenaNtB7_13MimallocArena15allocated_bytes5visit
_RNvMs1_NtCsdAZa0WVRlFk_9bun_alloc14mimalloc_arenaNtB5_13MimallocArena5reset
_RNvMsl_CsdAZa0WVRlFk_9bun_allocINtB5_12OverflowListRShKj800_E6appendCsg31y7KV7Avq_12bun_resolver
_RNvMNtCsg31y7KV7Avq_12bun_resolver2fsNtB2_10FileSystem7tmpname
_RNvNtCsj5JUsDxu4lF_11bun_install20package_manager_real25http_thread_on_init_error
_RNvXs1i_NtCshzHRevywlmE_4core3fmtRINtNtCsgtociwQ8c96_8bun_core6output15TemplateDisplayRARRNtNtCs1hxaBEKURXO_4bstr4bstr4BStrj1_ENtB6_7Display3fmtCsj5JUsDxu4lF_11bun_install
_RINvNtCsgtociwQ8c96_8bun_core6output3errReRARRNtNtCs1hxaBEKURXO_4bstr4bstr4BStrj1_ECsj5JUsDxu4lF_11bun_install
_RNvXs1i_NtCshzHRevywlmE_4core3fmtRRRNtNtCs1hxaBEKURXO_4bstr4bstr4BStrNtB6_7Display3fmtCsj5JUsDxu4lF_11bun_install
_RNCINvMs0_NtNtCs7QmvgyBSXbk_3std4sync4onceNtB8_4Once15call_once_forceNCINvMNtBa_9once_lockINtB1b_8OnceLockINtNtCs4YSnrHLetPa_5alloc5boxed3BoxShEE10initializeNCINvB1a_11get_or_initNCNvB1a_10try_insert0E0zE0E0Csj5JUsDxu4lF_11bun_install
_RNSNvYNCINvMs0_NtNtCs7QmvgyBSXbk_3std4sync4onceNtBd_4Once15call_once_forceNCINvMNtBf_9once_lockINtB1g_8OnceLockINtNtCs4YSnrHLetPa_5alloc5boxed3BoxShEE10initializeNCINvB1f_11get_or_initNCNvB1f_10try_insert0E0zE0E0INtNtNtCshzHRevywlmE_4core3ops8function6FnOnceTRNtBd_9OnceStateEE9call_once6vtableCsj5JUsDxu4lF_11bun_install
_RNCINvMs0_NtNtCs7QmvgyBSXbk_3std4sync4onceNtB8_4Once15call_once_forceNCINvMNtBa_9once_lockINtB1b_8OnceLockINtNtCs4YSnrHLetPa_5alloc3vec3VecNtNtCsgtociwQ8c96_8bun_core4util4ZBoxEE10initializeNCINvB1a_11get_or_initNCNvB1a_10try_insert0E0zE0E0Csj5JUsDxu4lF_11bun_install
_RNSNvYNCINvMs0_NtNtCs7QmvgyBSXbk_3std4sync4onceNtBd_4Once15call_once_forceNCINvMNtBf_9once_lockINtB1g_8OnceLockINtNtCs4YSnrHLetPa_5alloc3vec3VecNtNtCsgtociwQ8c96_8bun_core4util4ZBoxEE10initializeNCINvB1f_11get_or_initNCNvB1f_10try_insert0E0zE0E0INtNtNtCshzHRevywlmE_4core3ops8function6FnOnceTRNtBd_9OnceStateEE9call_once6vtableCsj5JUsDxu4lF_11bun_install
_RNvNtCsj5JUsDxu4lF_11bun_install3npm6whoami
_RNvMs3_NtNtNtNtCse0gOrsKjhbD_11bun_bundler9bundle_v28bv2_impl10bake_types10productionNtB5_13EntryPointMap22get_or_put_entry_point
_RNvNtCse0gOrsKjhbD_11bun_bundler12options_impl30loaders_from_transform_options
_RINvXsb_NtNtCs4YSnrHLetPa_5alloc5boxed4iterINtB8_3BoxSIBG_ShEEINtNtNtNtCshzHRevywlmE_4core4iter6traits7collect12FromIteratorBQ_E9from_iterINtNtNtB15_8adapters3map3MapINtNtNtB17_5slice4iter4IterBQ_ENCNvMs7_NtCse0gOrsKjhbD_11bun_bundler12options_implNtB3h_13BundleOptions8from_apis2_0EEB3j_
_RINvXsb_NtNtCs4YSnrHLetPa_5alloc5boxed4iterINtB8_3BoxSIBG_ShEEINtNtNtNtCshzHRevywlmE_4core4iter6traits7collect12FromIteratorBQ_E9from_iterINtNtNtB15_8adapters3map3MapINtNtNtB17_5slice4iter4IterRBU_ENCNvMs_NtNtCs1yUlXPGwCKD_11bun_runtime3api17filesystem_routerNtB3h_16FileSystemRouter11constructor0EEB3l_
_RINvXsb_NtNtCs4YSnrHLetPa_5alloc5boxed4iterINtB8_3BoxSIBG_ShEEINtNtNtNtCshzHRevywlmE_4core4iter6traits7collect12FromIteratorBQ_E9from_iterINtNtNtB15_8adapters3map3MapINtNtNtB17_5slice4iter4IterRBU_ENCNvNtCse0gOrsKjhbD_11bun_bundler12options_impl17owned_string_list0EEB3g_
_RINvNtNtNtNtCshzHRevywlmE_4core5slice4sort6stable9quicksort16stable_partitionRShNCINvB2_9quicksortB1d_NCINvMNtCs4YSnrHLetPa_5alloc5sliceSB1d_7sort_byNCNvNtNtCse0gOrsKjhbD_11bun_bundler14linker_context14compute_chunks14compute_chunkss0_0E0E0EB2v_
_RNvMsd_NtCslDwGP1S1boP_15bun_collections14array_hash_mapINtB5_12ArrayHashMapRShNtNtCse0gOrsKjhbD_11bun_bundler5chunk5ChunkE3getB1j_
_RINvMsc_NtCslDwGP1S1boP_15bun_collections14array_hash_mapINtB6_12ArrayHashMapINtNtCs4YSnrHLetPa_5alloc5boxed3BoxShEINtNtCsgtociwQ8c96_8bun_core4util12GenericIndexmNtNtNtNtCs1yUlXPGwCKD_11bun_runtime4bake10dev_server6assets12AssetsMarkerEINtB6_17BoxedSliceContextNtB6_13StringContextEE9find_hashNCNvMso_B6_INtB6_18StringArrayHashMapB1P_E4find0EB2J_
_RINvMsc_NtCslDwGP1S1boP_15bun_collections14array_hash_mapINtB6_12ArrayHashMapINtNtCs4YSnrHLetPa_5alloc5boxed3BoxShENtNtCs4YYdkJyg8hg_7bun_jsc18node_module_module12CustomLoaderINtB6_17BoxedSliceContextNtB6_13StringContextEE9find_hashNCNvMso_B6_INtB6_18StringArrayHashMapB1P_E4find0EB1T_
_RINvMsc_NtCslDwGP1S1boP_15bun_collections14array_hash_mapINtB6_12ArrayHashMapINtNtCs4YSnrHLetPa_5alloc5boxed3BoxShENtNtCs6gwODWbkV84_10bun_dotenv10env_loader14HashTableValueINtB6_17BoxedSliceContextNtB6_13StringContextEE9find_hashNCNvMso_B6_INtB6_18StringArrayHashMapB1P_E4find0EB1T_
_RINvMsc_NtCslDwGP1S1boP_15bun_collections14array_hash_mapINtB6_12ArrayHashMapINtNtCs4YSnrHLetPa_5alloc5boxed3BoxShENtNtCs6gwODWbkV84_10bun_dotenv10env_loader14HashTableValueINtB6_17BoxedSliceContextNtB6_13StringContextEE9find_hashNCNvMso_B6_INtB6_18StringArrayHashMapB1P_E4find0ECs4YYdkJyg8hg_7bun_jsc
_RINvMsc_NtCslDwGP1S1boP_15bun_collections14array_hash_mapINtB6_12ArrayHashMapINtNtCs4YSnrHLetPa_5alloc5boxed3BoxShENtNtCs8WZIztbKAR_7bun_ast5nodes6LocRefINtB6_17BoxedSliceContextNtB6_13StringContextEE9find_hashNCNvMso_B6_INtB6_18StringArrayHashMapB1P_E4find0ECs4cBhYOTeZUw_13bun_js_parser
_RINvMsc_NtCslDwGP1S1boP_15bun_collections14array_hash_mapINtB6_12ArrayHashMapINtNtCs4YSnrHLetPa_5alloc5boxed3BoxShEuINtB6_17BoxedSliceContextNtB6_13StringContextEE9find_hashNCNvMso_B6_INtB6_18StringArrayHashMapuE4find0ECs1yUlXPGwCKD_11bun_runtime
_RINvMsc_NtCslDwGP1S1boP_15bun_collections14array_hash_mapINtB6_12ArrayHashMapINtNtCs4YSnrHLetPa_5alloc5boxed3BoxShEuINtB6_17BoxedSliceContextNtB6_13StringContextEE9find_hashNCNvMso_B6_INtB6_18StringArrayHashMapuE4find0ECs4e8grVMhPCb_6bun_md
_RINvMsc_NtCslDwGP1S1boP_15bun_collections14array_hash_mapINtB6_12ArrayHashMapRShNtNtCse0gOrsKjhbD_11bun_bundler5chunk5ChunkE9find_hashNCNvMsd_B6_BT_9get_index0EB1k_
_RINvNtNtNtCshzHRevywlmE_4core5slice4sort6stable14driftsort_mainjNCINvMNtCs4YSnrHLetPa_5alloc5sliceSj7sort_byNCNvMsf_NtCse0gOrsKjhbD_11bun_bundler18linker_context_modNtB1Q_13LinkerContext35match_imports_with_exports_for_file0E0INtNtB18_3vec3VecjEEB1S_
_RNvYNCNvYINtNtNtCs4pSCigdXcdu_8lol_html6parser5lexer5LexerINtNtNtBe_16transform_stream10dispatcher10DispatcherINtNtNtBe_8rewriter18rewrite_controller21HtmlRewriteControllerNtNtB1P_8settings17LocalHandlerTypesENCNvMs2_NtCse0gOrsKjhbD_11bun_bundler11HTMLScannerINtB3t_13HTMLProcessorNtNtNtB3v_14linker_context38generate_compile_result_for_html_chunk10HTMLLoaderKb1_E3runs0_0EENtNtBc_13state_machine12StateMachine35attribute_value_double_quoted_state0INtNtNtCshzHRevywlmE_4core3ops8function6FnOnceTQB7_QINtBc_13ParserContextBU_ERShEE9call_onceB3v_
_RNvYNCNvYINtNtNtCs4pSCigdXcdu_8lol_html6parser5lexer5LexerINtNtNtBe_16transform_stream10dispatcher10DispatcherINtNtNtBe_8rewriter18rewrite_controller21HtmlRewriteControllerNtNtB1P_8settings17LocalHandlerTypesENCNvMs2_NtCse0gOrsKjhbD_11bun_bundler11HTMLScannerINtB3t_13HTMLProcessorNtNtNtB3v_14linker_context38generate_compile_result_for_html_chunk10HTMLLoaderKb1_E3runs0_0EENtNtBc_13state_machine12StateMachine35attribute_value_single_quoted_state0INtNtNtCshzHRevywlmE_4core3ops8function6FnOnceTQB7_QINtBc_13ParserContextBU_ERShEE9call_onceB3v_
_RNvYNCNvYINtNtNtCs4pSCigdXcdu_8lol_html6parser5lexer5LexerINtNtNtBe_16transform_stream10dispatcher10DispatcherINtNtNtBe_8rewriter18rewrite_controller21HtmlRewriteControllerNtNtB1P_8settings17LocalHandlerTypesENCNvMs2_NtCse0gOrsKjhbD_11bun_bundler11HTMLScannerINtB3t_13HTMLProcessorNtNtNtB3v_14linker_context38generate_compile_result_for_html_chunk10HTMLLoaderKb1_E3runs0_0EENtNtBc_13state_machine12StateMachine30attribute_value_unquoted_state0INtNtNtCshzHRevywlmE_4core3ops8function6FnOnceTQB7_QINtBc_13ParserContextBU_ERShEE9call_onceB3v_
_RNvMNtCs4pSCigdXcdu_8lol_html6parserINtB2_6ParserINtNtNtB4_16transform_stream10dispatcher10DispatcherINtNtNtB4_8rewriter18rewrite_controller21HtmlRewriteControllerNtNtB1G_8settings17LocalHandlerTypesENCNvMs2_NtCse0gOrsKjhbD_11bun_bundler11HTMLScannerINtB3k_13HTMLProcessorNtNtNtB3m_14linker_context38generate_compile_result_for_html_chunk10HTMLLoaderKb1_E3runs0_0EE5parseB3m_
_RNvMNtCse0gOrsKjhbD_11bun_bundler10AstBuilderNtB2_10AstBuilder10new_symbol
_RNvMNtCse0gOrsKjhbD_11bun_bundler10AstBuilderNtB2_10AstBuilder13record_export
_RNvMs4_NtCse0gOrsKjhbD_11bun_bundler12entry_pointsNtB5_15MacroEntryPoint26generate_id_from_specifier
_RNvXs_NtCslDwGP1S1boP_15bun_collections14array_hash_mapNtB4_13StringContextINtB4_16ArrayHashContextShE4hash
_RNvMNtCse0gOrsKjhbD_11bun_bundler10AstBuilderNtB2_10AstBuilder14to_bundled_ast
_RNvMs_NtNtCs1yUlXPGwCKD_11bun_runtime3api21bun_ssl_context_cacheNtB4_15SSLContextCache20get_or_create_digest
_RINvMsc_NtCslDwGP1S1boP_15bun_collections14array_hash_mapINtB6_12ArrayHashMapAhj20_ONtNtNtCs1yUlXPGwCKD_11bun_runtime3api21bun_ssl_context_cache5EntryNtB1m_13DigestContextE9find_hashNCNvMsd_B6_BT_9get_index0EB1q_
_RNvMsc_NtCslDwGP1S1boP_15bun_collections14array_hash_mapINtB5_12ArrayHashMapAhj20_ONtNtNtCs1yUlXPGwCKD_11bun_runtime3api21bun_ssl_context_cache5EntryNtB1l_13DigestContextE13rebuild_indexB1p_
_RNvMsc_NtCslDwGP1S1boP_15bun_collections14array_hash_mapINtB5_12ArrayHashMapAhj20_ONtNtNtCs1yUlXPGwCKD_11bun_runtime3api21bun_ssl_context_cache5EntryNtB1l_13DigestContextE14swap_remove_atB1p_
_RNvMs5_NtCs1yUlXPGwCKD_11bun_runtime5timerNtB5_3All16insert_lock_held
_RNvCsi3R2Foos9Y_8bun_clap24compute_max_help_spacing
_RNvCsi3R2Foos9Y_8bun_clap19param_display_width
_RINvXs1_NtNtCs4YSnrHLetPa_5alloc3vec14spec_from_elemhNtB6_12SpecFromElem9from_elemNtNtBa_5alloc6GlobalECsi3R2Foos9Y_8bun_clap
_RNvCsi3R2Foos9Y_8bun_clap18simple_print_param
_RNvCsi3R2Foos9Y_8bun_clap16pretty_help_desc
_RNvNtCsgtociwQ8c96_8bun_core6output8print_to.73
_RNvCsi3R2Foos9Y_8bun_clap25simple_help_bun_top_level
_RINvMs6_NtCsHrYIFyNDn9_9hashbrown3rawINtB6_8RawTablemINtNtCslDwGP1S1boP_15bun_collections14array_hash_map10IndexAllocNtNtCs4YSnrHLetPa_5alloc5alloc6GlobalEE14reserve_rehashNCNvBS_14index_rehasher0EBU_
_RINvNtCslDwGP1S1boP_15bun_collections14array_hash_map19index_insert_uniqueNtNtCs4YSnrHLetPa_5alloc5alloc6GlobalEB4_
_RINvMs6_NtCsHrYIFyNDn9_9hashbrown3rawINtB6_8RawTablemINtNtCslDwGP1S1boP_15bun_collections14array_hash_map10IndexAllocNtNtCs4YSnrHLetPa_5alloc5alloc6GlobalEE6insertNCNvBS_14index_rehasher0EBU_
_RINvNtCslDwGP1S1boP_15bun_collections14array_hash_map25rebuild_index_from_hashesNtNtCs4YSnrHLetPa_5alloc5alloc6GlobalEB4_
_RNvMs1_NtCslDwGP1S1boP_15bun_collections7vec_extNtB5_14OffsetByteList5write
_RNvMs7_NtCsaSVDFYo9UGz_6bun_io11pipe_writerNtB5_12StreamBuffer5write
_RINvNvMs2_NtCs4YSnrHLetPa_5alloc7raw_vecINtB8_11RawVecInnerpE7reserve21do_reserve_and_handleNtNtBa_5alloc6GlobalECs11Ov3HvMsFC_10bun_router
_RINvNvMs2_NtCs4YSnrHLetPa_5alloc7raw_vecINtB8_11RawVecInnerpE7reserve21do_reserve_and_handleNtNtBa_5alloc6GlobalECs4FfJ4Lq6U93_9bun_paths
_RINvNvMs2_NtCs4YSnrHLetPa_5alloc7raw_vecINtB8_11RawVecInnerpE7reserve21do_reserve_and_handleNtNtBa_5alloc6GlobalECs4QozzFnxerp_13bun_sourcemap
_RINvNvMs2_NtCs4YSnrHLetPa_5alloc7raw_vecINtB8_11RawVecInnerpE7reserve21do_reserve_and_handleNtNtBa_5alloc6GlobalECs4e8grVMhPCb_6bun_md
_RINvNvMs2_NtCs4YSnrHLetPa_5alloc7raw_vecINtB8_11RawVecInnerpE7reserve21do_reserve_and_handleNtNtBa_5alloc6GlobalECs7BjnLBdLAEh_10bun_semver
_RINvNvMs2_NtCs4YSnrHLetPa_5alloc7raw_vecINtB8_11RawVecInnerpE7reserve21do_reserve_and_handleNtNtBa_5alloc6GlobalECsAS3Gme2Se5_17bun_install_types
_RINvNvMs2_NtCs4YSnrHLetPa_5alloc7raw_vecINtB8_11RawVecInnerpE7reserve21do_reserve_and_handleNtNtBa_5alloc6GlobalECsaSVDFYo9UGz_6bun_io
_RINvNvMs2_NtCs4YSnrHLetPa_5alloc7raw_vecINtB8_11RawVecInnerpE7reserve21do_reserve_and_handleNtNtBa_5alloc6GlobalECsd7zAxYwpJ7k_12bun_http_jsc
_RINvNvMs2_NtCs4YSnrHLetPa_5alloc7raw_vecINtB8_11RawVecInnerpE7reserve21do_reserve_and_handleNtNtBa_5alloc6GlobalECsfp4nxnB7RMp_7bun_sys
_RINvNvMs2_NtCs4YSnrHLetPa_5alloc7raw_vecINtB8_11RawVecInnerpE7reserve21do_reserve_and_handleNtNtBa_5alloc6GlobalECshbT0DD8xIT7_17bun_sourcemap_jsc
_RINvNvMs2_NtCs4YSnrHLetPa_5alloc7raw_vecINtB8_11RawVecInnerpE7reserve21do_reserve_and_handleNtNtBa_5alloc6GlobalECskkCovmikPNW_16bun_shell_parser
_RINvNvMs2_NtCs4YSnrHLetPa_5alloc7raw_vecINtB8_11RawVecInnerpE7reserve21do_reserve_and_handleNtNtBa_5alloc6GlobalECskm8mBLjDbro_17bun_js_parser_jsc
_RINvNvMs2_NtCs4YSnrHLetPa_5alloc7raw_vecINtB8_11RawVecInnerpE7reserve21do_reserve_and_handleNtNtBa_5alloc6GlobalECslDwGP1S1boP_15bun_collections
_RNvMs1_NtCslDwGP1S1boP_15bun_collections7vec_extNtB5_14OffsetByteList9remaining
_RNvMs_NtCs4YYdkJyg8hg_7bun_jsc15resolve_messageNtB4_14ResolveMessage3fmt
_RINvNtCshzHRevywlmE_4core3ptr13drop_in_placeNtNtCsg31y7KV7Avq_12bun_resolver6result11ResultUnionECs4YYdkJyg8hg_7bun_jsc
_RINvNtCs4FfJ4Lq6U93_9bun_paths12resolve_path27normalize_string_generic_tzhKb0_Kb1_KB1b_KB1b_INvNtCsgtociwQ8c96_8bun_core8path_sep12is_sep_any_thEECs4QozzFnxerp_13bun_sourcemap
_RINvNtCs4FfJ4Lq6U93_9bun_paths12resolve_path27normalize_string_generic_tzhKb0_Kb1_KB1b_KB1b_INvNtCsgtociwQ8c96_8bun_core8path_sep12is_sep_any_thEECs4YYdkJyg8hg_7bun_jsc
_RINvNtCs4FfJ4Lq6U93_9bun_paths12resolve_path27normalize_string_generic_tzhKb0_Kb1_KB1b_KB1b_INvNtCsgtociwQ8c96_8bun_core8path_sep12is_sep_any_thEECsg31y7KV7Avq_12bun_resolver
_RINvNtCshzHRevywlmE_4core3ptr13drop_in_placeNtNtCsa6AWEs1wmIo_17bun_options_types3jsx6PragmaECs1yUlXPGwCKD_11bun_runtime
_RINvNtCshzHRevywlmE_4core3ptr13drop_in_placeNtNtCsa6AWEs1wmIo_17bun_options_types3jsx6PragmaECs4YYdkJyg8hg_7bun_jsc
_RNvXsk_Cs4YYdkJyg8hg_7bun_jscNtNtCsgtociwQ8c96_8bun_core6string6StringNtB5_9StringJsc17to_error_instance
NodeModuleModule__onRequireExtensionModify
NodeModuleModule__onRequireExtensionModifyNonFunction
_RINvNtCshzHRevywlmE_4core3ptr13drop_in_placeINtNtCs4YSnrHLetPa_5alloc5boxed3BoxSIBH_ShEEECs1yUlXPGwCKD_11bun_runtime
_RINvNtCshzHRevywlmE_4core3ptr13drop_in_placeINtNtCs4YSnrHLetPa_5alloc5boxed3BoxSIBH_ShEEECse0gOrsKjhbD_11bun_bundler
_RNvMs_NtCse0gOrsKjhbD_11bun_bundler10transpilerNtB4_10Transpiler10for_worker
_RNvMs1_NtCse0gOrsKjhbD_11bun_bundler12options_implNtB5_13ESMConditions4init
_RINvNtCshzHRevywlmE_4core3ptr13drop_in_placeINtNtCslDwGP1S1boP_15bun_collections14array_hash_map12ArrayHashMapINtNtCs4YSnrHLetPa_5alloc5boxed3BoxShEuEECs1yUlXPGwCKD_11bun_runtime
_RINvNtCshzHRevywlmE_4core3ptr13drop_in_placeINtNtCslDwGP1S1boP_15bun_collections14array_hash_map18StringArrayHashMapuEECs1yUlXPGwCKD_11bun_runtime
_RINvNtCshzHRevywlmE_4core3ptr13drop_in_placeINtNtCslDwGP1S1boP_15bun_collections14array_hash_map18StringArrayHashMapuEECse0gOrsKjhbD_11bun_bundler
_RINvNtCshzHRevywlmE_4core3ptr13drop_in_placeNtNtCs6ScEuu9uzHZ_7bun_css10css_parser13MinifyOptionsECs5ANwpMICUwc_11bun_css_jsc
_RINvNtCshzHRevywlmE_4core3ptr13drop_in_placeNtNtCslDwGP1S1boP_15bun_collections14array_hash_map9StringSetECsd7zAxYwpJ7k_12bun_http_jsc
_RNvMs_NtCse0gOrsKjhbD_11bun_bundler10transpilerNtB4_10Transpiler17configure_defines
_RINvMsc_NtCslDwGP1S1boP_15bun_collections14array_hash_mapINtB6_12ArrayHashMapyNtNtCs7BjnLBdLAEh_10bun_semver13semver_string6StringNtNtB8_16identity_context23ArrayIdentityContextU64E9find_hashNCNvMsd_B6_BT_9get_index0ECsj5JUsDxu4lF_11bun_install
_RNvMsk_NtCsAS3Gme2Se5_17bun_install_types14resolver_hooksINtB5_9NegatableNtB5_12ArchitectureE5applyCsj5JUsDxu4lF_11bun_install
_RNvMsk_NtCsAS3Gme2Se5_17bun_install_types14resolver_hooksINtB5_9NegatableNtB5_15OperatingSystemE5applyCsj5JUsDxu4lF_11bun_install
_RNvMs7_NtCslDwGP1S1boP_15bun_collections16multi_array_listINtB5_14MultiArrayListNtNtNtCsj5JUsDxu4lF_11bun_install13lockfile_real7package7PackageE22append_assume_capacityB1m_
_RNCNvNtCsj5JUsDxu4lF_11bun_install9migration20migrate_npm_lockfiles7_0B5_
_RNvMso_NtCslDwGP1S1boP_15bun_collections14array_hash_mapINtB5_18StringArrayHashMapuE13with_capacityCsj5JUsDxu4lF_11bun_install
_RNvMso_NtCslDwGP1S1boP_15bun_collections14array_hash_mapINtB5_18StringArrayHashMapuE3putCs1yUlXPGwCKD_11bun_runtime
_RNvMso_NtCslDwGP1S1boP_15bun_collections14array_hash_mapINtB5_18StringArrayHashMapuE3putCsj5JUsDxu4lF_11bun_install
_RINvMs1_NtCsHrYIFyNDn9_9hashbrown3mapINtB6_7HashMapINtNtCslDwGP1S1boP_15bun_collections14array_hash_map16StringHashMapKeyNtNtCsdAZa0WVRlFk_9bun_alloc9ast_alloc8AstAllocENtNtCs8WZIztbKAR_7bun_ast5scope6MemberINtNtCshzHRevywlmE_4core4hash18BuildHasherDefaultNtCslE9Wbi68HL1_10bun_wyhash13OneShotHasherEB1V_E9get_innerShECs4cBhYOTeZUw_13bun_js_parser
_RINvMs1_NtCsHrYIFyNDn9_9hashbrown3mapINtB6_7HashMapNtNtCslDwGP1S1boP_15bun_collections14array_hash_map16StringHashMapKeyINtNtCs4YSnrHLetPa_5alloc5boxed3BoxShEINtNtCshzHRevywlmE_4core4hash18BuildHasherDefaultNtCslE9Wbi68HL1_10bun_wyhash13OneShotHasherENtCsdAZa0WVRlFk_9bun_alloc12DefaultAllocE9get_innerB2t_ECsj5JUsDxu4lF_11bun_install
_RINvMs1_NtCsHrYIFyNDn9_9hashbrown3mapINtB6_7HashMapNtNtCslDwGP1S1boP_15bun_collections14array_hash_map16StringHashMapKeyNtNtCs8WZIztbKAR_7bun_ast4expr4ExprINtNtCshzHRevywlmE_4core4hash18BuildHasherDefaultNtCslE9Wbi68HL1_10bun_wyhash13OneShotHasherENtCsdAZa0WVRlFk_9bun_alloc12DefaultAllocE9get_innerShECs1PzbF0n7nMe_11bun_parsers
_RNvNtNtCsj5JUsDxu4lF_11bun_install20package_manager_real13patch_package48path_argument_relative_to_root_workspace_package
_RNvNtNtCsj5JUsDxu4lF_11bun_install20package_manager_real13patch_package29pkg_info_for_name_and_version
_RNvMNtCsg31y7KV7Avq_12bun_resolver2fsNtB2_10FileSystem15abs_buf_checked
_RINvNtCs4FfJ4Lq6U93_9bun_paths12resolve_path20__join_abs_string_bufKb0_NtNtB2_8platform5LooseECsg31y7KV7Avq_12bun_resolver
_RNvNtCse0gOrsKjhbD_11bun_bundler12options_impl21init_external_modules
_RNvXNtCse0gOrsKjhbD_11bun_bundler12options_implNtNtCs8WZIztbKAR_7bun_ast6target6TargetNtB2_9TargetExt14out_extensions
_RNvNtCse0gOrsKjhbD_11bun_bundler12options_impl15open_output_dir
_RINvMs6_NtCsHrYIFyNDn9_9hashbrown3rawINtB6_8RawTableTNtNtCslDwGP1S1boP_15bun_collections14array_hash_map16StringHashMapKeyINtNtCs4YSnrHLetPa_5alloc5boxed3BoxShEENtCsdAZa0WVRlFk_9bun_alloc12DefaultAllocE14reserve_rehashNCINvNtB8_3map11make_hasherBP_B1W_INtNtCshzHRevywlmE_4core4hash18BuildHasherDefaultNtCslE9Wbi68HL1_10bun_wyhash13OneShotHasherEE0ECse0gOrsKjhbD_11bun_bundler
_RINvMs6_NtCsHrYIFyNDn9_9hashbrown3rawINtB6_8RawTableTNtNtCslDwGP1S1boP_15bun_collections14array_hash_map16StringHashMapKeyNtNtCsj5JUsDxu4lF_11bun_install9migration10IdMapValueENtCsdAZa0WVRlFk_9bun_alloc12DefaultAllocE14reserve_rehashNCINvNtB8_3map11make_hasherBP_B1W_INtNtCshzHRevywlmE_4core4hash18BuildHasherDefaultNtCslE9Wbi68HL1_10bun_wyhash13OneShotHasherEE0EB20_
_RINvMs6_NtCsHrYIFyNDn9_9hashbrown3rawINtB6_8RawTableTNtNtCslDwGP1S1boP_15bun_collections14array_hash_map16StringHashMapKeyONtNtCse0gOrsKjhbD_11bun_bundler10parse_task9ParseTaskENtCsdAZa0WVRlFk_9bun_alloc12DefaultAllocE14reserve_rehashNCINvNtB8_3map11make_hasherBP_B1W_INtNtCshzHRevywlmE_4core4hash18BuildHasherDefaultNtCslE9Wbi68HL1_10bun_wyhash13OneShotHasherEE0EB21_
_RINvMs6_NtCsHrYIFyNDn9_9hashbrown3rawINtB6_8RawTableTNtNtCslDwGP1S1boP_15bun_collections14array_hash_map16StringHashMapKeyONtNtCsg31y7KV7Avq_12bun_resolver7fs_full5EntryENtCsdAZa0WVRlFk_9bun_alloc12DefaultAllocE14reserve_rehashNCINvNtB8_3map11make_hasherBP_B1W_INtNtCshzHRevywlmE_4core4hash18BuildHasherDefaultNtCslE9Wbi68HL1_10bun_wyhash13OneShotHasherEE0EB21_
_RINvMs6_NtCsHrYIFyNDn9_9hashbrown3rawINtB6_8RawTableTNtNtCslDwGP1S1boP_15bun_collections14array_hash_map16StringHashMapKeyRShENtCsdAZa0WVRlFk_9bun_alloc12DefaultAllocE14reserve_rehashNCINvNtB8_3map11make_hasherBP_B1W_INtNtCshzHRevywlmE_4core4hash18BuildHasherDefaultNtCslE9Wbi68HL1_10bun_wyhash13OneShotHasherEE0ECse0gOrsKjhbD_11bun_bundler
_RINvMs6_NtCsHrYIFyNDn9_9hashbrown3rawINtB6_8RawTableTNtNtCslDwGP1S1boP_15bun_collections14array_hash_map16StringHashMapKeyONtNtNtCs1yUlXPGwCKD_11bun_runtime6server11html_bundle5RouteENtCsdAZa0WVRlFk_9bun_alloc12DefaultAllocE14reserve_rehashNCINvNtB8_3map11make_hasherBP_B1W_INtNtCshzHRevywlmE_4core4hash18BuildHasherDefaultNtCslE9Wbi68HL1_10bun_wyhash13OneShotHasherEE0EB23_
_RINvMs6_NtCsHrYIFyNDn9_9hashbrown3rawINtB6_8RawTableTNtNtCslDwGP1S1boP_15bun_collections14array_hash_map16StringHashMapKeybENtCsdAZa0WVRlFk_9bun_alloc12DefaultAllocE14reserve_rehashNCINvNtB8_3map11make_hasherBP_bINtNtCshzHRevywlmE_4core4hash18BuildHasherDefaultNtCslE9Wbi68HL1_10bun_wyhash13OneShotHasherEE0ECs4cBhYOTeZUw_13bun_js_parser
_RINvMs6_NtCsHrYIFyNDn9_9hashbrown3rawINtB6_8RawTableTNtNtCslDwGP1S1boP_15bun_collections14array_hash_map16StringHashMapKeyyENtCsdAZa0WVRlFk_9bun_alloc12DefaultAllocE14reserve_rehashNCINvNtB8_3map11make_hasherBP_yINtNtCshzHRevywlmE_4core4hash18BuildHasherDefaultNtCslE9Wbi68HL1_10bun_wyhash13OneShotHasherEE0ECse0gOrsKjhbD_11bun_bundler
_RINvNtNtNtCshzHRevywlmE_4core5slice4sort6stable14driftsort_mainNtNtCse0gOrsKjhbD_11bun_bundler5chunk16CrossChunkImportNCINvMNtCs4YSnrHLetPa_5alloc5sliceSBZ_11sort_by_keymNCNvMsk_B11_BZ_26sorted_cross_chunk_importss_0E0INtNtB20_3vec3VecBZ_EEB13_
_RINvNtNtNtNtCshzHRevywlmE_4core5slice4sort6stable5drift4sortNtNtCse0gOrsKjhbD_11bun_bundler5chunk16CrossChunkImportNCINvMNtCs4YSnrHLetPa_5alloc5sliceSBW_11sort_by_keymNCNvMsk_BY_BW_26sorted_cross_chunk_importss_0E0EB10_
_RINvMs6_NtCsHrYIFyNDn9_9hashbrown3rawINtB6_8RawTableTNtNtCslDwGP1S1boP_15bun_collections14array_hash_map16StringHashMapKeyINtNtCs4YSnrHLetPa_5alloc3vec3VecINtNtB21_5boxed3BoxShEEENtCsdAZa0WVRlFk_9bun_alloc12DefaultAllocE14reserve_rehashNCINvNtB8_3map11make_hasherBP_B1W_INtNtCshzHRevywlmE_4core4hash18BuildHasherDefaultNtCslE9Wbi68HL1_10bun_wyhash13OneShotHasherEE0ECs1yUlXPGwCKD_11bun_runtime
_RINvMs6_NtCsHrYIFyNDn9_9hashbrown3rawINtB6_8RawTableTNtNtCslDwGP1S1boP_15bun_collections14array_hash_map16StringHashMapKeyINtNtCs4YSnrHLetPa_5alloc3vec3VecNtNtCsj5JUsDxu4lF_11bun_install4yarn11VersionInfoEENtCsdAZa0WVRlFk_9bun_alloc12DefaultAllocE14reserve_rehashNCINvNtB8_3map11make_hasherBP_B1W_INtNtCshzHRevywlmE_4core4hash18BuildHasherDefaultNtCslE9Wbi68HL1_10bun_wyhash13OneShotHasherEE0EB2x_
_RINvMs6_NtCsHrYIFyNDn9_9hashbrown3rawINtB6_8RawTableTNtNtCslDwGP1S1boP_15bun_collections14array_hash_map16StringHashMapKeyINtNtCs4YSnrHLetPa_5alloc3vec3VecRShEENtCsdAZa0WVRlFk_9bun_alloc12DefaultAllocE14reserve_rehashNCINvNtB8_3map11make_hasherBP_B1W_INtNtCshzHRevywlmE_4core4hash18BuildHasherDefaultNtCslE9Wbi68HL1_10bun_wyhash13OneShotHasherEE0ECse0gOrsKjhbD_11bun_bundler
_RINvNtCsHrYIFyNDn9_9hashbrown3map9make_hashINtNtCslDwGP1S1boP_15bun_collections14array_hash_map16StringHashMapKeyNtNtCsdAZa0WVRlFk_9bun_alloc9ast_alloc8AstAllocEINtNtCshzHRevywlmE_4core4hash18BuildHasherDefaultNtCslE9Wbi68HL1_10bun_wyhash13OneShotHasherEECs4cBhYOTeZUw_13bun_js_parser
_RINvNtCsHrYIFyNDn9_9hashbrown3map9make_hashNtNtCslDwGP1S1boP_15bun_collections14array_hash_map16StringHashMapKeyINtNtCshzHRevywlmE_4core4hash18BuildHasherDefaultNtCslE9Wbi68HL1_10bun_wyhash13OneShotHasherEECs11Ov3HvMsFC_10bun_router
_RINvNtCsHrYIFyNDn9_9hashbrown3map9make_hashNtNtCslDwGP1S1boP_15bun_collections14array_hash_map16StringHashMapKeyINtNtCshzHRevywlmE_4core4hash18BuildHasherDefaultNtCslE9Wbi68HL1_10bun_wyhash13OneShotHasherEECse0gOrsKjhbD_11bun_bundler
_RINvNtCsHrYIFyNDn9_9hashbrown3map9make_hashNtNtCslDwGP1S1boP_15bun_collections14array_hash_map16StringHashMapKeyINtNtCshzHRevywlmE_4core4hash18BuildHasherDefaultNtCslE9Wbi68HL1_10bun_wyhash13OneShotHasherEECskEEiPoOGs5g_11bun_sql_jsc
_RNvMs0_CsesS3tlnmkh5_7bun_urlNtB5_3URL17href_without_auth
_RNvMs0_CsesS3tlnmkh5_7bun_urlNtB5_3URL5parse
_RNvMs2_CsesS3tlnmkh5_7bun_urlNtB5_14QueryStringMap17init_with_scanner
_RINvNtCshzHRevywlmE_4core3ptr13drop_in_placeINtNtCslDwGP1S1boP_15bun_collections14array_hash_map13StringHashMapNtNtCs4cBhYOTeZUw_13bun_js_parser7defines10DefineDataEECse0gOrsKjhbD_11bun_bundler
_RINvNtCshzHRevywlmE_4core3ptr13drop_in_placeINtNtCs4YSnrHLetPa_5alloc3vec3VecNtNtCs4cBhYOTeZUw_13bun_js_parser7defines9DotDefineEECse0gOrsKjhbD_11bun_bundler
_RNvXsq_NtCsa6AWEs1wmIo_17bun_options_types3jsxNtB5_6PragmaNtNtCshzHRevywlmE_4core5clone5Clone5clone
_RNvMsl_NtCslDwGP1S1boP_15bun_collections14array_hash_mapINtB5_18StringArrayHashMapuE5cloneCse0gOrsKjhbD_11bun_bundler
_RNvMs0_NtCse0gOrsKjhbD_11bun_bundler10transpilerNtB5_10Transpiler14run_env_loader
_RNCINvMs3_NtCs8WZIztbKAR_7bun_ast4exprNtB8_4Expr17for_each_propertyNCNCNvMs4_NtCsg31y7KV7Avq_12bun_resolver12package_jsonNtB1d_11PackageJSON17parse_macros_json00E0B1f_
_RNvMs8_NtCsg31y7KV7Avq_12bun_resolver5cacheNtB5_2Fs19reset_shared_buffer
_RNvMs9_NtCsg31y7KV7Avq_12bun_resolver2fsNtB5_6RealFS11tmpdir_path
_RNvMsb_NtCsg31y7KV7Avq_12bun_resolver2fsNtB5_12DirnameStore5print
_RNvNtCsg31y7KV7Avq_12bun_resolver14node_fallbacks18contents_from_path
_RNvXNtCsg31y7KV7Avq_12bun_resolver7optionsNtB2_15ExternalModulesNtNtCshzHRevywlmE_4core5clone5Clone5clone
_RNvXs2_NtCsg31y7KV7Avq_12bun_resolver18dir_entry_accessorNtB5_16DirEntryAccessorNtNtCsgCxAifIVzWK_8bun_glob11glob_walker8Accessor6openat
_RNvXs2_NtCsg31y7KV7Avq_12bun_resolver18dir_entry_accessorNtB5_16DirEntryAccessorNtNtCsgCxAifIVzWK_8bun_glob11glob_walker8Accessor6statat
_RNvMs3_NtCs4YSnrHLetPa_5alloc7raw_vecINtB5_6RawVecuE8grow_oneCslDwGP1S1boP_15bun_collections
_RNvMs3_NtCs4YSnrHLetPa_5alloc7raw_vecINtB5_6RawVecuNtNtCsdAZa0WVRlFk_9bun_alloc9ast_alloc8AstAllocE8grow_oneCsc1JzvcHHBIg_18bun_react_compiler
_RNvMs3_NtCslDwGP1S1boP_15bun_collections7bit_setNtB5_22DynamicBitSetUnmanaged6resize
_RNvMs3_NtCslDwGP1S1boP_15bun_collections7bit_setNtB5_22DynamicBitSetUnmanaged5clone
_RNvMs7_NtCslDwGP1S1boP_15bun_collections7bit_setNtB5_10AutoBitSet10init_empty
_RNvMs7_NtCslDwGP1S1boP_15bun_collections7bit_setNtB5_10AutoBitSet14find_first_set
_RNvMs7_NtCslDwGP1S1boP_15bun_collections7bit_setNtB5_10AutoBitSet3set
_RNvMs7_NtCslDwGP1S1boP_15bun_collections7bit_setNtB5_10AutoBitSet5count
_RNvMs9_NtCslDwGP1S1boP_15bun_collections7bit_setNtB5_13DynamicBitSet10init_empty
_RNvMs9_NtCslDwGP1S1boP_15bun_collections7bit_setNtB5_13DynamicBitSet15set_range_value
_RNvMs9_NtCslDwGP1S1boP_15bun_collections7bit_setNtB5_13DynamicBitSet3set
_RNvMs9_NtCslDwGP1S1boP_15bun_collections7bit_setNtB5_13DynamicBitSet6is_set
_RNvMsK_NtCslDwGP1S1boP_15bun_collections14array_hash_mapNtB5_9StringSet5clone
_RNvNtCsj5JUsDxu4lF_11bun_install4yarn12process_deps
_RNvMs2_NtCslDwGP1S1boP_15bun_collections12zig_hash_mapINtB5_7HashMapmINtNtCs4YSnrHLetPa_5alloc3vec3VechEE4growCsj5JUsDxu4lF_11bun_install
_RINvNtCslDwGP1S1boP_15bun_collections14array_hash_map7box_keyNtCsdAZa0WVRlFk_9bun_alloc12DefaultAllocECsj5JUsDxu4lF_11bun_install
_RNvXse_NtCs4YSnrHLetPa_5alloc5boxedINtB5_3BoxShENtNtCshzHRevywlmE_4core5clone5Clone5cloneCs1yUlXPGwCKD_11bun_runtime
_RNvXse_NtCs4YSnrHLetPa_5alloc5boxedINtB5_3BoxShENtNtCshzHRevywlmE_4core5clone5Clone5cloneCs4cBhYOTeZUw_13bun_js_parser
_RNvXse_NtCs4YSnrHLetPa_5alloc5boxedINtB5_3BoxShENtNtCshzHRevywlmE_4core5clone5Clone5cloneCs4e8grVMhPCb_6bun_md
_RNvMs1_NtCsHrYIFyNDn9_9hashbrown3mapINtB5_7HashMapNtNtCslDwGP1S1boP_15bun_collections14array_hash_map16StringHashMapKeyNtNtCsj5JUsDxu4lF_11bun_install9migration10IdMapValueINtNtCshzHRevywlmE_4core4hash18BuildHasherDefaultNtCslE9Wbi68HL1_10bun_wyhash13OneShotHasherENtCsdAZa0WVRlFk_9bun_alloc12DefaultAllocE6insertB1X_
_RNvNtCsj5JUsDxu4lF_11bun_install9migration16pkg_flag_is_true
_RNvNtCsj5JUsDxu4lF_11bun_install9migration22package_name_from_path
_RNvMsI_NtCslDwGP1S1boP_15bun_collections14array_hash_mapINtB5_13StringHashMapINtNtCs4YSnrHLetPa_5alloc5boxed3BoxShEE3putCsj5JUsDxu4lF_11bun_install
_RNvMsc_NtCslDwGP1S1boP_15bun_collections14array_hash_mapINtB5_12ArrayHashMapyNtNtCs7BjnLBdLAEh_10bun_semver13semver_string6StringNtNtB7_16identity_context23ArrayIdentityContextU64E7reserveCsj5JUsDxu4lF_11bun_install
_RNvMsc_NtCslDwGP1S1boP_15bun_collections14array_hash_mapINtB5_12ArrayHashMapyINtNtCs7BjnLBdLAEh_10bun_semver7version11VersionTypeyENtNtB7_16identity_context23ArrayIdentityContextU64E7reserveCsj5JUsDxu4lF_11bun_install
_RNvMsc_CshsOJFMnEVwp_8smallvecINtB5_8SmallVecAINtNtCscEuoEywzlQO_9selectors6parser9ComponentNtNtNtCs4pSCigdXcdu_8lol_html12selectors_vm6parser22SelectorImplDescriptorEj20_E21reserve_one_uncheckedCs1yUlXPGwCKD_11bun_runtime
_RNvMsc_CshsOJFMnEVwp_8smallvecINtB5_8SmallVecAINtNtCscEuoEywzlQO_9selectors6parser9ComponentNtNtNtCs4pSCigdXcdu_8lol_html12selectors_vm6parser22SelectorImplDescriptorEj20_E21reserve_one_uncheckedCse0gOrsKjhbD_11bun_bundler
_RNvNtCsgKpvYBC9WkR_9cssparser6macros32__cssparser_internal_to_lowercase
_RNvNtCs4YSnrHLetPa_5alloc5boxed14box_new_uninit
_RNvNtCs4YSnrHLetPa_5alloc5boxed14box_new_uninit.1820
_RNvNtCs4YSnrHLetPa_5alloc5boxed14box_new_uninit.2015
_RNvNtCs4YSnrHLetPa_5alloc5boxed14box_new_uninit.523
_RNvNtCs4YSnrHLetPa_5alloc5boxed14box_new_uninit.954
_RNvMsc_CshsOJFMnEVwp_8smallvecINtB5_8SmallVecAINtNtCscEuoEywzlQO_9selectors6parser9ComponentNtNtNtCs4pSCigdXcdu_8lol_html12selectors_vm6parser22SelectorImplDescriptorEj20_E4pushCs1yUlXPGwCKD_11bun_runtime
_RNvMsc_CshsOJFMnEVwp_8smallvecINtB5_8SmallVecAINtNtCscEuoEywzlQO_9selectors6parser9ComponentNtNtNtCs4pSCigdXcdu_8lol_html12selectors_vm6parser22SelectorImplDescriptorEj20_E4pushCse0gOrsKjhbD_11bun_bundler
_RNvXs1_NtNtCsgtociwQ8c96_8bun_core4util2ioINtNtCs4YSnrHLetPa_5alloc3vec3VechENtB5_5Write9write_allCs1yUlXPGwCKD_11bun_runtime
_RNvXs1_NtNtCsgtociwQ8c96_8bun_core4util2ioINtNtCs4YSnrHLetPa_5alloc3vec3VechENtB5_5Write9write_allCs4YYdkJyg8hg_7bun_jsc
_RNvXs1_NtNtCsgtociwQ8c96_8bun_core4util2ioINtNtCs4YSnrHLetPa_5alloc3vec3VechENtB5_5Write9write_allCs5ANwpMICUwc_11bun_css_jsc
_RNvXs1_NtNtCsgtociwQ8c96_8bun_core4util2ioINtNtCs4YSnrHLetPa_5alloc3vec3VechENtB5_5Write9write_allCs6ScEuu9uzHZ_7bun_css
_RNvXs1_NtNtCsgtociwQ8c96_8bun_core4util2ioINtNtCs4YSnrHLetPa_5alloc3vec3VechENtB5_5Write9write_allCsarmeCvIOLjh_15bun_install_jsc
_RNvXs1_NtNtCsgtociwQ8c96_8bun_core4util2ioINtNtCs4YSnrHLetPa_5alloc3vec3VechENtB5_5Write9write_allCse0gOrsKjhbD_11bun_bundler
_RNvXs1_NtNtCsgtociwQ8c96_8bun_core4util2ioINtNtCs4YSnrHLetPa_5alloc3vec3VechENtB5_5Write9write_allCsj5JUsDxu4lF_11bun_install
_RNvXsZ_NtCs4YSnrHLetPa_5alloc6stringNtB5_6StringNtNtCshzHRevywlmE_4core3fmt5Write9write_str.1262
_RNvXsZ_NtCs4YSnrHLetPa_5alloc6stringNtB5_6StringNtNtCshzHRevywlmE_4core3fmt5Write9write_str.2000
_RNvXsZ_NtCs4YSnrHLetPa_5alloc6stringNtB5_6StringNtNtCshzHRevywlmE_4core3fmt5Write9write_str.262
_RNvXsZ_NtCs4YSnrHLetPa_5alloc6stringNtB5_6StringNtNtCshzHRevywlmE_4core3fmt5Write9write_str.4487
_RNvXsZ_NtCs4YSnrHLetPa_5alloc6stringNtB5_6StringNtNtCshzHRevywlmE_4core3fmt5Write9write_str.61
_RNvYINtNtCs4YSnrHLetPa_5alloc3vec3VechENtNtNtCsgtociwQ8c96_8bun_core4util2io5Write9write_strCs1yUlXPGwCKD_11bun_runtime
_RNvYINtNtCs4YSnrHLetPa_5alloc3vec3VechENtNtNtCsgtociwQ8c96_8bun_core4util2io5Write9write_strCs4YYdkJyg8hg_7bun_jsc
_RNvYINtNtCs4YSnrHLetPa_5alloc3vec3VechENtNtNtCsgtociwQ8c96_8bun_core4util2io5Write9write_strCs5ANwpMICUwc_11bun_css_jsc
_RNvYINtNtCs4YSnrHLetPa_5alloc3vec3VechENtNtNtCsgtociwQ8c96_8bun_core4util2io5Write9write_strCs6ScEuu9uzHZ_7bun_css
_RNvYINtNtCs4YSnrHLetPa_5alloc3vec3VechENtNtNtCsgtociwQ8c96_8bun_core4util2io5Write9write_strCsarmeCvIOLjh_15bun_install_jsc
_RNvYINtNtCs4YSnrHLetPa_5alloc3vec3VechENtNtNtCsgtociwQ8c96_8bun_core4util2io5Write9write_strCse0gOrsKjhbD_11bun_bundler
_RNvYINtNtCs4YSnrHLetPa_5alloc3vec3VechENtNtNtCsgtociwQ8c96_8bun_core4util2io5Write9write_strCsj5JUsDxu4lF_11bun_install
_RNvXsZ_NtCs4YSnrHLetPa_5alloc6stringNtB5_6StringNtNtCshzHRevywlmE_4core3fmt5Write10write_char.1263
_RNvXsZ_NtCs4YSnrHLetPa_5alloc6stringNtB5_6StringNtNtCshzHRevywlmE_4core3fmt5Write10write_char.2001
_RNvXsZ_NtCs4YSnrHLetPa_5alloc6stringNtB5_6StringNtNtCshzHRevywlmE_4core3fmt5Write10write_char.263
_RNvXsZ_NtCs4YSnrHLetPa_5alloc6stringNtB5_6StringNtNtCshzHRevywlmE_4core3fmt5Write10write_char.4488
_RNvXsZ_NtCs4YSnrHLetPa_5alloc6stringNtB5_6StringNtNtCshzHRevywlmE_4core3fmt5Write10write_char.62
_RNvYNtNtCs4YSnrHLetPa_5alloc6string6StringNtNtCshzHRevywlmE_4core3fmt5Write9write_fmtCs1yUlXPGwCKD_11bun_runtime
_RNvYNtNtCs4YSnrHLetPa_5alloc6string6StringNtNtCshzHRevywlmE_4core3fmt5Write9write_fmtCs4YYdkJyg8hg_7bun_jsc
_RNvYNtNtCs4YSnrHLetPa_5alloc6string6StringNtNtCshzHRevywlmE_4core3fmt5Write9write_fmtCs7QmvgyBSXbk_3std
_RNvYNtNtCs4YSnrHLetPa_5alloc6string6StringNtNtCshzHRevywlmE_4core3fmt5Write9write_fmtCse0gOrsKjhbD_11bun_bundler
_RNvYNtNtCs4YSnrHLetPa_5alloc6string6StringNtNtCshzHRevywlmE_4core3fmt5Write9write_fmtCsgtociwQ8c96_8bun_core
_RNSNvYNCNvMs2_NtCse0gOrsKjhbD_11bun_bundler11HTMLScannerINtBc_13HTMLProcessorNtNtNtBe_14linker_context38generate_compile_result_for_html_chunk10HTMLLoaderKb1_E3runs_0INtNtNtCshzHRevywlmE_4core3ops8function6FnOnceTQNtNtNtCs4pSCigdXcdu_8lol_html16rewritable_units7element7ElementEE9call_once6vtableBe_
_RNCNvMs2_NtCse0gOrsKjhbD_11bun_bundler11HTMLScannerINtB7_13HTMLProcessorNtNtNtB9_14linker_context38generate_compile_result_for_html_chunk10HTMLLoaderKb1_E3runs_0B9_
_RNvMs_NtNtCse0gOrsKjhbD_11bun_bundler14linker_context38generate_compile_result_for_html_chunkNtB4_10HTMLLoader20end_html_tag_handler
_RNvMs_NtNtCse0gOrsKjhbD_11bun_bundler14linker_context38generate_compile_result_for_html_chunkNtB4_10HTMLLoader20end_body_tag_handler
_RNvMs_NtNtCse0gOrsKjhbD_11bun_bundler14linker_context38generate_compile_result_for_html_chunkNtB4_10HTMLLoader20end_head_tag_handler
_RNvMs_NtNtCse0gOrsKjhbD_11bun_bundler14linker_context38generate_compile_result_for_html_chunkNtB4_10HTMLLoader13add_head_tags
_RNvMs_NtNtCse0gOrsKjhbD_11bun_bundler14linker_context38generate_compile_result_for_html_chunkNtB4_10HTMLLoader13add_body_tags
_RNSNvYNCNvMs_NtNtCse0gOrsKjhbD_11bun_bundler14linker_context38generate_compile_result_for_html_chunkNtBb_10HTMLLoader24register_end_tag_handler0INtNtNtCshzHRevywlmE_4core3ops8function6FnOnceTQNtNtNtNtCs4pSCigdXcdu_8lol_html16rewritable_units6tokens7end_tag6EndTagEE9call_once6vtableBf_
_RNvXNtNtCs4pSCigdXcdu_8lol_html16transform_stream10dispatcherNCNvMs2_NtCse0gOrsKjhbD_11bun_bundler11HTMLScannerINtB15_13HTMLProcessorNtNtNtB17_14linker_context38generate_compile_result_for_html_chunk10HTMLLoaderKb1_E3runs0_0NtB2_10OutputSink12handle_chunkB17_
_RINvNtCshzHRevywlmE_4core3ptr13drop_in_placeINtNtNtCs4pSCigdXcdu_8lol_html8rewriter18rewrite_controller21HtmlRewriteControllerNtNtBL_8settings17LocalHandlerTypesEECse0gOrsKjhbD_11bun_bundler
_RNCNvMs2_NtCse0gOrsKjhbD_11bun_bundler11HTMLScannerINtB7_13HTMLProcessorNtNtNtB9_14linker_context38generate_compile_result_for_html_chunk10HTMLLoaderKb1_E3run0B9_
_RNSNvYNCNvMs2_NtCse0gOrsKjhbD_11bun_bundler11HTMLScannerINtBc_13HTMLProcessorNtNtNtBe_14linker_context38generate_compile_result_for_html_chunk10HTMLLoaderKb1_E3run0INtNtNtCshzHRevywlmE_4core3ops8function6FnOnceTQNtNtNtCs4pSCigdXcdu_8lol_html16rewritable_units7element7ElementEE9call_once6vtableBe_
_RNvMNtNtCs4pSCigdXcdu_8lol_html16rewritable_units7elementNtB2_7Element13has_attributeCse0gOrsKjhbD_11bun_bundler
_RNvNvNtCsg31y7KV7Avq_12bun_resolver14node_fallbacks12init_modulessi_3get
_RNvNvNtCsg31y7KV7Avq_12bun_resolver14node_fallbacks12init_modulessj_3get
_RNvNvNtCsg31y7KV7Avq_12bun_resolver14node_fallbacks12init_modulessk_3get
_RNvYNCINvMs0_NtNtCs7QmvgyBSXbk_3std4sync4onceNtBb_4Once9call_onceNvNtCsg31y7KV7Avq_12bun_resolver14node_fallbacks12init_modulesE0INtNtNtCshzHRevywlmE_4core3ops8function6FnOnceTRNtBb_9OnceStateEE9call_onceB15_
_RNvMs3_NtCsg31y7KV7Avq_12bun_resolver8resolverNtB5_8Resolver29bust_dir_cache_from_specifier
_RNvMs3_NtCsg31y7KV7Avq_12bun_resolver8resolverNtB5_8Resolver5init1
_RNvMs3_NtCsg31y7KV7Avq_12bun_resolver8resolverNtB5_8Resolver8bin_dirs
_RNvMs4_NtCsg31y7KV7Avq_12bun_resolver12package_jsonNtB5_11PackageJSON17parse_macros_json
_RNvMs1_NtCsdoXM2swoJDz_9hashbrown3mapINtB5_7HashMapyNtCsdAZa0WVRlFk_9bun_alloc9IndexTypeINtNtCshzHRevywlmE_4core4hash18BuildHasherDefaultNtBQ_17IdentityU64HasherEE6insertCsg31y7KV7Avq_12bun_resolver
_RNvNvNtCsg31y7KV7Avq_12bun_resolver7fs_full22filename_store_backing4slow
_RNvMsI_NtCslDwGP1S1boP_15bun_collections14array_hash_mapINtB5_13StringHashMapONtNtCsg31y7KV7Avq_12bun_resolver7fs_full5EntryE21put_static_key_hashedB1i_
_RNvMsp_CsdAZa0WVRlFk_9bun_allocINtB5_7BSSListNtNtCsg31y7KV7Avq_12bun_resolver7fs_full5EntryKj2000_E22append_overflow_uninitBL_
_RNvMs2_NtCsg31y7KV7Avq_12bun_resolver8dir_infoNtB5_7DirInfo17get_entries_const
_RNvMs2_NtCsg31y7KV7Avq_12bun_resolver8dir_infoNtB5_7DirInfo27get_enclosing_browser_scope
_RNvNtCsg31y7KV7Avq_12bun_resolver8dir_info22hash_map_instance_init
_RNvMs3_NtCs4YSnrHLetPa_5alloc7raw_vecINtB5_6RawVecINtNtB7_5boxed3BoxNtNtCsg31y7KV7Avq_12bun_resolver12package_json11PackageJSONEE8grow_oneB18_
_RNvMs3_NtCs4YSnrHLetPa_5alloc7raw_vecINtB5_6RawVecNtNtCs7BjnLBdLAEh_10bun_semver13semver_string6StringE8grow_oneCs4QozzFnxerp_13bun_sourcemap
_RNvMs3_NtCs4YSnrHLetPa_5alloc7raw_vecINtB5_6RawVecNtNtCs7BjnLBdLAEh_10bun_semver13semver_string6StringE8grow_oneCsg31y7KV7Avq_12bun_resolver
_RNvMs3_NtCs4YSnrHLetPa_5alloc7raw_vecINtB5_6RawVecNtNtCsAS3Gme2Se5_17bun_install_types14resolver_hooks10DependencyE8grow_oneCsg31y7KV7Avq_12bun_resolver
_RNvMs3_NtCsg31y7KV7Avq_12bun_resolver8data_urlNtB5_7DataURL11decode_data
_RNvMs3_NtCsj5JUsDxu4lF_11bun_install13lockfile_realNtB5_8Lockfile17clean_with_logger
_RNvMNtCs8UsW7NX00zL_8bun_perf12system_timerNtB2_5Timer5start
_RNvNtCsj5JUsDxu4lF_11bun_install13lockfile_real25clean_verbose_timer_start
_RNvNtCsj5JUsDxu4lF_11bun_install13lockfile_real37clean_preprocess_update_requests_cold
_RNvMs3_NtCs4YSnrHLetPa_5alloc7raw_vecINtB5_6RawVecAmj3_E8grow_oneCsflik4Lp6Ma9_8bun_http
_RNvMs3_NtCs4YSnrHLetPa_5alloc7raw_vecINtB5_6RawVecINtNtCshzHRevywlmE_4core6option6OptionTNtCs8WZIztbKAR_7bun_ast3RefuEEE8grow_oneCs4cBhYOTeZUw_13bun_js_parser
_RNvMs3_NtCs4YSnrHLetPa_5alloc7raw_vecINtB5_6RawVecINtNtCshzHRevywlmE_4core6option6OptionTmmEEE8grow_oneCse0gOrsKjhbD_11bun_bundler
_RNvMs3_NtCs4YSnrHLetPa_5alloc7raw_vecINtB5_6RawVecNtNtCs4e8grVMhPCb_6bun_md5types12VerbatimLineE8grow_oneBQ_
_RNvMs3_NtCs4YSnrHLetPa_5alloc7raw_vecINtB5_6RawVecNtNtCsgCxAifIVzWK_8bun_glob11glob_walker9ComponentE8grow_oneCsj5JUsDxu4lF_11bun_install
_RNvMs3_NtCs4YSnrHLetPa_5alloc7raw_vecINtB5_6RawVecNtNtNtNtCs1yUlXPGwCKD_11bun_runtime4bake10dev_server21directory_watch_store5EntryE8grow_oneBU_
_RNvMs3_NtCse0gOrsKjhbD_11bun_bundler11thread_poolNtB5_6Worker15deinit_callback
_RNvMs3_NtCse0gOrsKjhbD_11bun_bundler11thread_poolNtB5_6Worker6deinit
_RNvMs0_NtCse0gOrsKjhbD_11bun_bundler10transpilerNtB5_10Transpiler30configure_linker_with_auto_jsx
_RNvNtCse0gOrsKjhbD_11bun_bundler6linker4dupe
_RINvNtCs4FfJ4Lq6U93_9bun_paths12resolve_path20__join_abs_string_bufKb0_NtNtB2_8platform5PosixECsg31y7KV7Avq_12bun_resolver
_RNvMsc_NtCsg31y7KV7Avq_12bun_resolver2fsNtB5_13FilenameStore12append_slice
_RNvMs7_NtCsg31y7KV7Avq_12bun_resolver6resultNtB5_9DebugLogs8add_note
_RNvMs3_NtCsg31y7KV7Avq_12bun_resolver8resolverNtB5_8Resolver13load_as_index
_RNvMs3_NtCsg31y7KV7Avq_12bun_resolver8resolverNtB5_8Resolver25load_index_with_extension
_RNvMs3_NtCsg31y7KV7Avq_12bun_resolver8resolverNtB5_8Resolver25dir_info_cached_maybe_log
_RNvMsw_CsdAZa0WVRlFk_9bun_allocINtB5_11BSSMapInnerNtNtCsg31y7KV7Avq_12bun_resolver8dir_info7DirInfoKj800_Kb1_E10get_or_putBQ_
_RNvMs3_NtCsg31y7KV7Avq_12bun_resolver8resolverNtB5_8Resolver20dir_info_cached_miss
_RINvMs6_NtCsHrYIFyNDn9_9hashbrown3rawINtB6_8RawTableTNtNtCslDwGP1S1boP_15bun_collections14array_hash_map16StringHashMapKeyNtNtCsg31y7KV7Avq_12bun_resolver14node_fallbacks14FallbackModuleENtCsdAZa0WVRlFk_9bun_alloc12DefaultAllocE14reserve_rehashNCINvNtB8_3map11make_hasherBP_B1W_INtNtCshzHRevywlmE_4core4hash18BuildHasherDefaultNtCslE9Wbi68HL1_10bun_wyhash13OneShotHasherEE0EB20_
_RINvMs6_NtCsdoXM2swoJDz_9hashbrown3rawINtB6_8RawTableTyNtCsdAZa0WVRlFk_9bun_alloc9IndexTypeEE14reserve_rehashNCINvNtB8_3map11make_hasheryBR_INtNtCshzHRevywlmE_4core4hash18BuildHasherDefaultNtBT_17IdentityU64HasherEE0ECsg31y7KV7Avq_12bun_resolver
_RNvMs8_NtCsg31y7KV7Avq_12bun_resolver7fs_fullNtB5_8DirEntry3get
_RNvMs7_NtCsg31y7KV7Avq_12bun_resolver2fsNtB5_6RealFS4kind
_RNvNtCsg31y7KV7Avq_12bun_resolver8resolver17bufs_storage_init
_RINvMs2_NtNtCs7QmvgyBSXbk_3std6thread5localINtB6_8LocalKeyNtNtCsg31y7KV7Avq_12bun_resolver8resolver8BufsSlotE4withNCNvBW_16bufs_storage_get0ONtBW_4BufsEBY_
_RNvMsc_NtCsg31y7KV7Avq_12bun_resolver2fsNtB5_13FilenameStore12append_parts
_RNvMs2_NtCsg31y7KV7Avq_12bun_resolver12package_jsonNtB5_11SideEffects16has_side_effects
_RINvMsD_NtCsgtociwQ8c96_8bun_core4utilINtB6_4OnceNtNtCs4YSnrHLetPa_5alloc6string6StringE9init_slowNCNvNvNtCsg31y7KV7Avq_12bun_resolver14node_fallbacks12init_modules3get0EB1G_
_RNvXs1g_NtCshzHRevywlmE_4core3fmtRNtNtNtB8_3str5error9Utf8ErrorNtB6_5Debug3fmtCsg31y7KV7Avq_12bun_resolver
_RNvXs1g_NtCshzHRevywlmE_4core3fmtRINtNtCs4YSnrHLetPa_5alloc3vec3VechENtB6_5Debug3fmtCs7QmvgyBSXbk_3std
_RNvXsq_NtCs4YSnrHLetPa_5alloc3vecINtB5_3VechENtNtCshzHRevywlmE_4core3fmt5Debug3fmtCsg31y7KV7Avq_12bun_resolver
_RNvMs6_NtCsg31y7KV7Avq_12bun_resolver2fsNtB5_10EntriesMap3get
_RINvXs2_NtNtCshzHRevywlmE_4core4hash5implsShNtB8_4Hash4hashNtCslE9Wbi68HL1_10bun_wyhash13OneShotHasherECs8b0qHo0q5R9_20bun_resolve_builtins
_RINvXs7_NtNtCshzHRevywlmE_4core4hash5implshNtB8_4Hash10hash_sliceNtCslE9Wbi68HL1_10bun_wyhash13OneShotHasherECs1yUlXPGwCKD_11bun_runtime
_RNvMs3_NtCs4YSnrHLetPa_5alloc7raw_vecINtB5_6RawVecINtNtCshzHRevywlmE_4core6option6OptionTRShNtNtCs8b0qHo0q5R9_20bun_resolve_builtins15HardcodedModule5AliasEEE8grow_oneB1w_
_RNvMs4_NtCs4YSnrHLetPa_5alloc7raw_vecNtB5_11RawVecInner14grow_amortizedCs8b0qHo0q5R9_20bun_resolve_builtins
_RNvMs4_NtCs4YSnrHLetPa_5alloc7raw_vecNtB5_11RawVecInner11finish_growCs8b0qHo0q5R9_20bun_resolve_builtins
_RNvYNCNvNtCs8b0qHo0q5R9_20bun_resolve_builtins15HardcodedModule18BUN_TEST_ALIAS_MAP0INtNtNtCshzHRevywlmE_4core3ops8function6FnOnceuE9call_onceB8_
_RNCINvMs0_NtNtCs7QmvgyBSXbk_3std4sync4onceNtB8_4Once15call_once_forceNCNvMNtBa_9lazy_lockINtB1a_8LazyLockINtNtCslDwGP1S1boP_15bun_collections12zig_hash_map7HashMapRShNtNtCs8b0qHo0q5R9_20bun_resolve_builtins15HardcodedModule5AliasEE5force0E0B2I_
_RNSNvYNCINvMs0_NtNtCs7QmvgyBSXbk_3std4sync4onceNtBd_4Once15call_once_forceNCNvMNtBf_9lazy_lockINtB1f_8LazyLockINtNtCslDwGP1S1boP_15bun_collections12zig_hash_map7HashMapRShNtNtCs8b0qHo0q5R9_20bun_resolve_builtins15HardcodedModule5AliasEE5force0E0INtNtNtCshzHRevywlmE_4core3ops8function6FnOnceTRNtBd_9OnceStateEE9call_once6vtableB2N_
_RNvYNCNvNtCs8b0qHo0q5R9_20bun_resolve_builtins15HardcodedModule13BUN_ALIAS_MAP0INtNtNtCshzHRevywlmE_4core3ops8function6FnOnceuE9call_onceB8_
_RNvXs9_NtCs8b0qHo0q5R9_20bun_resolve_builtins15HardcodedModuleReINtNtCshzHRevywlmE_4core7convert4FromNtB5_15HardcodedModuleE4from
_RINvMs2_NtCslDwGP1S1boP_15bun_collections12zig_hash_mapINtB6_7HashMapNtNtB8_14array_hash_map23StringHashMapUnownedKeyuE9get_indexB15_ECsg31y7KV7Avq_12bun_resolver
_RNvMs9_NtCsg31y7KV7Avq_12bun_resolver2fsNtB5_6RealFS10entries_at
_RNvNvNtCsg31y7KV7Avq_12bun_resolver2fs18entries_option_map4slow
_RINvCsfp4nxnB7RMp_7bun_sys8openat_aNtNtCsgtociwQ8c96_8bun_core4util2FdECsg31y7KV7Avq_12bun_resolver
_RINvCsfp4nxnB7RMp_7bun_sys8openat_aNtNtCsgtociwQ8c96_8bun_core4util2FdECse0gOrsKjhbD_11bun_bundler
_RNvNtCsgtociwQ8c96_8bun_core6output8print_to
_RINvNtCsfp4nxnB7RMp_7bun_sys10posix_impl6openatNtNtCsgtociwQ8c96_8bun_core4util2FdECs1nKE1RihsDl_20bun_standalone_graph
_RINvNtCsfp4nxnB7RMp_7bun_sys10posix_impl6openatNtNtCsgtociwQ8c96_8bun_core4util2FdECs4YYdkJyg8hg_7bun_jsc
_RINvNtCsfp4nxnB7RMp_7bun_sys10posix_impl6openatNtNtCsgtociwQ8c96_8bun_core4util2FdECse0gOrsKjhbD_11bun_bundler
_RINvNtCsfp4nxnB7RMp_7bun_sys10posix_impl6openatNtNtCsgtociwQ8c96_8bun_core4util2FdECsg31y7KV7Avq_12bun_resolver
_RNvMNtNtCse0gOrsKjhbD_11bun_bundler14linker_context20static_route_visitorNtB2_18StaticRouteVisitor25has_transitive_use_client
_RNvMNtNtCse0gOrsKjhbD_11bun_bundler14linker_context20static_route_visitorNtB2_18StaticRouteVisitor30has_transitive_use_client_impl
_RNvMNtNtCse0gOrsKjhbD_11bun_bundler14linker_context24output_file_list_builderNtB2_14OutputFileList16insert_for_chunk
_ZN3bun7N_SSSE320FillWithSkipMaskImplEPKhmPhS2_mb
highway_memmem
memmem
highway_copy_u16_to_u8
highway_index_of_any_char
highway_index_of_char
highway_index_of_interesting_character_in_string_literal
highway_index_of_interesting_character_in_multiline_comment
highway_index_of_newline_or_non_ascii
highway_index_of_newline_or_non_ascii_or_hash_or_at
highway_contains_newline_or_non_ascii_or_quote
highway_index_of_needs_escape_for_javascript_string
highway_index_of_space_or_newline_or_non_ascii
highway_fill_with_skip_mask
highway_copy_ascii_prefix
highway_index_of_first_ascii_upper
highway_lower_ascii
highway_index_of_first_ascii_upper16
hdr_iter_percentile_init
percentile_iter_next
recorded_iter_next
move_next
_ZSt16__introsort_loopIPmlN9__gnu_cxx5__ops15_Iter_less_iterEEvT_S4_T0_T1_
_ZSt22__final_insertion_sortIPPKN3WTF11NaturalLoopIN3JSC2B33Air3CFGEEEN9__gnu_cxx5__ops15_Iter_comp_iterIZNSt6ranges8__detail16__make_comp_projINSD_4lessESt8identityEEDaRT_RT0_EUlOSI_OSK_E_EEEvSI_SI_SK_
_ZSt22__final_insertion_sortIPPKN3WTF11NaturalLoopIN3JSC2B33CFGEEEN9__gnu_cxx5__ops15_Iter_comp_iterIZNSt6ranges8__detail16__make_comp_projINSC_4lessESt8identityEEDaRT_RT0_EUlOSH_OSJ_E_EEEvSH_SH_SJ_
_ZSt22__final_insertion_sortIPPKN3WTF11NaturalLoopIN3JSC3DFG3CFGEEEN9__gnu_cxx5__ops15_Iter_comp_iterIZNSt6ranges8__detail16__make_comp_projINSC_4lessESt8identityEEDaRT_RT0_EUlOSH_OSJ_E_EEEvSH_SH_SJ_
_ZSt22__final_insertion_sortIPPKN3WTF11NaturalLoopIN3JSC3DFG6CPSCFGEEEN9__gnu_cxx5__ops15_Iter_comp_iterIZNSt6ranges8__detail16__make_comp_projINSC_4lessESt8identityEEDaRT_RT0_EUlOSH_OSJ_E_EEEvSH_SH_SJ_
_ZSt22__final_insertion_sortIPPN3JSC2B35ValueEN9__gnu_cxx5__ops15_Iter_comp_iterIZNSt6ranges8__detail16__make_comp_projINS8_4lessESt8identityEEDaRT_RT0_EUlOSD_OSF_E_EEEvSD_SD_SF_
_ZSt22__final_insertion_sortIPPN3JSC6JSCellEN9__gnu_cxx5__ops15_Iter_comp_iterIZNSt6ranges8__detail16__make_comp_projINS7_4lessESt8identityEEDaRT_RT0_EUlOSC_OSE_E_EEEvSC_SC_SE_
_ZSt22__final_insertion_sortIPmN9__gnu_cxx5__ops15_Iter_comp_iterIZNSt6ranges8__detail16__make_comp_projINS4_4lessESt8identityEEDaRT_RT0_EUlOS9_OSB_E_EEEvS9_S9_SB_
_ZSt22__final_insertion_sortIPmN9__gnu_cxx5__ops15_Iter_less_iterEEvT_S4_T0_
_ZSt11__make_heapIPPKN3WTF11NaturalLoopIN3JSC2B33Air3CFGEEEN9__gnu_cxx5__ops15_Iter_comp_iterIZNSt6ranges8__detail16__make_comp_projINSD_4lessESt8identityEEDaRT_RT0_EUlOSI_OSK_E_EEEvSI_SI_SL_
_ZSt11__make_heapIPPKN3WTF11NaturalLoopIN3JSC2B33CFGEEEN9__gnu_cxx5__ops15_Iter_comp_iterIZNSt6ranges8__detail16__make_comp_projINSC_4lessESt8identityEEDaRT_RT0_EUlOSH_OSJ_E_EEEvSH_SH_SK_
_ZSt11__make_heapIPPKN3WTF11NaturalLoopIN3JSC3DFG3CFGEEEN9__gnu_cxx5__ops15_Iter_comp_iterIZNSt6ranges8__detail16__make_comp_projINSC_4lessESt8identityEEDaRT_RT0_EUlOSH_OSJ_E_EEEvSH_SH_SK_
_ZSt11__make_heapIPPKN3WTF11NaturalLoopIN3JSC3DFG6CPSCFGEEEN9__gnu_cxx5__ops15_Iter_comp_iterIZNSt6ranges8__detail16__make_comp_projINSC_4lessESt8identityEEDaRT_RT0_EUlOSH_OSJ_E_EEEvSH_SH_SK_
_ZSt11__make_heapIPPN3JSC2B35ValueEN9__gnu_cxx5__ops15_Iter_comp_iterIZNSt6ranges8__detail16__make_comp_projINS8_4lessESt8identityEEDaRT_RT0_EUlOSD_OSF_E_EEEvSD_SD_SG_
_ZSt11__make_heapIPPN3JSC6JSCellEN9__gnu_cxx5__ops15_Iter_comp_iterIZNSt6ranges8__detail16__make_comp_projINS7_4lessESt8identityEEDaRT_RT0_EUlOSC_OSE_E_EEEvSC_SC_SF_
_ZSt11__make_heapIPmN9__gnu_cxx5__ops15_Iter_comp_iterIZNSt6ranges8__detail16__make_comp_projINS4_4lessESt8identityEEDaRT_RT0_EUlOS9_OSB_E_EEEvS9_S9_SC_
_ZSt11__make_heapIPmN9__gnu_cxx5__ops15_Iter_less_iterEEvT_S4_RT0_
_ZN3hwy15GetChosenTargetEv
_ZN3hwy16SupportedTargetsEv
lshpack_huff_tables_init
lshpack_enc_init
_ZN3hwy13FunctionCacheImJPKhmhEE13ChooseAndCallIXadsoKPFmS2_mhEL_ZN3bunL35IndexOfCharImplHighwayDispatchTableEEEEEEmS2_mh
_ZN3hwy13FunctionCacheImJPKhmEE13ChooseAndCallIXadsoKPFmS2_mEL_ZN3bunL42IndexOfEscapeChar8ImplHighwayDispatchTableEEEEEEmS2_m
_ZN3hwy13FunctionCacheImJPKtmEE13ChooseAndCallIXadsoKPFmS2_mEL_ZN3bunL43IndexOfEscapeChar16ImplHighwayDispatchTableEEEEEEmS2_m
_ZN3hwy13FunctionCacheImJPKhmEE13ChooseAndCallIXadsoKPFmS2_mEL_ZN3bunL46IndexOfHTMLEscapeChar8ImplHighwayDispatchTableEEEEEEmS2_m
_ZN3hwy13FunctionCacheImJPKtmEE13ChooseAndCallIXadsoKPFmS2_mEL_ZN3bunL47IndexOfHTMLEscapeChar16ImplHighwayDispatchTableEEEEEEmS2_m
_ZN3hwy13FunctionCacheImJPKhmEE13ChooseAndCallIXadsoKPFmS2_mEL_ZN3bunL43HtmlEscapeExtraLen8ImplHighwayDispatchTableEEEEEEmS2_m
_ZN3WTF37tryMakeStringImplFromAdaptersInternalIJNS_17StringTypeAdapterINS_12ASCIILiteralEEES3_NS1_INS_6StringEEES3_S5_EEENS_6RefPtrINS_10StringImplENS_12RawPtrTraitsIS7_EENS_21DefaultRefDerefTraitsIS7_EEEEjbDpT_
_ZN3bun6N_AVX318EncodeHexLowerImplEPKhmPh
_ZN3bun6N_AVX314DecodeHex8ImplEPKhPhm
_ZN3bun6N_AVX315DecodeHex16ImplEPKtPhm
_ZN3bun6N_AVX320FillWithSkipMaskImplEPKhmPhS2_mb
_ZN3bun9N_AVX3_DL15IndexOfCharImplEPKhmh
_ZN3bun9N_AVX3_DL18IndexOfAnyCharImplEPKhmS2_m
_RINvNtCshzHRevywlmE_4core3ptr13drop_in_placeNtNtCsg31y7KV7Avq_12bun_resolver7fs_full8DirEntryEBK_
_RINvMsa_NtCsHrYIFyNDn9_9hashbrown3rawNtB6_13RawTableInner13drop_elementsTNtNtCslDwGP1S1boP_15bun_collections14array_hash_map16StringHashMapKeyONtNtCsg31y7KV7Avq_12bun_resolver7fs_full5EntryEEB2l_
_RNvMs7_NtCsg31y7KV7Avq_12bun_resolver2fsNtB5_6RealFS20read_directory_error
_RNvMs6_NtCsg31y7KV7Avq_12bun_resolver2fsNtB5_10EntriesMap10get_or_put
_RNvMs6_NtCsg31y7KV7Avq_12bun_resolver2fsNtB5_10EntriesMap3put
_RNvMs_NtCsfp4nxnB7RMp_7bun_sys3dirNtB4_3Dir11delete_tree
_RINvNtCshzHRevywlmE_4core3ptr13drop_in_placeINtNtCs4YSnrHLetPa_5alloc3vec3VecNtNvMs_NtCsfp4nxnB7RMp_7bun_sys3dirNtB1k_3Dir11delete_tree9StackItemEEB1m_
_RNvMs2_NtCsfp4nxnB7RMp_7bun_sys12dir_iteratorNtB5_5State4next
_RNvMs3_NtCs4YSnrHLetPa_5alloc7raw_vecINtB5_6RawVecNtNvMs_NtCsfp4nxnB7RMp_7bun_sys3dirNtBT_3Dir11delete_tree9StackItemE8grow_oneBV_
_RINvCsfp4nxnB7RMp_7bun_sys8openat_aNtNtCsgtociwQ8c96_8bun_core4util2FdEB2_
_RNvCsfp4nxnB7RMp_7bun_sys12getcwd_alloc
_RNvCsfp4nxnB7RMp_7bun_sys14exists_at_type
_RNSNvYNCINvMNtNtCs4pSCigdXcdu_8lol_html12selectors_vm8compilerINtNtBc_3ast4ExprNtB11_13OnTagNameExprE12compile_exprNCNvXs_Ba_BY_NtBa_10Compilable7compiles2_0E0INtNtNtCshzHRevywlmE_4core3ops8function6FnOnceTRNtBc_13SelectorStateRNtNtNtBe_4html10local_name9LocalNameEE9call_once6vtableBe_
_RNCINvMNtNtCs4pSCigdXcdu_8lol_html12selectors_vm8compilerINtNtB7_3ast4ExprNtBW_13OnTagNameExprE12compile_exprNCNvXs_B5_BT_NtB5_10Compilable7compiles2_0E0B9_
_RNSNvYNCNvXs_NtNtCs4pSCigdXcdu_8lol_html12selectors_vm8compilerINtNtBd_3ast4ExprNtB12_13OnTagNameExprENtBb_10Compilable7compiles2_0INtNtNtCshzHRevywlmE_4core3ops8function6FnOnceTRNtBd_13SelectorStateRNtNtNtBf_4html10local_name9LocalNameEE9call_once6vtableBf_
_RNCNvXs_NtNtCs4pSCigdXcdu_8lol_html12selectors_vm8compilerINtNtB8_3ast4ExprNtBX_13OnTagNameExprENtB6_10Compilable7compiles2_0Ba_
_RNvXsb_NtCs4pSCigdXcdu_8lol_html8rewriterNtB5_14RewritingErrorNtNtCshzHRevywlmE_4core3fmt7Display3fmt
_RNvXs1i_NtCshzHRevywlmE_4core3fmtRNtNtNtCs4pSCigdXcdu_8lol_html6memory7limiter24MemoryLimitExceededErrorNtB6_7Display3fmtBC_
_RNvXs1i_NtCshzHRevywlmE_4core3fmtRNtNtNtNtCs4pSCigdXcdu_8lol_html6parser22tree_builder_simulator15ambiguity_guard21ParsingAmbiguityErrorNtB6_7Display3fmtBE_
_RNvXs1i_NtCshzHRevywlmE_4core3fmtRINtNtCs4YSnrHLetPa_5alloc5boxed3BoxDNtNtB8_5error5ErrorNtNtB8_6marker4SendNtB1r_4SyncEL_ENtB6_7Display3fmtCs4pSCigdXcdu_8lol_html
_RNvNvNtNtNtCskFmFZq2xzLu_6memchr4arch6x86_646memchr10memchr_raw6detect
_RNvNvNtNtNtCsiQOrDQQD8l3_6memchr4arch6x86_646memchr10memchr_raw6detect
_RNvNvNtNtNtCsiQOrDQQD8l3_6memchr4arch6x86_646memchr10memchr_raw9find_avx2
_RNvNvNtNtNtCsiQOrDQQD8l3_6memchr4arch6x86_646memchr11memchr2_raw6detect
_RNvNvNtNtNtCsiQOrDQQD8l3_6memchr4arch6x86_646memchr11memchr2_raw9find_avx2
_RNvNvNtNtNtCsiQOrDQQD8l3_6memchr4arch6x86_646memchr11memchr3_raw6detect
_RNvNvNtNtNtCsiQOrDQQD8l3_6memchr4arch6x86_646memchr11memchr3_raw9find_avx2
_RNvNtNtCsgtociwQ8c96_8bun_core6string9immutable15is_ipv6_address
_RNvNtNtCsgtociwQ8c96_8bun_core6string9immutable16utf16_eql_string
_RNvNtCsg31y7KV7Avq_12bun_resolver8dir_info8put_slot
_RINvMs8_NtCsg31y7KV7Avq_12bun_resolver7fs_fullNtB6_8DirEntry20add_entry_with_storeuEB8_
_RNvMs3_NtCsg31y7KV7Avq_12bun_resolver8resolverNtB5_8Resolver17dir_info_uncached
_RINvNtCshzHRevywlmE_4core3ptr13drop_in_placeINtNtCs4YSnrHLetPa_5alloc5boxed3BoxNtNtNtCs1yUlXPGwCKD_11bun_runtime3api13js_transpiler12JSTranspilerEEB1l_
_RNvNtNtCs1yUlXPGwCKD_11bun_runtime3api13js_transpiler15clone_macro_map
_RINvNtCshzHRevywlmE_4core3ptr13drop_in_placeNtNtNtCs1yUlXPGwCKD_11bun_runtime3api13js_transpiler6ConfigEBM_
_RINvNtCshzHRevywlmE_4core3ptr13drop_in_placeINtNtB4_6option6OptionINtNtCs4YSnrHLetPa_5alloc5boxed3BoxNtNtCsg31y7KV7Avq_12bun_resolver13tsconfig_json12TSConfigJSONEEECs1yUlXPGwCKD_11bun_runtime
_RNvNtNtCsgtociwQ8c96_8bun_core6string9immutable24copy_lowercase_if_needed
_RNvNtNtCsgtociwQ8c96_8bun_core6string9immutable29has_prefix_with_word_boundary
_RNvMsw_CsdAZa0WVRlFk_9bun_allocINtB5_11BSSMapInnerNtNtCsg31y7KV7Avq_12bun_resolver8dir_info7DirInfoKj800_Kb1_E14mark_not_foundBQ_
_RNvMs6_NtCsg31y7KV7Avq_12bun_resolver2fsNtB5_10EntriesMap14mark_not_found
_RNvMs0_NtCs8b0qHo0q5R9_20bun_resolve_builtins15HardcodedModuleNtB5_5Alias3get
_RINvMs2_NtCslDwGP1S1boP_15bun_collections12zig_hash_mapINtB6_7HashMapRShNtNtCs8b0qHo0q5R9_20bun_resolve_builtins15HardcodedModule5AliasE3getB16_EB1c_
_RNvYNCNvNtCs8b0qHo0q5R9_20bun_resolve_builtins15HardcodedModule14NODE_ALIAS_MAP0INtNtNtCshzHRevywlmE_4core3ops8function6FnOnceuE9call_onceB8_
_RNvNtCs8b0qHo0q5R9_20bun_resolve_builtins15HardcodedModule15build_alias_map
_RNvMs2_NtCslDwGP1S1boP_15bun_collections12zig_hash_mapINtB5_7HashMapRShNtNtCs8b0qHo0q5R9_20bun_resolve_builtins15HardcodedModule5AliasE4growB1b_
_RNvMs8_NtCsg31y7KV7Avq_12bun_resolver7fs_fullNtB5_8DirEntry18get_comptime_query
_RNvMs0_NtCsgtociwQ8c96_8bun_core13bounded_arrayINtB5_19BoundedArrayAlignedRShKj80_E6appendCsg31y7KV7Avq_12bun_resolver
_RNvMs8_NtCsg31y7KV7Avq_12bun_resolver5cacheNtB5_2Fs24read_file_with_allocator
_ZN3bun9N_AVX3_DL49IndexOfInterestingCharacterInMultilineCommentImplEPKhm
_ZN3bun9N_AVX3_DL38IndexOfNewlineOrNonASCIIOrHashOrAtImplEPKhm
_ZN3bun9N_AVX3_DL28IndexOfNewlineOrNonASCIIImplEPKhm
_ZN3bun9N_AVX3_DL35IndexOfSpaceOrNewlineOrNonASCIIImplEPKhm
_ZN3bun9N_AVX3_DL36ContainsNewlineOrNonASCIIOrQuoteImplEPKhm
_ZN3bun9N_AVX3_DL49IndexOfNeedsEscapeForJavaScriptStringImplBacktickEPKhmh
_ZN3bun9N_AVX3_DL46IndexOfNeedsEscapeForJavaScriptStringImplQuoteEPKhmh
_ZN3bun9N_AVX3_DL10MemMemImplEPKhmS2_m
_ZN3bun9N_AVX3_DL22VisibleLatin1WidthImplEPKhm
_RINvNtCshzHRevywlmE_4core3ptr13drop_in_placeINtNtB4_6option6OptionNtNtCsfp4nxnB7RMp_7bun_sys5error5ErrorEECs1yUlXPGwCKD_11bun_runtime
_RINvNtCshzHRevywlmE_4core3ptr13drop_in_placeINtNtB4_6result6ResultQShNtNtCsfp4nxnB7RMp_7bun_sys5error5ErrorEECsg31y7KV7Avq_12bun_resolver
_RINvMs2_NtCsg31y7KV7Avq_12bun_resolver7fs_fullNtB6_5Entry7symlinkNtNtB8_2fs6RealFSEB8_
_RNvMs7_NtCsg31y7KV7Avq_12bun_resolver2fsNtB5_6RealFS14read_directory
_RNvNvMs_NtCseTUNH9PdJ6M_11bun_watcher12watcher_implNtB6_7Watcher19get_resolve_watcher4wrap
_RNvCs7HVVXVzMxcG_9bun_which5which
_RNvCslE9Wbi68HL1_10bun_wyhash10final_long
_RNvMs1_Cs7G38sddYA03_8bun_zlibNtB5_19ZlibReaderArrayList36init_with_options_and_list_allocator
_RNvNtCs7G38sddYA03_8bun_zlib13ZlibAllocator12calloc_items
_RNvMs1_Cs7G38sddYA03_8bun_zlibNtB5_19ZlibReaderArrayList8read_all
_RINvNvMs2_NtCs4YSnrHLetPa_5alloc7raw_vecINtB8_11RawVecInnerpE7reserve21do_reserve_and_handleNtNtBa_5alloc6GlobalECs4am86xOmB0H_11encoding_rs
_RINvNvMs2_NtCs4YSnrHLetPa_5alloc7raw_vecINtB8_11RawVecInnerpE7reserve21do_reserve_and_handleNtNtBa_5alloc6GlobalECs7G38sddYA03_8bun_zlib
_RNvMs6_Cs7G38sddYA03_8bun_zlibNtB5_14DeflateEncoder3new
_RNvMs8_Cs7G38sddYA03_8bun_zlibNtB5_14InflateDecoder3new
_RNvMNtCsg31y7KV7Avq_12bun_resolver13tsconfig_jsonNtB2_9JsonCache18parse_package_json
_RNvXs3_NtCsg31y7KV7Avq_12bun_resolver12package_jsonNtNtB7_2fs10FileSystemNtB5_24FileSystemPackageJsonExt9normalize
_RNvMs6_NtCsg31y7KV7Avq_12bun_resolver12package_jsonNtB5_7Visitor5visit
_RNvMsh_NtCs1PzbF0n7nMe_11bun_parsers4yamlINtB5_17ScalarResolverCtxNtB5_4Utf8E27append_unknown_source_sliceB7_
_RNvNtCs1PzbF0n7nMe_11bun_parsers4json13parse_to_rows
_RINvNtNtNtCs8WZIztbKAR_7bun_ast4expr4data5Store6appendNtNtB8_1e10ObjectJSONECs1PzbF0n7nMe_11bun_parsers
_RNvNtCs1PzbF0n7nMe_11bun_parsers4json13parse_impl_in
_RNvNtCs1PzbF0n7nMe_11bun_parsers4json18report_index_error
_RNvMs0_NtCs1PzbF0n7nMe_11bun_parsers11json_stage2NtB5_6Parser11parse_value
_RNvNtCs4FfJ4Lq6U93_9bun_paths12resolve_path14relative_alloc
_RINvNtNtNtNtCs7QmvgyBSXbk_3std3sys12thread_local6native5eager7destroyNtNtCs4FfJ4Lq6U93_9bun_paths12resolve_path11LazyPathBufEB19_
_RINvNtNtNtNtCs7QmvgyBSXbk_3std3sys12thread_local6native5eager7destroyNtNtCs4FfJ4Lq6U93_9bun_paths12resolve_path11LazyPathBufECs1yUlXPGwCKD_11bun_runtime
_RINvNtCs4FfJ4Lq6U93_9bun_paths12resolve_path21relative_platform_bufNtNtB2_8platform5PosixKb0_EB4_
_ZN3bun7N_SSSE313JsonIndexImplEPKhmmPjPmS4_S3_
highway_json_index_chunk
_ZN3hwy13FunctionCacheImJPKhmmPjPmS4_S3_EE13ChooseAndCallIXadsoKPFmS2_mmS3_S4_S4_S3_EL_ZN3bunL33JsonIndexImplHighwayDispatchTableEEEEEEmS2_mmS3_S4_S4_S3_
_ZN3bun6N_SSE415CountDelimsImplEPKhm
_ZN3bun6N_SSE417ParseMappingsImplEPKhmPiS3_S3_S3_miS3_Pm
_ZN3bun6N_AVX313JsonIndexImplEPKhmmPjPmS4_S3_
_ZN3bun9N_AVX3_DL13JsonIndexImplEPKhmmPjPmS4_S3_
_ZN3bun11N_AVX3_ZEN413JsonIndexImplEPKhmmPjPmS4_S3_
_RNvMs0_NtCs1PzbF0n7nMe_11bun_parsers11json_stage2NtB5_6Parser12parse_scalar
_RNvMs0_NtCs1PzbF0n7nMe_11bun_parsers11json_stage2NtB5_6Parser12parse_object
_RNvMs0_NtCs1PzbF0n7nMe_11bun_parsers11json_stage2NtB5_6Parser15skip_unicode_ws
_RNvMs0_NtCs1PzbF0n7nMe_11bun_parsers11json_stage2NtB5_6Parser21newline_in_gap_before
_RNvMs0_NtCs1PzbF0n7nMe_11bun_parsers11json_stage2NtB5_6Parser17parse_number_text
_RNvMs0_NtCs1PzbF0n7nMe_11bun_parsers11json_stage2NtB5_6Parser20number_trailing_junk
_RNvMs0_NtCs1PzbF0n7nMe_11bun_parsers11json_stage2NtB5_6Parser17parse_scalar_cold
_RNvMs0_NtCs1PzbF0n7nMe_11bun_parsers11json_stage2NtB5_6Parser14run_rest_is_ws
_RNvMs0_NtCs1PzbF0n7nMe_11bun_parsers11json_stage2NtB5_6Parser24parse_escaped_identifier
_RNvMs3_NtCs4YSnrHLetPa_5alloc7raw_vecINtB5_6RawVecNtNtCs1PzbF0n7nMe_11bun_parsers4yaml7ContextE8grow_oneBQ_
_RNvMs3_NtCs4YSnrHLetPa_5alloc7raw_vecINtB5_6RawVecNtNtCs44pYJwTIsUw_14bun_js_printer25analyze_transpiled_module10RecordKindE8grow_oneBQ_
_RNvMs3_NtCs4YSnrHLetPa_5alloc7raw_vecINtB5_6RawVecNtNtCs6ScEuu9uzHZ_7bun_css10css_parser9BlockTypeE8grow_oneBQ_
_RNvMs3_NtCs4YSnrHLetPa_5alloc7raw_vecINtB5_6RawVecNtNtCs8WZIztbKAR_7bun_ast6loader6LoaderE8grow_oneCse0gOrsKjhbD_11bun_bundler
_RNvMs3_NtCs4YSnrHLetPa_5alloc7raw_vecINtB5_6RawVecNtNtCsa6AWEs1wmIo_17bun_options_types12bundle_enums13BundlePackageE8grow_oneCseo0p15y9QA6_10bun_bunfig
_RNvMs3_NtCs4YSnrHLetPa_5alloc7raw_vecINtB5_6RawVecNtNtCsj5JUsDxu4lF_11bun_install21postinstall_optimizer20PostinstallOptimizerE8grow_oneBQ_
_RNvMs3_NtCs4YSnrHLetPa_5alloc7raw_vecINtB5_6RawVecNtNtNtCs4pSCigdXcdu_8lol_html4html9namespace9NamespaceE8grow_oneBS_
_RNvMs3_NtCs4YSnrHLetPa_5alloc7raw_vecINtB5_6RawVecNtNtNtNtCs1yUlXPGwCKD_11bun_runtime4bake15dev_server_body16entry_point_list5FlagsE8grow_oneBU_
_RNvMs3_NtCs4YSnrHLetPa_5alloc7raw_vecINtB5_6RawVecNtNtCse0gOrsKjhbD_11bun_bundler11output_file10OutputFileE8grow_oneBQ_
_RNvMs3_NtCse0gOrsKjhbD_11bun_bundler11output_fileNtB5_5Value17to_bun_string_ref
_RNvMs3_NtNtCse0gOrsKjhbD_11bun_bundler9bundle_v28bv2_implNtB7_8BundleV213on_load_async
_RNvNtNtCse0gOrsKjhbD_11bun_bundler9bundle_v28bv2_impl12on_load_mini
_RNvNtNtCse0gOrsKjhbD_11bun_bundler9bundle_v28bv2_impl24on_load_from_js_loop_raw
_RNvYNtNtCs1PzbF0n7nMe_11bun_parsers11json_stage26ParserNtNtCs8WZIztbKAR_7bun_ast9lexer_log8LexerLog17add_default_errorB6_
_RNvMs0_NtCs1PzbF0n7nMe_11bun_parsers11json_stage2NtB5_6Parser17parse_string_slow
_RNvMs0_NtCs1PzbF0n7nMe_11bun_parsers11json_stage2NtB5_6Parser8expected
_RINvNvMs2_NtCs4YSnrHLetPa_5alloc7raw_vecINtB8_11RawVecInnerpE7reserve21do_reserve_and_handleNtNtCs8WZIztbKAR_7bun_ast1e9TapeAllocECs1PzbF0n7nMe_11bun_parsers
_RNvMs4_NtCs4YSnrHLetPa_5alloc7raw_vecINtB5_11RawVecInnerNtNtCs8WZIztbKAR_7bun_ast1e9TapeAllocE11finish_growCs1PzbF0n7nMe_11bun_parsers
_RNvMs2_NtCslDwGP1S1boP_15bun_collections12zig_hash_mapINtB5_7HashMapyuINtNtB7_16identity_context15IdentityContextyEE6insertCs1PzbF0n7nMe_11bun_parsers
_RNvMs0_NtCs1PzbF0n7nMe_11bun_parsers11json_stage2NtB5_6Parser18warn_duplicate_key
_RNvMs3_NtCs4YSnrHLetPa_5alloc7raw_vecINtB5_6RawVecINtNtNtNtCs1yUlXPGwCKD_11bun_runtime4bake10dev_server17incremental_graph4EdgeKVNtNtNtNtNtCse0gOrsKjhbD_11bun_bundler9bundle_v28bv2_impl10bake_types4Side6ClientUEE8grow_oneBV_
_RNvMs3_NtCs4YSnrHLetPa_5alloc7raw_vecINtB5_6RawVecNtNtCs8WZIztbKAR_7bun_ast1e12PropertyJSONE8grow_oneCs1PzbF0n7nMe_11bun_parsers
_RNvMs2_NtCslDwGP1S1boP_15bun_collections12zig_hash_mapINtB5_7HashMapyuINtNtB7_16identity_context15IdentityContextyEE4growCs1PzbF0n7nMe_11bun_parsers
_RNvMs0_NtCs1PzbF0n7nMe_11bun_parsers11json_stage2NtB5_6Parser11parse_array
_RNvMs0_NtCs1PzbF0n7nMe_11bun_parsers11json_stage2NtB5_6Parser24parse_negative_number_at
_RINvNtCs1PzbF0n7nMe_11bun_parsers11json_stage221decode_string_escapesKb0_NtB2_6ParserEB4_
_RNvMs0_NtCs1PzbF0n7nMe_11bun_parsers11json_stage2NtB5_6Parser25string_control_char_error
_RNvYNtNtCs1PzbF0n7nMe_11bun_parsers11json_stage26ParserNtNtCs8WZIztbKAR_7bun_ast9lexer_log8LexerLog12syntax_errorB6_
_RNvYNtNtCs1PzbF0n7nMe_11bun_parsers11json_stage26ParserNtNtCs8WZIztbKAR_7bun_ast9lexer_log8LexerLog9add_errorB6_
_RNvNtCs1PzbF0n7nMe_11bun_parsers11json_stage227read_trail_surrogate_escape
_RNvMs2_NtCs8WZIztbKAR_7bun_ast6symbolNtB5_3Map6follow
_RNvMs3_NtCs4YSnrHLetPa_5alloc7raw_vecINtB5_6RawVecINtNtB7_3vec3VechNtNtCs8WZIztbKAR_7bun_ast1e9TapeAllocEB13_E8grow_oneB17_
_RNvMs4_NtCs4YSnrHLetPa_5alloc7raw_vecINtB5_11RawVecInnerNtNtCs8WZIztbKAR_7bun_ast1e9TapeAllocE11finish_growBW_
_RNvMs3_NtCs4YSnrHLetPa_5alloc7raw_vecINtB5_6RawVecNtCs8WZIztbKAR_7bun_ast3MsgE8grow_oneBO_
_RNvMs3_NtCs4YSnrHLetPa_5alloc7raw_vecINtB5_6RawVecNtNtCs1nKE1RihsDl_20bun_standalone_graph21StandaloneModuleGraph4FileE8grow_oneBQ_
_RNvMs3_NtCs4YSnrHLetPa_5alloc7raw_vecINtB5_6RawVecNtNtCsj5JUsDxu4lF_11bun_install17package_installer22PendingLifecycleScriptE8grow_oneBQ_
_RNvMs3_NtCs4YSnrHLetPa_5alloc7raw_vecINtB5_6RawVecNtNtNtCs1yUlXPGwCKD_11bun_runtime3cli18pm_trusted_command10ScriptInfoE8grow_oneBS_
_RNvMs3_NtCs4YSnrHLetPa_5alloc7raw_vecINtB5_6RawVecNtNtNtCs6ScEuu9uzHZ_7bun_css10properties10background10BackgroundE8grow_oneBS_
_RNvMs3_NtCs4YSnrHLetPa_5alloc7raw_vecINtB5_6RawVecINtNtCshzHRevywlmE_4core6option6OptionNtNtNtNtCs1yUlXPGwCKD_11bun_runtime4bake10dev_server16source_map_store9GetResultEE8grow_oneB1w_
_RNvMs3_NtCs4YSnrHLetPa_5alloc7raw_vecINtB5_6RawVecNtCs8WZIztbKAR_7bun_ast4DataE8grow_oneBO_
_RNvMs3_NtCs4YSnrHLetPa_5alloc7raw_vecINtB5_6RawVecNtCs8WZIztbKAR_7bun_ast6SourceE8grow_oneCs6gwODWbkV84_10bun_dotenv
_RNvMs3_NtCs4YSnrHLetPa_5alloc7raw_vecINtB5_6RawVecNtNtCs8WZIztbKAR_7bun_ast1g8PropertyE8grow_oneCs1PzbF0n7nMe_11bun_parsers
_RNvMs3_NtCs4YSnrHLetPa_5alloc7raw_vecINtB5_6RawVecNtNtCsj5JUsDxu4lF_11bun_install16isolated_install10StackFrameE8grow_oneBQ_
_RNvNtCs6ScEuu9uzHZ_7bun_css10css_parser21fill_property_bit_set
_RNvMs3_NtCs4YSnrHLetPa_5alloc7raw_vecINtB5_6RawVecINtCsi3R2Foos9Y_8bun_clap5ParamjEE8grow_oneCsj5JUsDxu4lF_11bun_install
_RNvMs3_NtCs4YSnrHLetPa_5alloc7raw_vecINtB5_6RawVecINtNtCshzHRevywlmE_4core6option6OptionTTReB1q_bEINtNtB7_5boxed3BoxeEEEE8grow_oneCs1yUlXPGwCKD_11bun_runtime
_RNvMs3_NtCs4YSnrHLetPa_5alloc7raw_vecINtB5_6RawVecINtNtCslDwGP1S1boP_15bun_collections12zig_hash_map7HashMapyuINtNtBR_16identity_context15IdentityContextyEEE8grow_oneCs1PzbF0n7nMe_11bun_parsers
_RNvMs3_NtCs4YSnrHLetPa_5alloc7raw_vecINtB5_6RawVecNtNtCs4e8grVMhPCb_6bun_md13ansi_renderer13CellAnsiStateE8grow_oneBQ_
_RNvMs3_NtCs4YSnrHLetPa_5alloc7raw_vecINtB5_6RawVecNtNtCs6ScEuu9uzHZ_7bun_css10css_parser13PropertyUsageE8grow_oneBQ_
_RNvMs3_NtCs4YSnrHLetPa_5alloc7raw_vecINtB5_6RawVecNtNtNtNtCs7QmvgyBSXbk_3std12backtrace_rs9symbolize5gimli7LibraryE8grow_oneBU_
_RNvMs3_NtCs4YSnrHLetPa_5alloc7raw_vecINtB5_6RawVecINtNtCs6ScEuu9uzHZ_7bun_css5rules7CssRuleNtNtBR_10css_parser13DefaultAtRuleEE8grow_oneBR_
_RNvMs3_NtCs4YSnrHLetPa_5alloc7raw_vecINtB5_6RawVecNtNtNtCs1yUlXPGwCKD_11bun_runtime7webcore17___s3_list_objects21S3ListObjectsContentsE8grow_oneBS_
_RINvNtCs6ScEuu9uzHZ_7bun_css10css_parser20parse_qualified_ruleINtB2_16NestedRuleParserNtB2_19BundlerAtRuleParserEEB4_
_RNvXs2_NtNtCs6ScEuu9uzHZ_7bun_css10css_parser12rule_parsersINtB7_16NestedRuleParserNtB7_19BundlerAtRuleParserENtB7_12AtRuleParser18rule_without_blockB9_
_RINvMsi_NtCs6ScEuu9uzHZ_7bun_css10css_parserNtB6_6Parser14parse_entirelyuuNCINvB6_18parse_nested_blockuNCINvB6_13parse_at_ruleINtB6_16NestedRuleParserNtB6_19BundlerAtRuleParserEEs_0Es_0EB8_
_RNvXNtNtCs6ScEuu9uzHZ_7bun_css10css_parser12rule_parsersNtB2_17NestedComposesCtxNtB4_11ComposesCtx15record_composes
_RINvNtCs4FfJ4Lq6U93_9bun_paths12resolve_path22normalize_string_buf_thKb1_NtNtB2_8platform5PosixKB16_EB4_
_RINvNtCshzHRevywlmE_4core3ptr13drop_in_placeNtNtCs1PzbF0n7nMe_11bun_parsers11json_stage26ParserEBK_
_RNvMs0_NtCs1PzbF0n7nMe_11bun_parsers11json_stage2NtB5_6Parser15rest_is_ws_cold
_RNvMs0_NtCs1PzbF0n7nMe_11bun_parsers11json_stage2NtB5_6Parser10unexpected
_RNCNvNtCs1PzbF0n7nMe_11bun_parsers4json13parse_impl_in0B5_
_RINvNtCshzHRevywlmE_4core3ptr13drop_in_placeINtNtB4_6option6OptionINtNtCs4YSnrHLetPa_5alloc5boxed3BoxNtNtCs8WZIztbKAR_7bun_ast1e8JsonTapeEEECs1PzbF0n7nMe_11bun_parsers
_RNvMs0_NtCs1PzbF0n7nMe_11bun_parsers11json_stage2NtB5_6Parser11token_range
_RNvYNtNtCs1PzbF0n7nMe_11bun_parsers11json_stage26ParserNtNtCs8WZIztbKAR_7bun_ast9lexer_log8LexerLog15add_range_errorB6_
_RNvMs6_NtCsa6AWEs1wmIo_17bun_options_types3jsxNtB5_6Pragma38member_list_to_components_if_different
_RNvXs0_NtCsa6AWEs1wmIo_17bun_options_types14compile_targetNtB5_4LibcNtNtCshzHRevywlmE_4core3fmt7Display3fmt
_RNvXs1_NtCsa6AWEs1wmIo_17bun_options_types14compile_targetNtB5_17BaselineFormatterNtNtCshzHRevywlmE_4core3fmt7Display3fmt
_RNvXs3_NtCsa6AWEs1wmIo_17bun_options_types14compile_targetNtB5_13CompileTargetNtNtCshzHRevywlmE_4core3fmt7Display3fmt
_RINvMs6_NtCsHrYIFyNDn9_9hashbrown3rawINtB6_8RawTableTNtNtCslDwGP1S1boP_15bun_collections14array_hash_map16StringHashMapKeyNtNtCs8WZIztbKAR_7bun_ast4expr4ExprENtCsdAZa0WVRlFk_9bun_alloc12DefaultAllocE14reserve_rehashNCINvNtB8_3map11make_hasherBP_B1W_INtNtCshzHRevywlmE_4core4hash18BuildHasherDefaultNtCslE9Wbi68HL1_10bun_wyhash13OneShotHasherEE0ECs1PzbF0n7nMe_11bun_parsers
_RNvMsu_Cs8WZIztbKAR_7bun_astNtB5_3Msg18clone_with_builder
_RNvMsB_Cs8WZIztbKAR_7bun_astNtB5_3Log23append_to_with_recycled
_RNvMsB_Cs8WZIztbKAR_7bun_astNtB5_3Log5reset
_RNvMsB_Cs8WZIztbKAR_7bun_astNtB5_3Log6to_api
_RNvMsF_Cs8WZIztbKAR_7bun_astNtB5_18ErrorPositionState7advance
_RNvCs8WZIztbKAR_7bun_ast13scan_line_end
_RINvNtCshzHRevywlmE_4core3ptr13drop_in_placeNtCs8WZIztbKAR_7bun_ast3MsgEBI_
_RNvMsB_Cs8WZIztbKAR_7bun_astNtB5_3Log22clone_to_with_recycled
_RNvNtCsgCxAifIVzWK_8bun_glob7matcher18match_brace_branch
_RNvXs0_NtCsgCxAifIVzWK_8bun_glob11glob_walkerNtB5_15SyscallAccessorNtB5_8Accessor4open
_RINvNtCsfp4nxnB7RMp_7bun_sys10posix_impl6openatNtNtCsgtociwQ8c96_8bun_core4util2FdECsgCxAifIVzWK_8bun_glob
_RNvXNtCsfp4nxnB7RMp_7bun_sys2fdNtNtCsgtociwQ8c96_8bun_core4util2FdNtB2_5FdExt34close_allowing_bad_file_descriptor
_RNvXs0_NtCsgCxAifIVzWK_8bun_glob11glob_walkerNtB5_15SyscallAccessorNtB5_8Accessor5close
_RNvXs0_NtCsgCxAifIVzWK_8bun_glob11glob_walkerNtB5_15SyscallAccessorNtB5_8Accessor6openat
_RINvNtCsfp4nxnB7RMp_7bun_sys10posix_impl7fstatatNtNtCsgtociwQ8c96_8bun_core4util2FdECs1yUlXPGwCKD_11bun_runtime
_RINvNtCsfp4nxnB7RMp_7bun_sys10posix_impl7fstatatNtNtCsgtociwQ8c96_8bun_core4util2FdECscpk4bCXnlDP_9bun_patch
_RINvNtCsfp4nxnB7RMp_7bun_sys10posix_impl7fstatatRNtNtB4_3dir3DirECs1yUlXPGwCKD_11bun_runtime
_RNvXs0_NtCsgCxAifIVzWK_8bun_glob11glob_walkerNtB5_15SyscallAccessorNtB5_8Accessor6statat
_RINvCsfp4nxnB7RMp_7bun_sys7lstatatNtNtCsgtociwQ8c96_8bun_core4util2FdECs1yUlXPGwCKD_11bun_runtime
_RNvXs0_NtCsgCxAifIVzWK_8bun_glob11glob_walkerNtB5_15SyscallAccessorNtB5_8Accessor7lstatat
_RINvMs6_NtCsHrYIFyNDn9_9hashbrown3rawINtB6_8RawTableTNtNtCslDwGP1S1boP_15bun_collections14array_hash_map16StringHashMapKeyNtNtNtCsflik4Lp6Ma9_8bun_http9h3_client7alt_svc6RecordENtCsdAZa0WVRlFk_9bun_alloc12DefaultAllocE14reserve_rehashNCINvNtB8_3map11make_hasherBP_B1W_INtNtCshzHRevywlmE_4core4hash18BuildHasherDefaultNtCslE9Wbi68HL1_10bun_wyhash13OneShotHasherEE0EB22_
_RINvMs9_Csflik4Lp6Ma9_8bun_httpNtB6_10HTTPClient28send_initial_request_payloadKb0_KB1f_EB6_
_RNvMs2_NtCslDwGP1S1boP_15bun_collections12zig_hash_mapINtB5_7HashMapNtNtB7_14array_hash_map23StringHashMapUnownedKeyuE6insertCsg31y7KV7Avq_12bun_resolver
_RNCINvMs4_NtCsg31y7KV7Avq_12bun_resolver12package_jsonNtB8_11PackageJSON5parseKVNtNtB8_19IncludeDependencies4NoneUEs0_0Ba_
_RNCINvMs4_NtCsg31y7KV7Avq_12bun_resolver12package_jsonNtB8_11PackageJSON5parseKVNtNtB8_19IncludeDependencies4NoneUEs3_0Ba_
_RNvNtCsg31y7KV7Avq_12bun_resolver8resolver19intern_package_json
_RNvMs3_NtCsg31y7KV7Avq_12bun_resolver8resolverNtB5_8Resolver14parse_tsconfig
_RNvMso_NtCslDwGP1S1boP_15bun_collections14array_hash_mapINtB5_18StringArrayHashMapRShE3putCsg31y7KV7Avq_12bun_resolver
_RNCINvMs0_NtNtCs7QmvgyBSXbk_3std4sync4onceNtB8_4Once15call_once_forceNCNvMNtBa_9lazy_lockINtB1a_8LazyLockINtNtCs96HrWArtLta_13bun_threading7guarded9GuardedByINtNtCs4YSnrHLetPa_5alloc3vec3VecINtNtB2A_5boxed3BoxNtNtCsg31y7KV7Avq_12bun_resolver12package_json11PackageJSONEENtNtB1K_5mutex5MutexEE5force0E0B3p_
_RNSNvYNCINvMs0_NtNtCs7QmvgyBSXbk_3std4sync4onceNtBd_4Once15call_once_forceNCNvMNtBf_9lazy_lockINtB1f_8LazyLockINtNtCs96HrWArtLta_13bun_threading7guarded9GuardedByINtNtCs4YSnrHLetPa_5alloc3vec3VecINtNtB2F_5boxed3BoxNtNtCsg31y7KV7Avq_12bun_resolver12package_json11PackageJSONEENtNtB1P_5mutex5MutexEE5force0E0INtNtNtCshzHRevywlmE_4core3ops8function6FnOnceTRNtBd_9OnceStateEE9call_once6vtableB3u_
_RNvXs0_NtCs96HrWArtLta_13bun_threading7guardedINtB5_9GuardedByINtNtCs4YSnrHLetPa_5alloc3vec3VecINtNtB13_5boxed3BoxNtNtCsg31y7KV7Avq_12bun_resolver12package_json11PackageJSONEENtNtB7_5mutex5MutexENtNtCshzHRevywlmE_4core7default7Default7defaultB1S_
_RNvMs2_NtCslDwGP1S1boP_15bun_collections12zig_hash_mapINtB5_7HashMapNtNtB7_14array_hash_map23StringHashMapUnownedKeyuE4growCsg31y7KV7Avq_12bun_resolver
_RINvNtCshzHRevywlmE_4core3ptr13drop_in_placeNtNtCsg31y7KV7Avq_12bun_resolver12package_json12EntryDataMapEBK_
_RINvNtCshzHRevywlmE_4core3ptr13drop_in_placeNtNtCsg31y7KV7Avq_12bun_resolver12package_json5EntryEBK_
_RNvMs0_NtCsg31y7KV7Avq_12bun_resolver13tsconfig_jsonNtB5_12TSConfigJSON31parse_member_expression_for_jsx
_RNvMs0_NtCsg31y7KV7Avq_12bun_resolver13tsconfig_jsonNtB5_12TSConfigJSON5parse
_RINvMs4_NtCsg31y7KV7Avq_12bun_resolver12package_jsonNtB6_11PackageJSON5parseKVNtNtB6_19IncludeDependencies5LocalUEB8_
_RINvNtCshzHRevywlmE_4core3ptr13drop_in_placeINtNtCs4YSnrHLetPa_5alloc5boxed3BoxSNtNtCsg31y7KV7Avq_12bun_resolver12package_json5EntryEEB1k_
_RINvNtCshzHRevywlmE_4core3ptr13drop_in_placeNtNtCsg31y7KV7Avq_12bun_resolver12package_json9EntryDataEBK_
_RINvNtCshzHRevywlmE_4core3ptr13drop_in_placeINtNtCs4YSnrHLetPa_5alloc3vec3VecNtNtCsg31y7KV7Avq_12bun_resolver12package_json8MapEntryEEB1h_
_RNvMs6_NtCsg31y7KV7Avq_12bun_resolver12package_jsonNtB5_7Visitor12invalid_root
_RINvNtCshzHRevywlmE_4core3ptr13drop_in_placeINtNtCslDwGP1S1boP_15bun_collections14array_hash_map12ArrayHashMapINtNtCs4YSnrHLetPa_5alloc5boxed3BoxShEINtNtB1P_3vec3VecB1K_EEECsg31y7KV7Avq_12bun_resolver
_RNvMs0_NtCsg31y7KV7Avq_12bun_resolver13tsconfig_jsonNtB5_12TSConfigJSON23str_replacing_templates
_RNCNvNtCsj5JUsDxu4lF_11bun_install20package_manager_real4inits5_0B5_
_RINvMNtNtCs7QmvgyBSXbk_3std4sync9once_lockINtB3_8OnceLockINtNtCs4YSnrHLetPa_5alloc5boxed3BoxShEE10initializeNCINvB2_11get_or_initNCNvB2_10try_insert0E0zECsj5JUsDxu4lF_11bun_install
_ZN3uWS12HttpResponseILb0EE7upgradeIPvEEP11us_socket_tOT_St17basic_string_viewIcSt11char_traitsIcEESB_SB_PNS_16WebSocketContextILb0ELb1ES6_EE
uws_get_loop
uws_res_uncork
us_socket_mark_needs_more_not_ssl
us_socket_sendfile_needs_more
uws_res_cork
_ZN3uWS12HttpResponseILb1EE4corkEON5ofats13any_invocableIFvvEEE
_ZN3uWS12HttpResponseILb0EE4corkEON5ofats13any_invocableIFvvEEE
uws_res_prepare_for_sendfile
_ZN3uWS11AsyncSocketILb1EE13getSendBufferEm
us_create_poll
us_poll_free
us_poll_init
us_poll_events
us_poll_fd
us_internal_poll_type
us_internal_poll_set_type
us_create_loop
bun_epoll_pwait2
Bun__isEpollPwait2SupportedOnLinuxKernel
_RINvMsD_NtCsgtociwQ8c96_8bun_core4utilINtB6_4OnceNtNtNtCsbiBzEjT9DsN_4libc4unix10linux_like7utsnameE9init_slowNvNtB8_3ffi5unameECsfkW4BrCLGXb_13bun_analytics
_RNvNtCsfkW4BrCLGXb_13bun_analytics8features15packed_features
_RINvMsW_NtNtNtCs4YSnrHLetPa_5alloc11collections5btree4nodeINtB6_6HandleINtB6_7NodeRefNtNtB6_6marker3MutReNtNtB8_7set_val9SetValZSTNtB1n_8InternalENtB1n_2KVE5splitNtNtBc_5alloc6GlobalECsfkW4BrCLGXb_13bun_analytics
_RNvXNtCsfkW4BrCLGXb_13bun_analytics8featuresNtB2_9FormatterNtNtCshzHRevywlmE_4core3fmt7Display3fmt
_RINvNtNtNtNtCshzHRevywlmE_4core5slice4sort6shared5pivot11median3_recRShNCINvMB8_SB14_16sort_unstable_byNCNvNtNtCsgtociwQ8c96_8bun_core6string9immutable9sort_desc0E0EB1L_
_RNvCsgtociwQ8c96_8bun_core20linux_kernel_version
_RNvMNtCsgtociwQ8c96_8bun_core6resultNtB2_5Error10from_errno
_RNvMNtCsgtociwQ8c96_8bun_core6resultNtB2_5Error4name
_RNvMNtCsgtociwQ8c96_8bun_core6stringNtB2_6String13create_format
_RNvXNtNtCsgtociwQ8c96_8bun_core6string3wtfNtCsdAZa0WVRlFk_9bun_alloc19WTFStringImplStructNtB2_16WTFStringImplExt19to_utf8_without_ref
_RNvMsq_NtCsgtociwQ8c96_8bun_core6stringNtB5_9ZigString8to_slice
_RNvNtCsgtociwQ8c96_8bun_core12strings_impl28convert_utf16_to_utf8_append
_RNvNtCsgtociwQ8c96_8bun_core12strings_impl35allocate_latin1_into_utf8_with_list
us_internal_dispatch_ready_polls
us_loop_run_bun_tick
us_poll_resize
us_poll_change
us_poll_start_rc
us_poll_stop
us_internal_accept_poll_event
us_create_timer
us_timer_close
us_timer_set
us_internal_create_async
us_internal_async_close
us_internal_async_set
us_internal_async_wakeup
us_socket_get_error
sweep_timer_noop
us_internal_enable_sweep_timer
sweep_timer_cb
us_internal_disable_sweep_timer
us_internal_loop_data_init
us_internal_loop_data_free
us_wakeup_loop
us_internal_loop_link_group
us_internal_loop_unlink_group
us_loop_close_all_groups
us_internal_timer_sweep
_RNvNtCsdAZa0WVRlFk_9bun_alloc8c_thunks15mi_malloc_items
us_internal_handle_low_priority_sockets
us_internal_dns_callback
us_internal_dns_callback_threadsafe
us_internal_free_closed_sockets
us_internal_loop_pre
us_internal_loop_post
us_internal_dispatch_ready_poll
us_loop_ext
us_quic_loop_process
us_quic_loop_flush_if_pending
_ZN3uWS13Http3Response5writeESt17basic_string_viewIcSt11char_traitsIcEEPm
uws_h3_res_has_responded
uws_h3_res_get_buffered_amount
uws_h3_res_end_sendfile
uws_h3_res_on_writable
uws_h3_res_clear_on_writable
uws_h3_res_on_aborted
uws_h3_res_on_timeout
uws_h3_res_on_data
uws_h3_res_cork
uws_h3_res_get_remote_address_info
uws_h3_req_set_yield
uws_h3_req_get_url
uws_h3_req_get_method
uws_h3_req_get_header
_ZN3uWS11BloomFilter9mightHaveESt17basic_string_viewIcSt11char_traitsIcEE
_ZN3uWS4Loop8wakeupCbEP9us_loop_t
_ZN3uWS4Loop5preCbEP9us_loop_t
_ZN3uWS4Loop6postCbEP9us_loop_t
_ZN3uWS8LoopDataC2Ev
_ZNSt8_Rb_treeIPvSt4pairIKS0_N5ofats13any_invocableIFvPN3uWS4LoopEEEEESt10_Select1stISA_ESt4lessIS0_ESaISA_EE22_M_emplace_hint_uniqueIJRS0_S9_EEESt17_Rb_tree_iteratorISA_ESt23_Rb_tree_const_iteratorISA_EDpOT_
_ZNSt8_Rb_treeIPvSt4pairIKS0_N5ofats13any_invocableIFvPN3uWS4LoopEEEEESt10_Select1stISA_ESt4lessIS0_ESaISA_EE29_M_get_insert_hint_unique_posESt23_Rb_tree_const_iteratorISA_ERS2_
_ZNSt8_Rb_treeIPvSt4pairIKS0_N5ofats13any_invocableIFvPN3uWS4LoopEEEEESt10_Select1stISA_ESt4lessIS0_ESaISA_EE5eraseERS2_
_ZNSt8_Rb_treeIPvSt4pairIKS0_N5ofats13any_invocableIFvPN3uWS4LoopEEEEESt10_Select1stISA_ESt4lessIS0_ESaISA_EE8_M_eraseEPSt13_Rb_tree_nodeISA_E
_ZNSt6vectorIN5ofats13any_invocableIFbPN3uWS10HttpRouterINS2_15HttpContextDataILb0EE10RouterDataEEEEEESaISA_EE17_M_realloc_appendIJSA_EEEvDpOT_
_ZNSt6vectorIN5ofats13any_invocableIFbPN3uWS10HttpRouterINS2_15HttpContextDataILb1EE10RouterDataEEEEEESaISA_EE17_M_realloc_appendIJSA_EEEvDpOT_
_ZNSt6vectorIN5ofats13any_invocableIFbPN3uWS10HttpRouterINS2_16Http3ContextData10RouterDataEEEEEESaIS9_EE17_M_realloc_appendIJS9_EEEvDpOT_
_ZNSt6vectorIN5ofats13any_invocableIFvvEEESaIS3_EE17_M_realloc_appendIJS3_EEEvDpOT_
_RNvMs_NtCs4YYdkJyg8hg_7bun_jsc29garbage_collection_controllerNtB4_27GarbageCollectionController4init
_RNCINvMNtCs279HaBX43du_11bun_uws_sys5timerNtB5_5Timer18create_fallthroughONtNtCs4YYdkJyg8hg_7bun_jsc29garbage_collection_controller27GarbageCollectionControllerE0B1e_
WebWorker__getParentWorker
WebWorker__notifyNeedTermination
WebWorker__releaseParentPollRef
WebWorker__setRef
ZigString__freeGlobal
Zig__GlobalObject__onCrash
Zig__GlobalObject__resolve
_RINvMs6_NtCsHrYIFyNDn9_9hashbrown3rawINtB6_8RawTableTNtNtCslDwGP1S1boP_15bun_collections14array_hash_map16StringHashMapKeyONtNtCsg31y7KV7Avq_12bun_resolver2fs13EntriesOptionENtCsdAZa0WVRlFk_9bun_alloc12DefaultAllocE14reserve_rehashNCINvNtB8_3map11make_hasherBP_B1W_INtNtCshzHRevywlmE_4core4hash18BuildHasherDefaultNtCslE9Wbi68HL1_10bun_wyhash13OneShotHasherEE0ECs4YYdkJyg8hg_7bun_jsc
_RINvMs6_NtCsHrYIFyNDn9_9hashbrown3rawINtB6_8RawTableTNtNtCslDwGP1S1boP_15bun_collections14array_hash_map16StringHashMapKeyPNtCs11Ov3HvMsFC_10bun_router5RouteENtCsdAZa0WVRlFk_9bun_alloc12DefaultAllocE14reserve_rehashNCINvNtB8_3map11make_hasherBP_B1W_INtNtCshzHRevywlmE_4core4hash18BuildHasherDefaultNtCslE9Wbi68HL1_10bun_wyhash13OneShotHasherEE0EB1Z_
_RINvMs6_NtCsHrYIFyNDn9_9hashbrown3rawINtB6_8RawTableTNtNtCslDwGP1S1boP_15bun_collections14array_hash_map16StringHashMapKeymENtCsdAZa0WVRlFk_9bun_alloc12DefaultAllocE14reserve_rehashNCINvNtB8_3map11make_hasherBP_mINtNtCshzHRevywlmE_4core4hash18BuildHasherDefaultNtCslE9Wbi68HL1_10bun_wyhash13OneShotHasherEE0ECs4e8grVMhPCb_6bun_md
_ZN7WebCore15BunBuiltinNamesC1ERN3JSC2VME
_ZN7WebCore15BunBuiltinNamesC2ERN3JSC2VME
_ZN3JSC10Identifier7fromUidERKNS_11PrivateNameE
_ZN3JSC11PrivateNameC2ENS0_16PrivateSymbolTagERKN3WTF6StringE
_ZNK7WebCore15BunBuiltinNames21AbortSignalPublicNameEv
_ZN3JSC3FTL7JITCode9dfgCommonEv
_ZNK3JSC3FTL7JITCode9dfgCommonEv
_ZNK7WebCore15BunBuiltinNames22AbortSignalPrivateNameEv
_ZNK7WebCore15BunBuiltinNames16BufferPublicNameEv
us_quic_stream_ext
_ZN3JSC3DFG7JITCode9dfgCommonEv
_ZNK3JSC3DFG7JITCode9dfgCommonEv
_ZNK7WebCore15BunBuiltinNames17BufferPrivateNameEv
us_quic_socket_ext
X509_get_issuer_name
_ZNK7WebCore15BunBuiltinNames16LoaderPublicNameEv
us_timer_ext
_ZNK7WebCore15BunBuiltinNames17LoaderPrivateNameEv
X509_get_notBefore
_ZNK7WebCore15BunBuiltinNames38ReadableByteStreamControllerPublicNameEv
_ZNK7WebCore9WebSocket3urlEv
_ZNK6icu_7515RBBIDataWrapper19getRuleSourceStringEv
_ZNK7WebCore15BunBuiltinNames39ReadableByteStreamControllerPrivateNameEv
_ZNK6icu_7512_GLOBAL__N_114PatternHandler13getEndPatternERKNS_13UnicodeStringE
_ZNK7WebCore15BunBuiltinNames24ReadableStreamPublicNameEv
us_socket_ext
X509_get_notAfter
_ZNK7WebCore15BunBuiltinNames25ReadableStreamPrivateNameEv
_ZNK7WebCore15BunBuiltinNames34ReadableStreamBYOBReaderPublicNameEv
us_connecting_socket_ext
_ZNK7WebCore15BunBuiltinNames35ReadableStreamBYOBReaderPrivateNameEv
X509_get_subject_name
_ZNK7WebCore15BunBuiltinNames35ReadableStreamBYOBRequestPublicNameEv
lsquic_conn_log_cid
_ZNK7WebCore15BunBuiltinNames36ReadableStreamBYOBRequestPrivateNameEv
_ZNK7WebCore15BunBuiltinNames41ReadableStreamDefaultControllerPublicNameEv
_ZNK7WebCore15BunBuiltinNames42ReadableStreamDefaultControllerPrivateNameEv
_ZNK7WebCore15BunBuiltinNames37ReadableStreamDefaultReaderPublicNameEv
_ZNK7WebCore15BunBuiltinNames38ReadableStreamDefaultReaderPrivateNameEv
_ZNK7WebCore15BunBuiltinNames13SQLPublicNameEv
_ZNK7WebCore15BunBuiltinNames14SQLPrivateNameEv
_ZNK7WebCore15BunBuiltinNames34TextEncoderStreamEncoderPublicNameEv
_ZNK7WebCore15BunBuiltinNames35TextEncoderStreamEncoderPrivateNameEv
_ZNK7WebCore15BunBuiltinNames25TransformStreamPublicNameEv
_ZNK7WebCore15BunBuiltinNames26TransformStreamPrivateNameEv
_ZNK7WebCore15BunBuiltinNames42TransformStreamDefaultControllerPublicNameEv
_ZNK7WebCore15BunBuiltinNames43TransformStreamDefaultControllerPrivateNameEv
_ZNK7WebCore15BunBuiltinNames24WritableStreamPublicNameEv
_ZNK7WebCore15BunBuiltinNames25WritableStreamPrivateNameEv
_ZNK7WebCore15BunBuiltinNames41WritableStreamDefaultControllerPublicNameEv
_ZNK7WebCore15BunBuiltinNames42WritableStreamDefaultControllerPrivateNameEv
EC_GROUP_get0_order
_ZNK7WebCore15BunBuiltinNames37WritableStreamDefaultWriterPublicNameEv
_ZNK7WebCore15BunBuiltinNames38WritableStreamDefaultWriterPrivateNameEv
_ZNK7WebCore15BunBuiltinNames17_eventsPublicNameEv
_ZNK7WebCore15BunBuiltinNames18_eventsPrivateNameEv
_ZNK7WebCore15BunBuiltinNames24abortAlgorithmPublicNameEv
_ZNK7WebCore15BunBuiltinNames25abortAlgorithmPrivateNameEv
_ZNK7WebCore15BunBuiltinNames20abortStepsPublicNameEv
_ZNK7WebCore15BunBuiltinNames21abortStepsPrivateNameEv
_ZNK7WebCore15BunBuiltinNames35addAbortAlgorithmToSignalPublicNameEv
_ZNK6icu_7513MessageFormat9getLocaleEv
_ZNK7WebCore15BunBuiltinNames36addAbortAlgorithmToSignalPrivateNameEv
lsqpack_dec_get_err_info
_ZNK7WebCore15BunBuiltinNames24assignToStreamPublicNameEv
_ZNK7WebCore15BunBuiltinNames25assignToStreamPrivateNameEv
_ZNK7WebCore15BunBuiltinNames48associatedReadableByteStreamControllerPublicNameEv
_ZNK7WebCore15BunBuiltinNames49associatedReadableByteStreamControllerPrivateNameEv
_ZNK7WebCore15BunBuiltinNames17atimeMsPublicNameEv
_ZNK7WebCore15BunBuiltinNames18atimeMsPrivateNameEv
_ZNK7WebCore15BunBuiltinNames20attributesPublicNameEv
_ZNK7WebCore15BunBuiltinNames21attributesPrivateNameEv
_ZNK7WebCore15BunBuiltinNames31autoAllocateChunkSizePublicNameEv
_ZNK7WebCore15BunBuiltinNames32autoAllocateChunkSizePrivateNameEv
_ZNK7WebCore15BunBuiltinNames22backpressurePublicNameEv
_ZNK7WebCore15BunBuiltinNames23backpressurePrivateNameEv
_ZNK7WebCore15BunBuiltinNames35backpressureChangePromisePublicNameEv
_ZNK7WebCore15BunBuiltinNames36backpressureChangePromisePrivateNameEv
_ZNK7WebCore15BunBuiltinNames18basenamePublicNameEv
_ZNK7WebCore15BunBuiltinNames19basenamePrivateNameEv
_ZNK7WebCore15BunBuiltinNames21birthtimeMsPublicNameEv
_ZNK7WebCore15BunBuiltinNames22birthtimeMsPrivateNameEv
_ZNK7WebCore15BunBuiltinNames14bodyPublicNameEv
_ZNK7WebCore15BunBuiltinNames15bodyPrivateNameEv
_ZNK7WebCore15BunBuiltinNames22bunNativePtrPublicNameEv
_ZNK7WebCore15BunBuiltinNames23bunNativePtrPrivateNameEv
_ZNK7WebCore15BunBuiltinNames23bunNativeTypePublicNameEv
_ZNK7WebCore15BunBuiltinNames24bunNativeTypePrivateNameEv
_ZNK7WebCore15BunBuiltinNames21byobRequestPublicNameEv
_ZNK7WebCore15BunBuiltinNames22byobRequestPrivateNameEv
_ZNK6icu_7516SimpleDateFormat15getSmpFmtLocaleEv
_ZNK7WebCore15BunBuiltinNames16cancelPublicNameEv
_ZNK7WebCore15BunBuiltinNames17cancelPrivateNameEv
_ZNK7WebCore15BunBuiltinNames25cancelAlgorithmPublicNameEv
_ZNK7WebCore15BunBuiltinNames26cancelAlgorithmPrivateNameEv
_ZNK7WebCore15BunBuiltinNames16checksPublicNameEv
_ZNK7WebCore15BunBuiltinNames17checksPrivateNameEv
_ZNK7WebCore15BunBuiltinNames25checkBufferReadPublicNameEv
_ZNK7WebCore15BunBuiltinNames26checkBufferReadPrivateNameEv
_ZNK7WebCore15BunBuiltinNames26cloneArrayBufferPublicNameEv
_ZNK7WebCore15BunBuiltinNames27cloneArrayBufferPrivateNameEv
_ZNK7WebCore15BunBuiltinNames15closePublicNameEv
_ZNK7WebCore15BunBuiltinNames16closePrivateNameEv
_ZNK7WebCore15BunBuiltinNames24closeAlgorithmPublicNameEv
_ZNK7WebCore15BunBuiltinNames25closeAlgorithmPrivateNameEv
_ZNK7WebCore15BunBuiltinNames22closeRequestPublicNameEv
_ZNK7WebCore15BunBuiltinNames23closeRequestPrivateNameEv
_ZNK7WebCore15BunBuiltinNames24closeRequestedPublicNameEv
_ZNK7WebCore15BunBuiltinNames25closeRequestedPrivateNameEv
_ZNK7WebCore15BunBuiltinNames23closedPromisePublicNameEv
_ZNK7WebCore15BunBuiltinNames24closedPromisePrivateNameEv
_ZNK7WebCore15BunBuiltinNames33closedPromiseCapabilityPublicNameEv
_ZNK7WebCore15BunBuiltinNames34closedPromiseCapabilityPrivateNameEv
_ZNK7WebCore15BunBuiltinNames13cmdPublicNameEv
_ZNK7WebCore15BunBuiltinNames14cmdPrivateNameEv
_ZNK7WebCore15BunBuiltinNames14codePublicNameEv
_ZNK7WebCore15BunBuiltinNames15codePrivateNameEv
_ZNK7WebCore15BunBuiltinNames34controlledReadableStreamPublicNameEv
_ZNK7WebCore15BunBuiltinNames35controlledReadableStreamPrivateNameEv
_ZNK7WebCore15BunBuiltinNames20controllerPublicNameEv
_ZNK7WebCore15BunBuiltinNames21controllerPrivateNameEv
_ZNK7WebCore15BunBuiltinNames30createCommonJSModulePublicNameEv
_ZNK7WebCore15BunBuiltinNames31createCommonJSModulePrivateNameEv
_ZNK7WebCore15BunBuiltinNames35createEmptyReadableStreamPublicNameEv
_ZNK7WebCore15BunBuiltinNames36createEmptyReadableStreamPrivateNameEv
_ZNK7WebCore15BunBuiltinNames37createErroredReadableStreamPublicNameEv
_ZNK7WebCore15BunBuiltinNames38createErroredReadableStreamPrivateNameEv
_ZNK7WebCore15BunBuiltinNames20createFIFOPublicNameEv
_ZNK7WebCore15BunBuiltinNames21createFIFOPrivateNameEv
_ZNK7WebCore15BunBuiltinNames34createInternalModuleByIdPublicNameEv
_ZNK7WebCore15BunBuiltinNames35createInternalModuleByIdPrivateNameEv
_ZNK7WebCore15BunBuiltinNames36createNativeReadableStreamPublicNameEv
_ZNK7WebCore15BunBuiltinNames37createNativeReadableStreamPrivateNameEv
_ZNK7WebCore15BunBuiltinNames40createUninitializedArrayBufferPublicNameEv
_ZNK7WebCore15BunBuiltinNames41createUninitializedArrayBufferPrivateNameEv
_ZNK7WebCore15BunBuiltinNames34createUsedReadableStreamPublicNameEv
_ZNK7WebCore15BunBuiltinNames35createUsedReadableStreamPrivateNameEv
_ZNK7WebCore15BunBuiltinNames42createWritableStreamFromInternalPublicNameEv
_ZNK7WebCore15BunBuiltinNames43createWritableStreamFromInternalPrivateNameEv
_ZNK7WebCore15BunBuiltinNames17ctimeMsPublicNameEv
_ZNK7WebCore15BunBuiltinNames18ctimeMsPrivateNameEv
_ZNK7WebCore15BunBuiltinNames14dataPublicNameEv
_ZNK7WebCore15BunBuiltinNames15dataPrivateNameEv
_ZNK7WebCore15BunBuiltinNames18dataViewPublicNameEv
_ZNK7WebCore15BunBuiltinNames19dataViewPrivateNameEv
_ZNK7WebCore15BunBuiltinNames16decodePublicNameEv
_ZNK7WebCore15BunBuiltinNames17decodePrivateNameEv
_ZNK7WebCore15BunBuiltinNames14destPublicNameEv
_ZNK7WebCore15BunBuiltinNames15destPrivateNameEv
_ZNK7WebCore15BunBuiltinNames17dirnamePublicNameEv
_ZNK7WebCore15BunBuiltinNames18dirnamePrivateNameEv
_ZNK7WebCore15BunBuiltinNames19disturbedPublicNameEv
_ZNK7WebCore15BunBuiltinNames20disturbedPrivateNameEv
_ZNK7WebCore15BunBuiltinNames16domainPublicNameEv
_ZNK7WebCore15BunBuiltinNames17domainPrivateNameEv
_ZNK7WebCore15BunBuiltinNames18encodingPublicNameEv
_ZNK7WebCore15BunBuiltinNames19encodingPrivateNameEv
_ZNK7WebCore15BunBuiltinNames13endPublicNameEv
archive_entry_acl
_ZNK7WebCore15BunBuiltinNames14endPrivateNameEv
_ZNK7WebCore15BunBuiltinNames15errnoPublicNameEv
_ZNK7WebCore15BunBuiltinNames16errnoPrivateNameEv
_ZNK7WebCore15BunBuiltinNames20errorStepsPublicNameEv
_ZNK7WebCore15BunBuiltinNames21errorStepsPrivateNameEv
_ZNK7WebCore15BunBuiltinNames32evaluateCommonJSModulePublicNameEv
_ZNK7WebCore15BunBuiltinNames33evaluateCommonJSModulePrivateNameEv
_ZNK7WebCore15BunBuiltinNames43evictIsolationSourceProviderCachePublicNameEv
_ZNK7WebCore15BunBuiltinNames44evictIsolationSourceProviderCachePrivateNameEv
_ZNK7WebCore15BunBuiltinNames17expiresPublicNameEv
_ZNK7WebCore15BunBuiltinNames18expiresPrivateNameEv
_ZNK7WebCore15BunBuiltinNames17exportsPublicNameEv
_ZNK7WebCore15BunBuiltinNames18exportsPrivateNameEv
_ZNK7WebCore15BunBuiltinNames17extnamePublicNameEv
_ZNK7WebCore15BunBuiltinNames18extnamePrivateNameEv
_ZNK7WebCore15BunBuiltinNames18fastPathPublicNameEv
_ZNK7WebCore15BunBuiltinNames19fastPathPrivateNameEv
_ZNK7WebCore15BunBuiltinNames15fatalPublicNameEv
_ZNK7WebCore15BunBuiltinNames16fatalPrivateNameEv
_ZNK7WebCore15BunBuiltinNames12fdPublicNameEv
_ZNK7WebCore15BunBuiltinNames13fdPrivateNameEv
_ZNK7WebCore15BunBuiltinNames18filenamePublicNameEv
_ZNK7WebCore15BunBuiltinNames19filenamePrivateNameEv
_ZNK7WebCore15BunBuiltinNames24flushAlgorithmPublicNameEv
_ZNK7WebCore15BunBuiltinNames25flushAlgorithmPrivateNameEv
_ZNK7WebCore15BunBuiltinNames16formatPublicNameEv
_ZNK7WebCore15BunBuiltinNames17formatPrivateNameEv
_ZNK7WebCore15BunBuiltinNames27fulfillModuleSyncPublicNameEv
_ZNK7WebCore15BunBuiltinNames28fulfillModuleSyncPrivateNameEv
_ZNK7WebCore15BunBuiltinNames28esmNamespaceForCjsPublicNameEv
_ZNK7WebCore15BunBuiltinNames29esmNamespaceForCjsPrivateNameEv
_ZNK7WebCore15BunBuiltinNames27esmRegistryDeletePublicNameEv
_ZNK7WebCore15BunBuiltinNames28esmRegistryDeletePrivateNameEv
_ZNK7WebCore15BunBuiltinNames34esmRegistryEvaluatedKeysPublicNameEv
_ZNK7WebCore15BunBuiltinNames35esmRegistryEvaluatedKeysPrivateNameEv
_ZNK7WebCore15BunBuiltinNames21esmLoadSyncPublicNameEv
_ZNK7WebCore15BunBuiltinNames22esmLoadSyncPrivateNameEv
_ZNK7WebCore15BunBuiltinNames35getInternalWritableStreamPublicNameEv
_ZNK7WebCore15BunBuiltinNames36getInternalWritableStreamPrivateNameEv
_ZNK7WebCore15BunBuiltinNames21handleEventPublicNameEv
_ZNK7WebCore15BunBuiltinNames22handleEventPrivateNameEv
_ZNK7WebCore15BunBuiltinNames17headersPublicNameEv
_ZNK7WebCore15BunBuiltinNames18headersPrivateNameEv
_ZNK7WebCore15BunBuiltinNames23highWaterMarkPublicNameEv
_ZNK7WebCore15BunBuiltinNames24highWaterMarkPrivateNameEv
_ZNK7WebCore15BunBuiltinNames14hostPublicNameEv
_ZNK7WebCore15BunBuiltinNames15hostPrivateNameEv
_ZNK7WebCore15BunBuiltinNames31hostDefinedImportTypePublicNameEv
_ZNK7WebCore15BunBuiltinNames32hostDefinedImportTypePrivateNameEv
_ZNK7WebCore15BunBuiltinNames18hostnamePublicNameEv
_ZNK7WebCore15BunBuiltinNames19hostnamePrivateNameEv
_ZNK7WebCore15BunBuiltinNames18httpOnlyPublicNameEv
_ZNK7WebCore15BunBuiltinNames19httpOnlyPrivateNameEv
_ZNK7WebCore15BunBuiltinNames19ignoreBOMPublicNameEv
_ZNK7WebCore15BunBuiltinNames20ignoreBOMPrivateNameEv
_ZNK7WebCore15BunBuiltinNames18importerPublicNameEv
_ZNK7WebCore15BunBuiltinNames19importerPrivateNameEv
_ZNK7WebCore15BunBuiltinNames30inFlightCloseRequestPublicNameEv
_ZNK7WebCore15BunBuiltinNames31inFlightCloseRequestPrivateNameEv
_ZNK7WebCore15BunBuiltinNames30inFlightWriteRequestPublicNameEv
_ZNK7WebCore15BunBuiltinNames31inFlightWriteRequestPrivateNameEv
_ZNK7WebCore15BunBuiltinNames18inheritsPublicNameEv
_ZNK7WebCore15BunBuiltinNames19inheritsPrivateNameEv
_ZNK7WebCore15BunBuiltinNames32internalModuleRegistryPublicNameEv
_ZNK7WebCore15BunBuiltinNames33internalModuleRegistryPrivateNameEv
_ZNK7WebCore15BunBuiltinNames25internalRequirePublicNameEv
_ZNK7WebCore15BunBuiltinNames26internalRequirePrivateNameEv
_ZNK7WebCore15BunBuiltinNames26internalWritablePublicNameEv
_ZNK7WebCore15BunBuiltinNames27internalWritablePrivateNameEv
_ZNK7WebCore15BunBuiltinNames23isAbortSignalPublicNameEv
_ZNK7WebCore15BunBuiltinNames24isAbortSignalPrivateNameEv
_ZNK7WebCore15BunBuiltinNames20isAbsolutePublicNameEv
_ZN3Zig12GlobalObject6createERN3JSC2VMEPNS1_9StructureEPKNS1_23GlobalObjectMethodTableE
_ZN3Zig12GlobalObject15createStructureERN3JSC2VME
_ZN3Zig12GlobalObject24resetOnEachMicrotaskTickEv
_ZL21cleanupAsyncHooksDataRN3JSC2VME
_ZL39checkIfNextTickWasCalledDuringMicrotaskRN3JSC2VME
Zig__GlobalObject__create
_ZN3Zig12GlobalObject10setConsoleEPv
Zig__GlobalObject__createForTestIsolation
_ZNK3Zig12GlobalObject22scriptExecutionContextEv
_ZN3Zig12GlobalObject29adoptNapiEnvsForTestIsolationEPS0_
_ZN3JSC14NumericStringsD2Ev
_Z16WTFCrashWithInfoIiPvS0_S0_EviPKcS2_T_T0_T1_T2_
_ZN3JSC2VM9tryCreateENS_8HeapTypeEPN3WTF7RunLoopE
_ZN3JSC2VM22enableSamplingProfilerEv
_ZN3JSC2VM23disableSamplingProfilerEv
_ZN3JSC2VM33takeSamplingProfilerSamplesAsJSONEv
_ZN3JSC2VM26ensureTerminationExceptionEv
_ZN3JSC2VM10getCTIStubEPFNS_21MacroAssemblerCodeRefILN3WTF6PtrTagE26129EEERS0_E
_ZN3JSC2VM10getCTIStubENS_16CommonJITThunkIDE
_ZN3JSC2VM15getHostFunctionEN3WTF11FunctionPtrILNS1_6PtrTagE1EFlPNS_14JSGlobalObjectEPNS_9CallFrameEELNS1_18FunctionAttributesE2EEENS_24ImplementationVisibilityESA_jRKNS1_6StringE
_ZN3JSC2VM15getHostFunctionEN3WTF11FunctionPtrILNS1_6PtrTagE1EFlPNS_14JSGlobalObjectEPNS_9CallFrameEELNS1_18FunctionAttributesE2EEENS_24ImplementationVisibilityENS_9IntrinsicESA_PKNS_6DOMJIT9SignatureEjRKNS1_6StringE
pas_all_heaps_compute_total_non_utility_segregated_summary
compute_total_non_utility_segregated_summary_directory_callback
pas_all_heaps_compute_total_non_utility_bitfit_summary
compute_total_non_utility_bitfit_summary_heap_callback
pas_all_heaps_compute_total_non_utility_large_summary
for_each_segregated_directory_size_directory_callback
pas_bitfit_heap_create
pas_bitfit_heap_select_variant
pas_bitfit_heap_construct_and_insert_size_class
pas_large_sharing_pool_compute_summary
_ZN3JSC2VM17getRemoteFunctionEb
_ZZN3JSC2VM17getRemoteFunctionEbENK3$_0clERNS_4WeakINS_16NativeExecutableEEE
_ZN3JSC2VM35getCTIInternalFunctionTrampolineForENS_22CodeSpecializationKindE
_ZN3JSC2VM17getCTIVirtualCallENS_8CallModeE
_ZN3JSC2VM8whenIdleEON3WTF8FunctionIFvvEEE
_ZN3JSC2VM13deleteAllCodeENS_19DeleteAllCodeEffortE
_ZN3JSC2VM23shrinkFootprintWhenIdleEv
pas_bitfit_allocator_finish_failing
pas_bitfit_directory_construct
pas_bitfit_directory_max_free_did_become_unprocessed
pas_bitfit_directory_max_free_did_become_unprocessed_unchecked
pas_bitfit_directory_max_free_did_become_empty
pas_bitfit_directory_get_first_free_view
pas_bitfit_page_deallocation_did_fail
pas_bitfit_size_class_find_insertion_point
pas_bitfit_size_class_construct
_ZN3WTF24StackTraceSymbolResolver8demangleEPv
_ZNK3WTF17StackTracePrinter4dumpERNS_11PrintStreamE
_ZN3WTF17StringPrintStreamC1Ev
_ZN3WTF17StringPrintStreamC2Ev
_ZN3WTF17StringPrintStreamD1Ev
_ZN3WTF17StringPrintStreamD2Ev
_ZN3WTF17StringPrintStreamD0Ev
bmalloc_marge_bitfit_page_config_specialized_page_deallocate_with_page
pas_bitfit_size_class_get_first_free_view
pas_bitfit_view_create
pas_bitfit_view_note_nonemptiness
pas_bitfit_view_note_full_emptiness
pas_bitfit_view_note_partial_emptiness
pas_bitfit_view_note_max_free
bmalloc_marge_bitfit_page_config_specialized_page_get_allocation_size_with_page
_ZL45bmalloc_marge_bitfit_page_header_for_boundaryPv
_ZL45bmalloc_marge_bitfit_boundary_for_page_headerP13pas_page_base
bmalloc_marge_bitfit_page_header_for_boundary_remote
bmalloc_marge_bitfit_create_page_header
bmalloc_marge_bitfit_destroy_page_header
bmalloc_heap_config_allocate_marge_bitfit_page
bmalloc_medium_bitfit_page_config_specialized_allocator_try_allocate
pas_bitfit_directory_compute_summary
pas_bitfit_directory_get_use_epoch
pas_bitfit_directory_get_empty_bit_at_index
pas_bitfit_directory_view_did_become_empty_at_index
pas_bitfit_directory_view_did_become_empty
pas_bitfit_directory_take_last_empty
pas_bitfit_page_config_kind_get_string
pas_bitfit_page_construct
pas_bitfit_page_get_config
pas_bitfit_page_log_bits
_ZN3WTF9HashTableIPN3JSC9CodeBlockENS_12KeyValuePairIS3_NS_3RefINS1_8Profiler11CompilationENS_12RawPtrTraitsIS7_EENS_21DefaultRefDerefTraitsIS7_EEEEEENS_24KeyValuePairKeyExtractorISD_EENS_11DefaultHashIS3_EENS_7HashMapIS3_SC_SH_NS_10HashTraitsIS3_EENSJ_ISC_EENS_15HashTableTraitsELNS_17ShouldValidateKeyE0ENS_10FastMallocEE18KeyValuePairTraitsESK_SO_E6rehashENS_7CheckedIjNS_15CrashOnOverflowEEEPSD_
_ZN3WTF9HashTableIPN3JSC9CodeBlockENS_12KeyValuePairIS3_NS_3RefINS1_8Profiler11CompilationENS_12RawPtrTraitsIS7_EENS_21DefaultRefDerefTraitsIS7_EEEEEENS_24KeyValuePairKeyExtractorISD_EENS_11DefaultHashIS3_EENS_7HashMapIS3_SC_SH_NS_10HashTraitsIS3_EENSJ_ISC_EENS_15HashTableTraitsELNS_17ShouldValidateKeyE0ENS_10FastMallocEE18KeyValuePairTraitsESK_SO_E3addINS_17HashMapTranslatorISQ_SH_EELSN_0ERKS3_TkSt9invocableZNSP_9inlineAddISW_SC_EENS_18HashTableAddResultINS_17HashTableIteratorISR_S3_SD_SF_SH_SQ_SK_EEEEOT_OT0_EUlvE_EES11_OT1_RKT2_
_ZN3WTF6VectorIN3JSC8Profiler5EventELm0ENS_15CrashOnOverflowELm16ENS_10FastMallocEE14expandCapacityILNS_13FailureActionE0EEEPS3_mS9_
_ZN3WTF6VectorIN3JSC8Profiler5EventELm0ENS_15CrashOnOverflowELm16ENS_10FastMallocEE15reserveCapacityILNS_13FailureActionE0EEEbm
_ZZNSt9once_flag18_Prepare_executionC1IZSt9call_onceIZN3JSC8Profiler8Database19addDatabaseToAtExitEvE3$_0JEEvRS_OT_DpOT0_EUlvE_EERS8_ENUlvE_8__invokeEv
_ZN3WTF13printInternalERNS_11PrintStreamERKNS_27ObjectIdentifierGenericBaseImEE
_ZN3WTF38ObjectIdentifierThreadSafeAccessTraitsImE26generateIdentifierInternalEv
_ZN3WTF13printInternalERNS_11PrintStreamEN3JSC8Profiler14JettisonReasonE
_ZN3JSC8Profiler7OSRExitC1EjRKNS0_11OriginStackENS_8ExitKindEb
_ZN3JSC8Profiler7OSRExitC2EjRKNS0_11OriginStackENS_8ExitKindEb
_ZNK3JSC8Profiler7OSRExit6toJSONERNS0_6DumperE
_ZNK3JSC8Profiler11OriginStack6toJSONERNS0_6DumperE
_ZNK3JSC8Profiler11OSRExitSite6toJSONERNS0_6DumperE
_ZN3JSC8Profiler11OriginStackC1ERKNS0_6OriginE
_ZN3JSC8Profiler11OriginStackC2ERKNS0_6OriginE
_ZN3JSC8Profiler11OriginStackC1ERNS0_8DatabaseEPNS_9CodeBlockERKNS_10CodeOriginE
_ZN3JSC8Profiler11OriginStackC2ERNS0_8DatabaseEPNS_9CodeBlockERKNS_10CodeOriginE
_ZNK3JSC8Profiler11OriginStackeqERKS1_
_ZNK3JSC8Profiler11OriginStack4hashEv
_ZN3JSC8Profiler17ProfiledBytecodesC1EPNS0_9BytecodesEPNS_9CodeBlockE
_ZN3JSC8Profiler17ProfiledBytecodesC2EPNS0_9BytecodesEPNS_9CodeBlockE
_ZN3JSC8Profiler17ProfiledBytecodesD1Ev
_ZN3JSC8Profiler17ProfiledBytecodesD2Ev
_ZNK3JSC8Profiler17ProfiledBytecodes6toJSONERNS0_6DumperE
_ZN3JSC20AbstractModuleRecord13estimatedSizeEPNS_6JSCellERNS_2VME
_ZN3JSC20AbstractModuleRecord13visitChildrenEPNS_6JSCellERNS_11SlotVisitorE
_ZN3JSC20AbstractModuleRecord13visitChildrenEPNS_6JSCellERNS_19AbstractSlotVisitorE
_ZN3JSC20AbstractModuleRecordC1ERNS_2VMEPNS_9StructureENS_10IdentifierE
_ZN3JSC20AbstractModuleRecordC2ERNS_2VMEPNS_9StructureENS_10IdentifierE
_ZN3JSC20JSLexicalEnvironment13visitChildrenEPNS_6JSCellERNS_19AbstractSlotVisitorE
_ZN3JSC12JSLockHolderC1EPNS_14JSGlobalObjectE
_ZN3JSC12JSLockHolderC2EPNS_14JSGlobalObjectE
_ZN3JSC12JSLockHolderC1ERNS_2VME
_ZN3JSC12JSLockHolderC2ERNS_2VME
_ZN3JSC12JSLockHolderC1EPNS_2VME
_ZN3JSC12JSLockHolderC2EPNS_2VME
_ZN3JSC6JSLock4lockEv
_ZN3JSC12JSLockHolderD1Ev
_ZN3JSC12JSLockHolderD2Ev
_ZN3JSC6JSLock6unlockEv
_ZN3JSC6JSLockC1EPNS_2VME
_ZN3JSC6JSLockC2EPNS_2VME
_ZN3JSC6JSLockD1Ev
_ZN3JSC6JSLockD2Ev
_ZN3JSC6JSLock13willDestroyVMEPNS_2VME
_ZN3JSC6JSLock4lockEl
_ZN3JSC6JSLock26currentThreadIsHoldingLockEv
_ZN3JSC6JSLock14didAcquireLockEv
_ZN3JSC14MachineThreads16addCurrentThreadEv
_ZN3JSC6JSLock6unlockEl
_ZN3JSC6JSLock15willReleaseLockEv
_ZN3JSC6JSLock12dropAllLocksEPNS0_12DropAllLocksE
_ZN3JSC6JSLock12grabAllLocksEPNS0_12DropAllLocksEj
_ZN3JSC6JSLock12DropAllLocksC1EPNS_2VME
_ZN3JSC6JSLock12DropAllLocksC2EPNS_2VME
_ZN3JSC2VM30isCollectorBusyOnCurrentThreadEv
_ZN3JSC6JSLock12DropAllLocksC1EPNS_14JSGlobalObjectE
_ZN3JSC6JSLock12DropAllLocksC2EPNS_14JSGlobalObjectE
_ZN3JSC6JSLock12DropAllLocksD1Ev
_ZN3JSC6JSLock12DropAllLocksD2Ev
_ZN3JSC5JSMap5cloneEPNS_14JSGlobalObjectERNS_2VMEPNS_9StructureE
_ZN3JSC5JSMap25isSetFastAndNonObservableEPNS_9StructureE
_ZN3JSC13JSMapIterator13visitChildrenEPNS_6JSCellERNS_11SlotVisitorE
_ZN3JSC13JSMapIterator13visitChildrenEPNS_6JSCellERNS_19AbstractSlotVisitorE
_ZN3WTF35cryptographicallyRandomValuesFromOSESt4spanIhLm18446744073709551615EE
_ZN3WTF12RandomDeviceC1Ev
_ZN3WTF12RandomDeviceC2Ev
_ZN7WebCore6Cookie17isValidCookiePathERKN3WTF6StringE
_ZN7WebCore6Cookie19isValidCookieDomainERKN3WTF6StringE
_ZNK7WebCore6Cookie8appendToERN3JSC2VMERN3WTF13StringBuilderE
_ZN3WTF29cryptographicallyRandomNumberIjEET_v
_ZN3WTF12RandomDevice29cryptographicallyRandomValuesESt4spanIhLm18446744073709551615EE
_ZN3WTF4SHA1C1Ev
_ZN3WTF4SHA1C2Ev
_ZN3WTF4SHA18addBytesESt4spanIKSt4byteLm18446744073709551615EE
_ZN3WTF4SHA112processBlockEv
_ZN3WTF4SHA111computeHashERSt5arrayIhLm20EE
_ZN3WTF4SHA18finalizeEv
_ZN3JSC13JSMapIterator23createWithInitialValuesERNS_2VMEPNS_9StructureE
_ZN3WTF9URLParser14parseIPv4PieceIDsEENSt12experimental15fundamentals_v38expectedIjNS0_21IPv4PieceParsingErrorEEERNS_17CodePointIteratorIT_EERb
_ZN3WTF9URLParser17percentDecodeImplIZNS0_13percentDecodeIDsEENS_6VectorIhLm2048ENS_15CrashOnOverflowELm16ENS_10FastMallocEEESt4spanIKhLm18446744073709551615EERKNS_17CodePointIteratorIT_EEEUlvE_EES6_S9_OSB_
_ZN3WTF6VectorIhLm2048ENS_15CrashOnOverflowELm16ENS_10FastMallocEE18appendUsingFunctorITkNS_9InvocableIFT_mEEEZNS_9URLParser13domainToASCIIIDsEESt8optionalIS3_ERNS_10StringImplERKNS_17CodePointIteratorIS6_EEEUlmE_EEvmRKS6_
_ZN3WTF6VectorIhLm2048ENS_15CrashOnOverflowELm16ENS_10FastMallocEE18appendUsingFunctorITkNS_9InvocableIFT_mEEEZNS_9URLParser13domainToASCIIIDsEESt8optionalIS3_ERNS_10StringImplERKNS_17CodePointIteratorIS6_EEEUlmE0_EEvmRKS6_
_ZN3WTF12parseIntegerImDsEESt8optionalIT_ESt4spanIKT0_Lm18446744073709551615EEhNS_18TrailingJunkPolicyENS_28ParseIntegerWhitespacePolicyE
_ZN3JSC9Integrity6logLnFEPKcz
_ZN3JSC9Integrity6RandomC1ERNS_2VME
_ZN3JSC9Integrity6RandomC2ERNS_2VME
_ZN3JSC9Integrity6Random29reloadAndCheckShouldAuditSlowERNS_2VME
_ZN3JSC9Integrity8Analyzer11analyzeCellERNS_2VMEPNS_6JSCellENS1_6ActionE
_ZN3JSC9HandleSet18visitStrongHandlesINS_11SlotVisitorEEEvRT_
_ZN3JSC9HandleSet4growEv
_ZN3JSC4Heap8isMarkedEPKv
_ZN3JSC4HeapC1ERNS_2VMENS_8HeapTypeE
_ZN3JSC4HeapC2ERNS_2VMENS_8HeapTypeE
_ZN3JSC11MarkedBlock6Handle9dumpStateERN3WTF11PrintStreamE
_ZNK3JSC11MarkedBlock6Handle8subspaceEv
_ZN3JSC11MarkedBlock34dumpInfoAndCrashForInvalidHandleV2EPNS_8HeapCellEmmmmPNS_2VMES4_
_Z16WTFCrashWithInfoIPN3JSC8HeapCellEmmmmPNS0_2VMES4_EviPKcS6_T_T0_T1_T2_T3_T4_T5_
_ZN3JSCL71crashDueToGarbageCollectorClientDanglingReference_CheckRootsAndBarriersEPNS_8HeapCellEmmmmPNS_2VMES3_
_ZN3JSC11MarkedSpaceC1EPNS_4HeapE
_ZN3JSC11MarkedSpaceC2EPNS_4HeapE
_ZN3JSC11MarkedSpaceD1Ev
_ZN3JSC11MarkedSpaceD2Ev
_ZN3JSC11MarkedSpace10freeMemoryEv
_ZN3JSC11MarkedSpace20lastChanceToFinalizeEv
_ZN3JSC11MarkedSpace11sweepBlocksEv
_ZN3JSC11MarkedSpace25registerPreciseAllocationEPNS_17PreciseAllocationEb
_ZN3JSC11MarkedSpace23sweepPreciseAllocationsEv
_ZN3JSC11MarkedSpace20prepareForAllocationEv
_ZN3JSC11MarkedSpace31enablePreciseAllocationTrackingEv
_ZN3JSC11MarkedSpace12reapWeakSetsEv
_ZN3JSC11MarkedSpace14stopAllocatingEv
_ZN3JSC11MarkedSpace21stopAllocatingForGoodEv
_ZN3JSC11MarkedSpace26prepareForConservativeScanEv
_ZSt16__introsort_loopIPPN3JSC17MarkingConstraintElN9__gnu_cxx5__ops15_Iter_comp_iterIZNSt6ranges8__detail16__make_comp_projIZNS0_20MarkingConstraintSet22executeConvergenceImplERNS0_11SlotVisitorEE3$_0St8identityEEDaRT_RT0_EUlOSF_OSH_E_EEEvSF_SF_SH_T1_
_ZZNSt9once_flag18_Prepare_executionC1IZSt9call_onceIZN3JSC11MarkedSpace30initializeSizeClassForStepSizeEvE3$_0JEEvRS_OT_DpOT0_EUlvE_EERS7_ENUlvE_8__invokeEv
_ZN3WTF9HashTableINS_6StringENS_12KeyValuePairIS1_NS_3RefINS_8JSONImpl5ValueENS_12RawPtrTraitsIS5_EENS_21DefaultRefDerefTraitsIS5_EEEEEENS_24KeyValuePairKeyExtractorISB_EENS_11DefaultHashIS1_EENS_7HashMapIS1_SA_SF_NS_10HashTraitsIS1_EENSH_ISA_EENS_15HashTableTraitsELNS_17ShouldValidateKeyE1ENS_10FastMallocEE18KeyValuePairTraitsESI_SM_E3addINS_17HashMapTranslatorISO_SF_EELSL_1ERKS1_TkSt9invocableZNSN_9inlineAddISU_SA_EENS_18HashTableAddResultINS_17HashTableIteratorISP_S1_SB_SD_SF_SO_SI_EEEEOT_OT0_EUlvE_EESZ_OT1_RKT2_
_ZN3WTF9HashTableINS_6StringENS_12KeyValuePairIS1_NS_3RefINS_8JSONImpl5ValueENS_12RawPtrTraitsIS5_EENS_21DefaultRefDerefTraitsIS5_EEEEEENS_24KeyValuePairKeyExtractorISB_EENS_11DefaultHashIS1_EENS_7HashMapIS1_SA_SF_NS_10HashTraitsIS1_EENSH_ISA_EENS_15HashTableTraitsELNS_17ShouldValidateKeyE1ENS_10FastMallocEE18KeyValuePairTraitsESI_SM_E6rehashENS_7CheckedIjNS_15CrashOnOverflowEEEPSB_
_ZN3WTF6VectorI6pollfdLm0ENS_15CrashOnOverflowELm16ENS_10FastMallocEE14expandCapacityILNS_13FailureActionE0EEEPS1_mS7_
_ZN3WTF6VectorIN3JSC10IdentifierELm0ENS_15CrashOnOverflowELm16ENS_10FastMallocEE14expandCapacityILNS_13FailureActionE0EEEPS2_mS8_
_ZN3WTF6VectorIN3JSC10IdentifierELm0ENS_20UnsafeVectorOverflowELm16ENS_10FastMallocEE14expandCapacityILNS_13FailureActionE0EEEPS2_mS8_
_ZN3WTF6VectorIN3JSC12WriteBarrierINS1_20AbstractModuleRecordENS_12RawPtrTraitsIS3_EEEELm0ENS_15CrashOnOverflowELm16ENS_10FastMallocEE14expandCapacityILNS_13FailureActionE0EEEPS6_mSC_
_ZN3WTF6VectorIN3JSC12WriteBarrierINS1_26UnlinkedFunctionExecutableENS_12RawPtrTraitsIS3_EEEELm0ENS_15CrashOnOverflowELm16ENS_10FastMallocEE14expandCapacityILNS_13FailureActionE0EEEPS6_mSC_
_ZN3WTF6VectorIN3JSC12WriteBarrierINS1_7UnknownENS_14RawValueTraitsIS3_EEEELm0ENS_15CrashOnOverflowELm16ENS_10FastMallocEE14expandCapacityILNS_13FailureActionE0EEEPS6_mSC_
_ZN3WTF6VectorIN3JSC12WriteBarrierINS1_9JSPromiseENS_12RawPtrTraitsIS3_EEEELm0ENS_15CrashOnOverflowELm16ENS_10FastMallocEE14expandCapacityILNS_13FailureActionE0EEEPS6_mSC_
_ZN3WTF6VectorIN3JSC14ExpressionInfo7ChapterELm0ENS_15CrashOnOverflowELm16ENS_10FastMallocEE14expandCapacityILNS_13FailureActionE0EEEPS3_mS9_
_ZN3WTF6VectorIN3JSC15IRDumpDebugInfo9CodeEntryELm0ENS_15CrashOnOverflowELm16ENS_10FastMallocEE14expandCapacityILNS_13FailureActionE0EEEPS3_mS9_
_ZN3WTF6VectorIN3JSC2B33Air12_GLOBAL__N_125AbstractColoringAllocatorIjNS_27UndirectedEdgesDedupAdapterINS_18InterferenceVectorINS_29LikelyDenseUnsignedIntegerSetIjEEjEEEELNS2_4BankE0EE12MoveOperandsELm0ENS_20UnsafeVectorOverflowELm16ENS_10FastMallocEE14expandCapacityILNS_13FailureActionE0EEEPSE_mSK_
_ZN3WTF6VectorIN3JSC2B33Air12_GLOBAL__N_125AbstractColoringAllocatorIjNS_27UndirectedEdgesDedupAdapterINS_18InterferenceVectorINS_29LikelyDenseUnsignedIntegerSetIjEEjEEEELNS2_4BankE1EE12MoveOperandsELm0ENS_20UnsafeVectorOverflowELm16ENS_10FastMallocEE14expandCapacityILNS_13FailureActionE0EEEPSE_mSK_
_ZN3WTF6VectorIN3JSC4Wasm13IPIntLocationELm0ENS_15CrashOnOverflowELm16ENS_10FastMallocEE14expandCapacityILNS_13FailureActionE0EEEPS3_mS9_
_ZN3WTF6VectorINS_3RefI7NapiEnvNS_12RawPtrTraitsIS2_EENS_21DefaultRefDerefTraitsIS2_EEEELm0ENS_15CrashOnOverflowELm16ENS_10FastMallocEE14expandCapacityILNS_13FailureActionE0EEEPS7_mSD_
_ZN3WTF6VectorINS_3RefIKN3JSC4Wasm3RTTENS_12RawPtrTraitsIS5_EENS_21DefaultRefDerefTraitsIS5_EEEELm0ENS_15CrashOnOverflowELm16ENS_10FastMallocEE14expandCapacityILNS_13FailureActionE0EEEPSA_mSG_
_ZN3WTF6VectorINS_3RefIN3JSC12ForInContextENS_12RawPtrTraitsIS3_EENS_21DefaultRefDerefTraitsIS3_EEEELm0ENS_15CrashOnOverflowELm16ENS_10FastMallocEE14expandCapacityILNS_13FailureActionE0EEEPS8_mSE_
_ZN3WTF6VectorINS_3RefIN3JSC12GenericLabelINS2_17JSGeneratorTraitsEEENS_12RawPtrTraitsIS5_EENS_21DefaultRefDerefTraitsIS5_EEEELm0ENS_15CrashOnOverflowELm16ENS_10FastMallocEE14expandCapacityILNS_13FailureActionE0EEEPSA_mSG_
_ZN3WTF6VectorINS_3RefIN3JSC14JSRunLoopTimerENS_12RawPtrTraitsIS3_EENS_21DefaultRefDerefTraitsIS3_EEEELm0ENS_15CrashOnOverflowELm16ENS_10FastMallocEE14expandCapacityILNS_13FailureActionE0EEEPS8_mSE_
_ZN3WTF6VectorINS_3RefIN3JSC14StructureShapeENS_12RawPtrTraitsIS3_EENS_21DefaultRefDerefTraitsIS3_EEEELm0ENS_15CrashOnOverflowELm16ENS_10FastMallocEE14expandCapacityILNS_13FailureActionE0EEEPS8_mSE_
_ZN3WTF6VectorINS_3RefIN3JSC17DeferredWorkTimer10TicketDataENS_12RawPtrTraitsIS4_EENS_21DefaultRefDerefTraitsIS4_EEEELm0ENS_15CrashOnOverflowELm16ENS_10FastMallocEE14expandCapacityILNS_13FailureActionE0EEEPS9_mSF_
_ZN3WTF6VectorINS_3RefIN3JSC17JITWorklistThreadENS_12RawPtrTraitsIS3_EENS_21DefaultRefDerefTraitsIS3_EEEELm0ENS_15CrashOnOverflowELm16ENS_10FastMallocEE14expandCapacityILNS_13FailureActionE0EEEPS8_mSE_
_ZN3WTF6VectorINS_3RefIN3JSC4Wasm14InstanceAnchorENS_12RawPtrTraitsIS4_EENS_21DefaultRefDerefTraitsIS4_EEEELm0ENS_15CrashOnOverflowELm16ENS_10FastMallocEE14expandCapacityILNS_13FailureActionE0EEEPS9_mSF_
_ZN3WTF6VectorINS_3RefIN3JSC8Profiler11CompilationENS_12RawPtrTraitsIS4_EENS_21DefaultRefDerefTraitsIS4_EEEELm0ENS_15CrashOnOverflowELm16ENS_10FastMallocEE14expandCapacityILNS_13FailureActionE0EEEPS9_mSF_
_ZN3WTF6VectorINS_3RefIN7WebCore11AbortSignalENS_12RawPtrTraitsIS3_EENS_21DefaultRefDerefTraitsIS3_EEEELm0ENS_15CrashOnOverflowELm16ENS_10FastMallocEE14expandCapacityILNS_13FailureActionE0EEEPS8_mSE_
_ZN3WTF6VectorINS_3RefIN7WebCore20JSVMClientDataClientENS_12RawPtrTraitsIS3_EENS_21DefaultRefDerefTraitsIS3_EEEELm0ENS_15CrashOnOverflowELm16ENS_10FastMallocEE14expandCapacityILNS_13FailureActionE0EEEPS8_mSE_
_ZN3WTF6VectorINS_3RefIN7WebCore6CookieENS_12RawPtrTraitsIS3_EENS_21DefaultRefDerefTraitsIS3_EEEELm0ENS_15CrashOnOverflowELm16ENS_10FastMallocEE14expandCapacityILNS_13FailureActionE0EEEPS8_mSE_
_ZN3WTF6VectorINS_3RefINS_10SharedTaskIFvRN3JSC10LinkBufferEEEENS_12RawPtrTraitsIS7_EENS_21DefaultRefDerefTraitsIS7_EEEELm0ENS_15CrashOnOverflowELm16ENS_10FastMallocEE14expandCapacityILNS_13FailureActionE0EEEPSC_mSI_
_ZN3WTF6VectorINS_3RefINS_10SharedTaskIFvvEEENS_12RawPtrTraitsIS4_EENS_21DefaultRefDerefTraitsIS4_EEEELm0ENS_15CrashOnOverflowELm16ENS_10FastMallocEE14expandCapacityILNS_13FailureActionE0EEEPS9_mSF_
_ZN3WTF6VectorINS_3RefINS_11ThreadGroupENS_12RawPtrTraitsIS2_EENS_21DefaultRefDerefTraitsIS2_EEEELm0ENS_15CrashOnOverflowELm16ENS_10FastMallocEE14expandCapacityILNS_13FailureActionE0EEEPS7_mSD_
_ZN3WTF6VectorINS_3RefINS_8JSONImpl5ValueENS_12RawPtrTraitsIS3_EENS_21DefaultRefDerefTraitsIS3_EEEELm0ENS_15CrashOnOverflowELm16ENS_10FastMallocEE14expandCapacityILNS_13FailureActionE0EEEPS8_mSE_
_ZN3WTF6VectorINS_6RefPtrIN7WebCore16PerformanceEntryENS_12RawPtrTraitsIS3_EENS_21DefaultRefDerefTraitsIS3_EEEELm0ENS_15CrashOnOverflowELm16ENS_10FastMallocEE14expandCapacityILNS_13FailureActionE0EEEPS8_mSE_
_ZN3WTF6VectorINS_6RefPtrINS_12_GLOBAL__N_110ThreadDataENS_12RawPtrTraitsIS3_EENS_21DefaultRefDerefTraitsIS3_EEEELm0ENS_15CrashOnOverflowELm16ENS_10FastMallocEE14expandCapacityILNS_13FailureActionE0EEEPS8_mSE_
_ZN3WTF6VectorINS_6StringELm0ENS_15CrashOnOverflowELm16ENS_10FastMallocEE14expandCapacityILNS_13FailureActionE0EEEPS1_mS7_
_ZN3WTF6VectorINS_9UniqueRefIN3JSC17ChainedWatchpointEEELm0ENS_15CrashOnOverflowELm16ENS_10FastMallocEE14expandCapacityILNS_13FailureActionE0EEEPS4_mSA_
_ZN3WTF6VectorINS_9UniqueRefIN3JSC33ObjectAdaptiveStructureWatchpointEEELm0ENS_15CrashOnOverflowELm16ENS_10FastMallocEE14expandCapacityILNS_13FailureActionE0EEEPS4_mSA_
_ZN3WTF6VectorINS_9UniqueRefIN3JSC38ObjectPropertyChangeAdaptiveWatchpointINS2_19InlineWatchpointSetEEEEELm0ENS_15CrashOnOverflowELm16ENS_10FastMallocEE14expandCapacityILNS_13FailureActionE0EEEPS6_mSC_
_ZN3WTF6VectorINS_9UniqueRefIN3JSC4Yarr14CharacterClass9ByteTableEEELm0ENS_15CrashOnOverflowELm16ENS_10FastMallocEE14expandCapacityILNS_13FailureActionE0EEEPS6_mSC_
_ZN3WTF6VectorINS_9UniqueRefIN9Inspector18InspectorAgentBaseEEELm0ENS_15CrashOnOverflowELm16ENS_10FastMallocEE14expandCapacityILNS_13FailureActionE0EEEPS4_mSA_
_ZN3WTF6VectorINS_9UniqueRefINS_19EmbeddedFixedVectorIN3JSC17CodeLocationLabelILNS_6PtrTagE40321EEENS_10FastMallocEEEEELm0ENS_15CrashOnOverflowELm16ES7_E14expandCapacityILNS_13FailureActionE0EEEPS9_mSE_
_ZN3WTF6VectorINS_9UniqueRefINS_6BitSetILm128EmEEEELm0ENS_15CrashOnOverflowELm16ENS_10FastMallocEE14expandCapacityILNS_13FailureActionE0EEEPS4_mSA_
_ZN3WTF6VectorIP14VersionSqlite3Lm0ENS_15CrashOnOverflowELm16ENS_10FastMallocEE14expandCapacityILNS_13FailureActionE0EEEPS2_mS8_
_ZN3WTF6VectorIPKN3JSC23UnlinkedSimpleJumpTableELm0ENS_15CrashOnOverflowELm16ENS_10FastMallocEE14expandCapacityILNS_13FailureActionE0EEEPS4_mSA_
_ZN3WTF6VectorIPKN3JSC23UnlinkedStringJumpTableELm0ENS_15CrashOnOverflowELm16ENS_10FastMallocEE14expandCapacityILNS_13FailureActionE0EEEPS4_mSA_
_ZN3WTF6VectorIPKN3JSC4Wasm10ProjectionELm0ENS_15CrashOnOverflowELm16ENS_10FastMallocEE14expandCapacityILNS_13FailureActionE0EEEPS5_mSB_
_ZN3WTF6VectorIPKNS_11NaturalLoopIN3JSC2B33Air3CFGEEELm0ENS_15CrashOnOverflowELm16ENS_10FastMallocEE14expandCapacityILNS_13FailureActionE0EEEPS8_mSE_
_ZN3WTF6VectorIPKNS_11NaturalLoopIN3JSC2B33CFGEEELm0ENS_15CrashOnOverflowELm16ENS_10FastMallocEE14expandCapacityILNS_13FailureActionE0EEEPS7_mSD_
_ZN3WTF6VectorIPKNS_11NaturalLoopIN3JSC3DFG3CFGEEELm0ENS_15CrashOnOverflowELm16ENS_10FastMallocEE14expandCapacityILNS_13FailureActionE0EEEPS7_mSD_
_ZN3WTF6VectorIPKNS_11NaturalLoopIN3JSC3DFG6CPSCFGEEELm0ENS_15CrashOnOverflowELm16ENS_10FastMallocEE14expandCapacityILNS_13FailureActionE0EEEPS7_mSD_
_ZN3WTF6VectorIPKcLm0ENS_15CrashOnOverflowELm16ENS_10FastMallocEE14expandCapacityILNS_13FailureActionE0EEEPS2_mS8_
_ZN3WTF6VectorIPN3Bun14SigintReceiverELm0ENS_15CrashOnOverflowELm16ENS_10FastMallocEE14expandCapacityILNS_13FailureActionE0EEEPS3_mS9_
_ZN3WTF6VectorIPN3JSC11ArrayBufferELm0ENS_15CrashOnOverflowELm16ENS_10FastMallocEE14expandCapacityILNS_13FailureActionE0EEEPS3_mS9_
_ZN3WTF6VectorIPN3JSC11IsoSubspaceELm0ENS_15CrashOnOverflowELm16ENS_10FastMallocEE14expandCapacityILNS_13FailureActionE0EEEPS3_mS9_
_ZN3WTF6VectorIPN3JSC11MarkedBlock6HandleELm0ENS_15CrashOnOverflowELm16ENS_10FastMallocEE14expandCapacityILNS_13FailureActionE0EEEPS4_mSA_
_ZN3WTF6VectorIPN3JSC11SlotVisitorELm0ENS_15CrashOnOverflowELm16ENS_10FastMallocEE14expandCapacityILNS_13FailureActionE0EEEPS3_mS9_
_ZN3WTF6VectorIPN3JSC12HeapObserverELm0ENS_15CrashOnOverflowELm16ENS_10FastMallocEE14expandCapacityILNS_13FailureActionE0EEEPS3_mS9_
_ZN3WTF6VectorIPN3JSC12TypeLocationELm0ENS_15CrashOnOverflowELm16ENS_10FastMallocEE14expandCapacityILNS_13FailureActionE0EEEPS3_mS9_
_ZN3WTF6VectorIPN3JSC13ScratchBufferELm0ENS_15CrashOnOverflowELm16ENS_10FastMallocEE14expandCapacityILNS_13FailureActionE0EEEPS3_mS9_
_ZN3WTF6VectorIPN3JSC14JSGlobalObjectELm0ENS_15CrashOnOverflowELm16ENS_10FastMallocEE14expandCapacityILNS_13FailureActionE0EEEPS3_mS9_
_ZN3WTF6VectorIPN3JSC16NativeExecutableELm0ENS_15CrashOnOverflowELm16ENS_10FastMallocEE14expandCapacityILNS_13FailureActionE0EEEPS3_mS9_
_ZN3WTF6VectorIPN3JSC17MarkingConstraintELm0ENS_15CrashOnOverflowELm16ENS_10FastMallocEE14expandCapacityILNS_13FailureActionE0EEEPS3_mS9_
_ZN3WTF6VectorIPN3JSC17PreciseAllocationELm0ENS_15CrashOnOverflowELm16ENS_10FastMallocEE14expandCapacityILNS_13FailureActionE0EEEPS3_mS9_
_ZN3WTF6VectorIPN3JSC20FunctionMetadataNodeELm0ENS_15CrashOnOverflowELm16ENS_10FastMallocEE14expandCapacityILNS_13FailureActionE0EEEPS3_mS9_
_ZN3WTF6VectorIPN3JSC20ParserArenaDeletableELm0ENS_15CrashOnOverflowELm16ENS_10FastMallocEE14expandCapacityILNS_13FailureActionE0EEEPS3_mS9_
_ZN3WTF6VectorIPN3JSC21GCAwareJITStubRoutineELm0ENS_15CrashOnOverflowELm16ENS_10FastMallocEE14expandCapacityILNS_13FailureActionE0EEEPS3_mS9_
_ZN3WTF6VectorIPN3JSC2B310BasicBlockELm0ENS_15CrashOnOverflowELm16ENS_10FastMallocEE14expandCapacityILNS_13FailureActionE0EEEPS4_mSA_
_ZN3WTF6VectorIPN3JSC2B312AbstractHeapELm0ENS_15CrashOnOverflowELm16ENS_10FastMallocEE14expandCapacityILNS_13FailureActionE0EEEPS4_mSA_
_ZN3WTF6VectorIPN3JSC2B312UpsilonValueELm0ENS_15CrashOnOverflowELm16ENS_10FastMallocEE14expandCapacityILNS_13FailureActionE0EEEPS4_mSA_
_ZN3WTF6VectorIPN3JSC2B33Air10BasicBlockELm0ENS_15CrashOnOverflowELm16ENS_10FastMallocEE14expandCapacityILNS_13FailureActionE0EEEPS5_mSB_
_ZN3WTF6VectorIPN3JSC2B33Air4InstELm0ENS_15CrashOnOverflowELm16ENS_10FastMallocEE14expandCapacityILNS_13FailureActionE0EEEPS5_mSB_
_ZN3WTF6VectorIPN3JSC2B33Air9StackSlotELm0ENS_15CrashOnOverflowELm16ENS_10FastMallocEE14expandCapacityILNS_13FailureActionE0EEEPS5_mSB_
_ZN3WTF6VectorIPN3JSC2B35ValueELm0ENS_15CrashOnOverflowELm16ENS_10FastMallocEE14expandCapacityILNS_13FailureActionE0EEEPS4_mSA_
_ZN3WTF6VectorIPN3JSC2B38VariableELm0ENS_15CrashOnOverflowELm16ENS_10FastMallocEE14expandCapacityILNS_13FailureActionE0EEEPS4_mSA_
_ZN3WTF6VectorIPN3JSC3DFG10BasicBlockELm0ENS_15CrashOnOverflowELm16ENS_10FastMallocEE14expandCapacityILNS_13FailureActionE0EEEPS4_mSA_
_ZN3WTF6VectorIPN3JSC3DFG18VariableAccessDataELm0ENS_15CrashOnOverflowELm16ENS_10FastMallocEE14expandCapacityILNS_13FailureActionE0EEEPS4_mSA_
_ZN3WTF6VectorIPN3JSC3DFG4NodeELm0ENS_15CrashOnOverflowELm16ENS_10FastMallocEE14expandCapacityILNS_13FailureActionE0EEEPS4_mSA_
_ZN3WTF6VectorIPN3JSC3FTL29ExitTimeObjectMaterializationELm0ENS_15CrashOnOverflowELm16ENS_10FastMallocEE14expandCapacityILNS_13FailureActionE0EEEPS4_mSA_
_ZN3WTF6VectorIPN3JSC4Wasm12InliningNodeELm0ENS_15CrashOnOverflowELm16ENS_10FastMallocEE14expandCapacityILNS_13FailureActionE0EEEPS4_mSA_
_ZN3WTF6VectorIPN3JSC4Wasm14OMGIRGeneratorELm0ENS_15CrashOnOverflowELm16ENS_10FastMallocEE14expandCapacityILNS_13FailureActionE0EEEPS4_mSA_
_ZN3WTF6VectorIPN3JSC6JSCellELm0ENS_15CrashOnOverflowELm16ENS_10FastMallocEE14expandCapacityILNS_13FailureActionE0EEEPS3_mS9_
_ZN3WTF6VectorIPN3JSC8JSObjectELm0ENS_15CrashOnOverflowELm16ENS_10FastMallocEE14expandCapacityILNS_13FailureActionE0EEEPS3_mS9_
_ZN3WTF6VectorIPN3JSC8SubspaceELm0ENS_15CrashOnOverflowELm16ENS_10FastMallocEE14expandCapacityILNS_13FailureActionE0EEEPS3_mS9_
_ZN3WTF6VectorIPN3JSC9CallFrameELm0ENS_15CrashOnOverflowELm16ENS_10FastMallocEE14expandCapacityILNS_13FailureActionE0EEEPS3_mS9_
_ZN3WTF6VectorIPN3JSC9WeakBlockELm0ENS_15CrashOnOverflowELm16ENS_10FastMallocEE14expandCapacityILNS_13FailureActionE0EEEPS3_mS9_
_ZN3WTF6VectorIPN4node11node_moduleELm0ENS_15CrashOnOverflowELm16ENS_10FastMallocEE14expandCapacityILNS_13FailureActionE0EEEPS3_mS9_
_ZN3WTF6VectorIPNS_12_GLOBAL__N_16BucketELm0ENS_15CrashOnOverflowELm16ENS_10FastMallocEE14expandCapacityILNS_13FailureActionE0EEEPS3_mS9_
_ZN3WTF6VectorIPNS_12_GLOBAL__N_19HashtableELm0ENS_15CrashOnOverflowELm16ENS_10FastMallocEE14expandCapacityILNS_13FailureActionE0EEEPS3_mS9_
_ZN3WTF6VectorIPNS_13SSACalculatorIN3JSC2B320SSACalculatorAdapterEE3DefELm0ENS_15CrashOnOverflowELm16ENS_10FastMallocEE14expandCapacityILNS_13FailureActionE0EEEPS7_mSD_
_ZN3WTF6VectorIPNS_13SSACalculatorIN3JSC3DFG20SSACalculatorAdapterEE3DefELm0ENS_15CrashOnOverflowELm16ENS_10FastMallocEE14expandCapacityILNS_13FailureActionE0EEEPS7_mSD_
_ZN3WTF6VectorIPNS_17UniquedStringImplELm0ENS_15CrashOnOverflowELm16ENS_10FastMallocEE14expandCapacityILNS_13FailureActionE0EEEPS2_mS8_
_ZN3WTF6VectorIPNS_20ParallelHelperClientELm0ENS_15CrashOnOverflowELm16ENS_10FastMallocEE14expandCapacityILNS_13FailureActionE0EEEPS2_mS8_
_ZN3WTF6VectorIPNS_7RunLoop19RunLoopGenericState6StatusELm0ENS_15CrashOnOverflowELm16ENS_10FastMallocEE14expandCapacityILNS_13FailureActionE0EEEPS4_mSA_
_ZN3WTF6VectorIPcLm0ENS_15CrashOnOverflowELm16ENS_10FastMallocEE14expandCapacityILNS_13FailureActionE0EEEPS1_mS7_
_ZN3WTF6VectorIPvLm0ENS_15CrashOnOverflowELm16ENS_10FastMallocEE14expandCapacityILNS_13FailureActionE0EEEPS1_mS7_
_ZN3WTF6VectorISt10unique_ptrIN3JSC10ELFSectionESt14default_deleteIS3_EELm0ENS_15CrashOnOverflowELm16ENS_10FastMallocEE14expandCapacityILNS_13FailureActionE0EEEPS6_mSC_
_ZN3WTF6VectorISt10unique_ptrIN3JSC11SlotVisitorESt14default_deleteIS3_EELm0ENS_15CrashOnOverflowELm16ENS_10FastMallocEE14expandCapacityILNS_13FailureActionE0EEEPS6_mSC_
_ZN3WTF6VectorISt10unique_ptrIN3JSC12HeapSnapshotESt14default_deleteIS3_EELm0ENS_15CrashOnOverflowELm16ENS_10FastMallocEE14expandCapacityILNS_13FailureActionE0EEEPS6_mSC_
_ZN3WTF6VectorISt10unique_ptrIN3JSC14BlockDirectoryESt14default_deleteIS3_EELm0ENS_15CrashOnOverflowELm16ENS_10FastMallocEE14expandCapacityILNS_13FailureActionE0EEEPS6_mSC_
_ZN3WTF6VectorISt10unique_ptrIN3JSC14LocalAllocatorESt14default_deleteIS3_EELm0ENS_15CrashOnOverflowELm16ENS_10FastMallocEE14expandCapacityILNS_13FailureActionE0EEEPS6_mSC_
_ZN3WTF6VectorISt10unique_ptrIN3JSC15OpaqueByproductESt14default_deleteIS3_EELm0ENS_15CrashOnOverflowELm16ENS_10FastMallocEE14expandCapacityILNS_13FailureActionE0EEEPS6_mSC_
_ZN3WTF6VectorISt10unique_ptrIN3JSC17MarkingConstraintESt14default_deleteIS3_EELm0ENS_15CrashOnOverflowELm16ENS_10FastMallocEE14expandCapacityILNS_13FailureActionE0EEEPS6_mSC_
_ZN3WTF6VectorISt10unique_ptrIN3JSC19EvacuatedStackSliceESt14default_deleteIS3_EELm0ENS_15CrashOnOverflowELm16ENS_10FastMallocEE14expandCapacityILNS_13FailureActionE0EEEPS6_mSC_
_ZN3WTF6VectorISt10unique_ptrIN3JSC24ConcatKeyAtomStringCacheESt14default_deleteIS3_EELm0ENS_15CrashOnOverflowELm16ENS_10FastMallocEE14expandCapacityILNS_13FailureActionE0EEEPS6_mSC_
_ZN3WTF6VectorISt10unique_ptrIN3JSC2B310BasicBlockESt14default_deleteIS4_EELm0ENS_15CrashOnOverflowELm16ENS_10FastMallocEE14expandCapacityILNS_13FailureActionE0EEEPS7_mSD_
_ZN3WTF6VectorISt10unique_ptrIN3JSC2B33Air10BasicBlockESt14default_deleteIS5_EELm0ENS_15CrashOnOverflowELm16ENS_10FastMallocEE14expandCapacityILNS_13FailureActionE0EEEPS8_mSE_
_ZN3WTF6VectorISt10unique_ptrIN3JSC4Wasm12OSREntryDataESt14default_deleteIS4_EELm0ENS_15CrashOnOverflowELm16ENS_10FastMallocEE14expandCapacityILNS_13FailureActionE0EEEPS7_mSD_
_ZN3WTF6VectorISt10unique_ptrIN3JSC4Wasm14FunctionParserINS3_14OMGIRGeneratorEEESt14default_deleteIS6_EELm0ENS_15CrashOnOverflowELm16ENS_10FastMallocEE14expandCapacityILNS_13FailureActionE0EEEPS9_mSF_
_ZN3WTF6VectorISt10unique_ptrIN3JSC4Wasm14OMGIRGeneratorESt14default_deleteIS4_EELm0ENS_15CrashOnOverflowELm16ENS_10FastMallocEE14expandCapacityILNS_13FailureActionE0EEEPS7_mSD_
_ZN3WTF6VectorISt10unique_ptrIN3JSC4Wasm7SegmentESt14default_deleteIS4_EELm0ENS_15CrashOnOverflowELm16ENS_10FastMallocEE14expandCapacityILNS_13FailureActionE0EEEPS7_mSD_
_ZN3WTF6VectorISt10unique_ptrIN3JSC4Yarr14CharacterClassESt14default_deleteIS4_EELm0ENS_15CrashOnOverflowELm16ENS_10FastMallocEE14expandCapacityILNS_13FailureActionE0EEEPS7_mSD_
_ZN3WTF6VectorISt10unique_ptrIN3JSC4Yarr15ByteDisjunctionESt14default_deleteIS4_EELm0ENS_15CrashOnOverflowELm16ENS_10FastMallocEE14expandCapacityILNS_13FailureActionE0EEEPS7_mSD_
_ZN3WTF6VectorISt10unique_ptrIN3JSC4Yarr18PatternAlternativeESt14default_deleteIS4_EELm0ENS_15CrashOnOverflowELm16ENS_10FastMallocEE14expandCapacityILNS_13FailureActionE0EEEPS7_mSD_
_ZN3WTF6VectorISt10unique_ptrIN9Inspector14ConsoleMessageESt14default_deleteIS3_EELm0ENS_15CrashOnOverflowELm16ENS_10FastMallocEE14expandCapacityILNS_13FailureActionE0EEEPS6_mSC_
_ZN3WTF6VectorISt4pairIiiELm0ENS_15CrashOnOverflowELm16ENS_10FastMallocEE14expandCapacityILNS_13FailureActionE0EEEPS2_mS8_
_ZN3WTF6VectorISt4pairIjjELm0ENS_15CrashOnOverflowELm16ENS_10FastMallocEE14expandCapacityILNS_13FailureActionE0EEEPS2_mS8_
_ZN3WTF6VectorIlLm0ENS_15CrashOnOverflowELm16ENS_10FastMallocEE14expandCapacityILNS_13FailureActionE0EEEPlmS6_
_ZN3WTF6VectorImLm0ENS_15CrashOnOverflowELm16ENS_10FastMallocEE14expandCapacityILNS_13FailureActionE0EEEPmmS6_
_ZN3WTF6VectorIxLm0ENS_15CrashOnOverflowELm16ENS_10FastMallocEE14expandCapacityILNS_13FailureActionE0EEEPxmS6_
_ZSt16__introsort_loopIPSt4pairIiiElN9__gnu_cxx5__ops15_Iter_comp_iterIZN3Bun15stopCPUProfilerERN3JSC2VMEPN3WTF6StringESC_E3$_1EEEvT_SF_T0_T1_
_ZN3WTF12NaturalLoopsIN3JSC3DFG6CPSCFGEEC2ERS3_RNS_10DominatorsIS3_EEb
_ZSt13__adjust_heapIPmlmN9__gnu_cxx5__ops15_Iter_comp_iterIZN3Bun15stopCPUProfilerERN3JSC2VMEPN3WTF6StringESA_E3$_0EEEvT_T0_SE_T1_T2_
_ZN3WTF6VectorIDiLm0ENS_15CrashOnOverflowELm16ENS_10FastMallocEE14expandCapacityILNS_13FailureActionE0EEEPDimS6_
_ZN3WTF6VectorIN3JSC14ExpressionInfo11EncodedInfoELm0ENS_15CrashOnOverflowELm16ENS_10FastMallocEE14expandCapacityILNS_13FailureActionE0EEEPS3_mS9_
_ZN3WTF6VectorIN3JSC2B33Air12_GLOBAL__N_125AbstractColoringAllocatorItNS_27UndirectedEdgesDedupAdapterINS_18InterferenceVectorINS_29LikelyDenseUnsignedIntegerSetItEEtEEEELNS2_4BankE0EE12MoveOperandsELm0ENS_20UnsafeVectorOverflowELm16ENS_10FastMallocEE14expandCapacityILNS_13FailureActionE0EEEPSE_mSK_
_ZN3WTF6VectorIN3JSC2B33Air12_GLOBAL__N_125AbstractColoringAllocatorItNS_27UndirectedEdgesDedupAdapterINS_18InterferenceVectorINS_29LikelyDenseUnsignedIntegerSetItEEtEEEELNS2_4BankE1EE12MoveOperandsELm0ENS_20UnsafeVectorOverflowELm16ENS_10FastMallocEE14expandCapacityILNS_13FailureActionE0EEEPSE_mSK_
_ZN3WTF6VectorIN3JSC2B33Air12_GLOBAL__N_125AbstractColoringAllocatorItNS_33UndirectedEdgesDuplicatingAdapterINS_21InterferenceBitVectorItEEEELNS2_4BankE0EE12MoveOperandsELm0ENS_20UnsafeVectorOverflowELm16ENS_10FastMallocEE14expandCapacityILNS_13FailureActionE0EEEPSC_mSI_
_ZN3WTF6VectorIN3JSC2B33Air12_GLOBAL__N_125AbstractColoringAllocatorItNS_33UndirectedEdgesDuplicatingAdapterINS_21InterferenceBitVectorItEEEELNS2_4BankE1EE12MoveOperandsELm0ENS_20UnsafeVectorOverflowELm16ENS_10FastMallocEE14expandCapacityILNS_13FailureActionE0EEEPSC_mSI_
_ZN3WTF6VectorIN7WebCore14CryptoKeyUsageELm0ENS_15CrashOnOverflowELm16ENS_10FastMallocEE14expandCapacityILNS_13FailureActionE0EEEPS2_mS8_
_ZN3WTF6VectorIiLm0ENS_15CrashOnOverflowELm16ENS_10FastMallocEE14expandCapacityILNS_13FailureActionE0EEEPimS6_
_ZN3WTF6VectorIjLm0ENS_15CrashOnOverflowELm16ENS_10FastMallocEE14expandCapacityILNS_13FailureActionE0EEEPjmS6_
_ZN3WTF6VectorIjLm0ENS_20UnsafeVectorOverflowELm16ENS_10FastMallocEE14expandCapacityILNS_13FailureActionE0EEEPjmS6_
_ZN3WTF6VectorINS_11NaturalLoopIN3JSC3DFG6CPSCFGEEELm4ENS_15CrashOnOverflowELm16ENS_10FastMallocEE14expandCapacityILNS_13FailureActionE0EEEPS5_mSB_
_ZN3WTF6VectorINS_11NaturalLoopIN3JSC3DFG6CPSCFGEEELm4ENS_15CrashOnOverflowELm16ENS_10FastMallocEE15reserveCapacityILNS_13FailureActionE0EEEbm
_ZSt16__introsort_loopIPPKN3WTF11NaturalLoopIN3JSC2B33Air3CFGEEElN9__gnu_cxx5__ops15_Iter_comp_iterIZNSt6ranges8__detail16__make_comp_projINSD_4lessESt8identityEEDaRT_RT0_EUlOSI_OSK_E_EEEvSI_SI_SK_T1_
_ZSt16__introsort_loopIPPKN3WTF11NaturalLoopIN3JSC2B33CFGEEElN9__gnu_cxx5__ops15_Iter_comp_iterIZNSt6ranges8__detail16__make_comp_projINSC_4lessESt8identityEEDaRT_RT0_EUlOSH_OSJ_E_EEEvSH_SH_SJ_T1_
_ZSt16__introsort_loopIPPKN3WTF11NaturalLoopIN3JSC3DFG3CFGEEElN9__gnu_cxx5__ops15_Iter_comp_iterIZNSt6ranges8__detail16__make_comp_projINSC_4lessESt8identityEEDaRT_RT0_EUlOSH_OSJ_E_EEEvSH_SH_SJ_T1_
_ZSt16__introsort_loopIPPKN3WTF11NaturalLoopIN3JSC3DFG6CPSCFGEEElN9__gnu_cxx5__ops15_Iter_comp_iterIZNSt6ranges8__detail16__make_comp_projINSC_4lessESt8identityEEDaRT_RT0_EUlOSH_OSJ_E_EEEvSH_SH_SJ_T1_
_ZSt16__introsort_loopIPPN3JSC2B35ValueElN9__gnu_cxx5__ops15_Iter_comp_iterIZNSt6ranges8__detail16__make_comp_projINS8_4lessESt8identityEEDaRT_RT0_EUlOSD_OSF_E_EEEvSD_SD_SF_T1_
_ZSt16__introsort_loopIPPN3JSC6JSCellElN9__gnu_cxx5__ops15_Iter_comp_iterIZNSt6ranges8__detail16__make_comp_projINS7_4lessESt8identityEEDaRT_RT0_EUlOSC_OSE_E_EEEvSC_SC_SE_T1_
_ZSt16__introsort_loopIPmlN9__gnu_cxx5__ops15_Iter_comp_iterIZNSt6ranges8__detail16__make_comp_projINS4_4lessESt8identityEEDaRT_RT0_EUlOS9_OSB_E_EEEvS9_S9_SB_T1_
_ZN3WTF12NaturalLoopsIN3JSC3DFG3CFGEEC2ERS3_RNS_10DominatorsIS3_EEb
_ZN3JSC14LocalAllocatorC1EPNS_14BlockDirectoryE
_ZN3JSC14LocalAllocatorC2EPNS_14BlockDirectoryE
_ZN3JSC14LocalAllocatorD1Ev
_ZN3JSC14LocalAllocatorD2Ev
_ZN3JSC14LocalAllocator14stopAllocatingEv
_ZN3JSC14LocalAllocator16resumeAllocatingEv
_ZN3JSC14LocalAllocator20prepareForAllocationEv
_ZN3JSC14LocalAllocator21stopAllocatingForGoodEv
_ZN3JSC14LocalAllocator16allocateSlowCaseERNS_4HeapEmPNS_17GCDeferralContextENS_21AllocationFailureModeE
_ZN3JSC14LocalAllocator8allocateERNS_4HeapEmPNS_17GCDeferralContextENS_21AllocationFailureModeE
_ZN3JSC14LocalAllocator28tryAllocateWithoutCollectingEm
_ZN3JSC14LocalAllocator10allocateInEPNS_11MarkedBlock6HandleEm
_ZN3JSC14LocalAllocator13tryAllocateInEPNS_11MarkedBlock6HandleEm
_ZN3JSC14MachineThreadsC1Ev
_ZN3JSC14MachineThreadsC2Ev
_ZN3WTF10fromBase64ENS_10StringViewESt4spanIhLm18446744073709551615EENS_8AlphabetENS_17LastChunkHandlingE
_ZN3WTF19maxLengthFromBase64ENS_10StringViewE
_ZN3JSC14MachineThreads23tryCopyOtherThreadStackERKN3WTF19ThreadSuspendLockerERNS1_6ThreadEPvmPm
_ZN3WTF13printInternalERNS_11PrintStreamEN3JSC14RootMarkReasonE
_ZN3JSC23SimpleMarkingConstraintC1EN3WTF7CStringES2_ONS_29MarkingConstraintExecutorPairENS_20ConstraintVolatilityENS_21ConstraintConcurrencyENS_21ConstraintParallelismE
_ZN3JSC23SimpleMarkingConstraintC2EN3WTF7CStringES2_ONS_29MarkingConstraintExecutorPairENS_20ConstraintVolatilityENS_21ConstraintConcurrencyENS_21ConstraintParallelismE
_ZN3JSC23SimpleMarkingConstraintD1Ev
_ZN3JSC23SimpleMarkingConstraintD2Ev
_ZN3JSC23SimpleMarkingConstraintD0Ev
_ZN3JSC23SimpleMarkingConstraint11executeImplERNS_19AbstractSlotVisitorE
_ZN3JSC23SimpleMarkingConstraint11executeImplERNS_11SlotVisitorE
_ZN3JSC11SlotVisitorC1ERNS_4HeapEN3WTF7CStringE
_ZN3JSC11SlotVisitorC2ERNS_4HeapEN3WTF7CStringE
_ZN3JSC11SlotVisitorD1Ev
_ZN3JSC11SlotVisitorD2Ev
_ZN3JSC11SlotVisitor15clearMarkStacksEv
_ZN3JSC11MarkedBlock6Handle16specializedSweepILb1ELNS1_9EmptyModeE1ELNS1_9SweepModeE1ELNS1_20SweepDestructionModeE1ELNS1_12ScribbleModeE0ELNS1_18NewlyAllocatedModeE1ELNS1_9MarksModeE1ENS_15IsoHeapCellTypeEEEvPNS_8FreeListES3_S4_S5_S6_S7_S8_RKT6_
_ZZN3JSC11MarkedBlock6Handle16specializedSweepILb0ELNS1_9EmptyModeE0ELNS1_9SweepModeE0ELNS1_20SweepDestructionModeE0ELNS1_12ScribbleModeE0ELNS1_18NewlyAllocatedModeE0ELNS1_9MarksModeE0ENS_15IsoHeapCellTypeEEEvPNS_8FreeListES3_S4_S5_S6_S7_S8_RKT6_ENKUlTnbvE_clILb1EEEDav
_ZZN3JSC11MarkedBlock6Handle16specializedSweepILb1ELNS1_9EmptyModeE1ELNS1_9SweepModeE0ELNS1_20SweepDestructionModeE1ELNS1_12ScribbleModeE0ELNS1_18NewlyAllocatedModeE1ELNS1_9MarksModeE1ENS_15IsoHeapCellTypeEEEvPNS_8FreeListES3_S4_S5_S6_S7_S8_RKT6_ENKUlTnbvE_clILb1EEEDav
_ZZN3JSC11MarkedBlock6Handle16specializedSweepILb1ELNS1_9EmptyModeE1ELNS1_9SweepModeE1ELNS1_20SweepDestructionModeE1ELNS1_12ScribbleModeE0ELNS1_18NewlyAllocatedModeE1ELNS1_9MarksModeE1ENS_15IsoHeapCellTypeEEEvPNS_8FreeListES3_S4_S5_S6_S7_S8_RKT6_ENKUlTnbvE_clILb1EEEDav
_ZN3WTF13forEachSetBitImLm16EZZN3JSC11MarkedBlock6Handle16specializedSweepILb0ELNS3_9EmptyModeE0ELNS3_9SweepModeE0ELNS3_20SweepDestructionModeE0ELNS3_12ScribbleModeE0ELNS3_18NewlyAllocatedModeE0ELNS3_9MarksModeE0ENS1_15IsoHeapCellTypeEEEvPNS1_8FreeListES5_S6_S7_S8_S9_SA_RKT6_ENKUlTnbvE_clILb1EEEDavEUljE0_EEvSt4spanIKT_XT0_EERKT1_
_ZN3WTF13forEachSetBitImLm16EZZN3JSC11MarkedBlock6Handle16specializedSweepILb1ELNS3_9EmptyModeE1ELNS3_9SweepModeE0ELNS3_20SweepDestructionModeE1ELNS3_12ScribbleModeE0ELNS3_18NewlyAllocatedModeE1ELNS3_9MarksModeE1ENS1_15IsoHeapCellTypeEEEvPNS1_8FreeListES5_S6_S7_S8_S9_SA_RKT6_ENKUlTnbvE_clILb1EEEDavEUljE0_EEvSt4spanIKT_XT0_EERKT1_
_ZN3WTF13forEachSetBitImLm16EZZN3JSC11MarkedBlock6Handle16specializedSweepILb1ELNS3_9EmptyModeE1ELNS3_9SweepModeE1ELNS3_20SweepDestructionModeE1ELNS3_12ScribbleModeE0ELNS3_18NewlyAllocatedModeE1ELNS3_9MarksModeE1ENS1_15IsoHeapCellTypeEEEvPNS1_8FreeListES5_S6_S7_S8_S9_SA_RKT6_ENKUlTnbvE_clILb1EEEDavEUljE0_EEvSt4spanIKT_XT0_EERKT1_
_ZZN3JSC14LocalAllocator13tryAllocateInEPNS_11MarkedBlock6HandleEmENK3$_0clEv
_ZN3JSC14MarkStackArrayC1Ev
_ZN3JSC14MarkStackArrayC2Ev
_ZN3JSC14MarkStackArray10transferToERS0_
_ZN3JSC14MarkStackArray10transferToERS0_m
_ZN3JSC14MarkStackArray17donateSomeCellsToERS0_
_ZN3JSC14MarkStackArray18stealSomeCellsFromERS0_m
_ZN3JSC11MarkedSpace15snapshotUnsweptEv
_ZN3JSC11MarkedSpace17addBlockDirectoryERKN3WTF14AbstractLockerEPNS_14BlockDirectoryE
_ZN3JSC20MarkingConstraintSetC1ERNS_4HeapE
_ZN3JSC20MarkingConstraintSetC2ERNS_4HeapE
_ZN3JSC20MarkingConstraintSetD1Ev
_ZN3JSC20MarkingConstraintSetD2Ev
_ZN3JSC23MarkingConstraintSolver7executeENS0_19SchedulerPreferenceEN3WTF12ScopedLambdaIFSt8optionalIjEvEEE
_ZNK3JSC13CellContainer16isNewlyAllocatedEPNS_8HeapCellE
_ZN3JSC12CodeBlockSetC1Ev
_ZN3JSC12CodeBlockSetC2Ev
_ZN3JSC12CodeBlockSetD1Ev
_ZN3JSC12CodeBlockSetD2Ev
_ZN3JSC12CodeBlockSet8containsERKN3WTF14AbstractLockerEPv
_ZN3JSC12CodeBlockSet46clearCurrentlyExecutingAndRemoveDeadCodeBlocksERNS_2VME
_ZN3JSC12CodeBlockSet3addEPNS_9CodeBlockE
BrotliPopulationCostDistance
BrotliInitBlockSplit
CBB_zero
_ZN3JSC17JITStubRoutineSetC1Ev
_ZN3JSC17JITStubRoutineSetC2Ev
BrotliDestroyBlockSplit
_ZN3JSC14JSRunLoopTimer7Manager11cancelTimerERS0_
_ZN3JSC14JSRunLoopTimer7Manager13timeUntilFireERS0_
_ZN3JSC14JSRunLoopTimerC2ERNS_2VME
_ZN3JSC14JSRunLoopTimerD1Ev
_ZN3JSC14JSRunLoopTimerD2Ev
_ZN3JSC14JSRunLoopTimer13timeUntilFireEv
_ZN3JSC7JSScope15abstractResolveEPNS_14JSGlobalObjectEmPS0_RKNS_10IdentifierENS_8GetOrPutENS_11ResolveTypeENS_18InitializationModeE
_ZN7WebCore48H2FrameParserPrototype__setStreamContextCallbackEPN3JSC14JSGlobalObjectEPNS0_9CallFrameE
_ZN7WebCore49H2FrameParserPrototype__setStreamPriorityCallbackEPN3JSC14JSGlobalObjectEPNS0_9CallFrameE
_ZN7WebCore40H2FrameParserPrototype__settingsCallbackEPN3JSC14JSGlobalObjectEPNS0_9CallFrameE
_ZN7WebCore43H2FrameParserPrototype__writeStreamCallbackEPN3JSC14JSGlobalObjectEPNS0_9CallFrameE
H2FrameParserPrototype__onStreamErrorSetCachedValue
MySQLQueryPrototype__bindingSetCachedValue
NativeBrotliPrototype__pendingInputSetCachedValue
NativeZlibPrototype__pendingInputSetCachedValue
NativeZstdPrototype__pendingInputSetCachedValue
PostgresSQLConnectionPrototype__queriesSetCachedValue
PostgresSQLQueryPrototype__bindingSetCachedValue
RedisClientPrototype__helloSetCachedValue
SubprocessPrototype__terminalSetCachedValue
TimeoutPrototype__repeatSetCachedValue
H2FrameParserPrototype__onStreamHeadersSetCachedValue
NativeBrotliPrototype__writeResultSetCachedValue
NativeZlibPrototype__writeResultSetCachedValue
NativeZstdPrototype__writeResultSetCachedValue
SubprocessPrototype__onExitCallbackSetCachedValue
UDPSocketPrototype__on_dataSetCachedValue
H2FrameParserPrototype__onStreamHeadersGetCachedValue
NativeBrotliPrototype__writeResultGetCachedValue
NativeZlibPrototype__writeResultGetCachedValue
NativeZstdPrototype__writeResultGetCachedValue
SubprocessPrototype__onExitCallbackGetCachedValue
UDPSocketPrototype__on_dataGetCachedValue
_RNvYNCNvMsn_NtCs4cBhYOTeZUw_13bun_js_parser6parserNtBa_4Jest6FIELDSs7_0INtNtNtCshzHRevywlmE_4core3ops8function6FnOnceTRBM_EE9call_onceBc_
_ZNK6icu_758numparse4impl13SymbolMatcher6getSetEv
_ZThn24_NK9Inspector33JSGlobalObjectInspectorController14frontendRouterEv
archive_entry_birthtime
H2FrameParserPrototype__onStreamDataSetCachedValue
SubprocessPrototype__ipcCallbackSetCachedValue
UDPSocketPrototype__on_errorSetCachedValue
H2FrameParserPrototype__onStreamDataGetCachedValue
SubprocessPrototype__ipcCallbackGetCachedValue
UDPSocketPrototype__on_errorGetCachedValue
_RNvYNCNvMsn_NtCs4cBhYOTeZUw_13bun_js_parser6parserNtBa_4Jest6FIELDSs9_0INtNtNtCshzHRevywlmE_4core3ops8function6FnOnceTRBM_EE9call_onceBc_
_ZN3JSC2VM7apiLockEv
archive_entry_gid
us_listen_socket_next
H2FrameParserPrototype__onRemoteSettingsSetCachedValue
_ZN7WebCore15JSH2FrameParser11analyzeHeapEPN3JSC6JSCellERNS1_12HeapAnalyzerE
_ZN3JSC16CompleteSubspace37reallocatePreciseAllocationNonVirtualERNS_2VMEPNS_8HeapCellEmPNS_17GCDeferralContextENS_21AllocationFailureModeE
_ZN3JSC16CompleteSubspace20prepareAllAllocatorsEv
_ZN3JSC17ConservativeRootsC1ERNS_4HeapE
_ZN3JSC17ConservativeRootsC2ERNS_4HeapE
_ZN3JSC17ConservativeRootsD1Ev
_ZN3JSC17ConservativeRootsD2Ev
_ZN3JSC17ConservativeRoots3addEPvS1_
_ZN3JSC17ConservativeRoots14genericAddSpanINS_13DummyMarkHookEEEvPvS3_RT_
_ZN3JSC17ConservativeRoots3addEPvS1_RNS_17JITStubRoutineSetERNS_12CodeBlockSetE
_ZN3JSC17ConservativeRoots14genericAddSpanINS_17CompositeMarkHookEEEvPvS3_RT_
_ZN3WTF13printInternalERNS_11PrintStreamEN3JSC15DestructionModeE
_ZN3JSC22EdenGCActivityCallbackC1ERNS_4HeapENS_15SynchronousnessE
_ZN3JSC22EdenGCActivityCallbackC2ERNS_4HeapENS_15SynchronousnessE
_ZN3JSC22EdenGCActivityCallbackD1Ev
_ZN3JSC22EdenGCActivityCallbackD2Ev
_ZN3JSC22EdenGCActivityCallbackD0Ev
_ZN3JSC22EdenGCActivityCallback12doCollectionERNS_2VME
_ZN3JSC22EdenGCActivityCallback12lastGCLengthERNS_4HeapE
_ZN3JSC19HeapSnapshotBuilder12dumpToStreamERN3WTF11PrintStreamE
_ZZN3JSC19HeapSnapshotBuilder12dumpToStreamERN3WTF11PrintStreamEENK3$_0clINS1_6StringEEEDaRKT_
_ZN3JSC18IncrementalSweeperC1EPNS_4HeapE
_ZN3JSC18IncrementalSweeperC2EPNS_4HeapE
_ZN3JSC18IncrementalSweeper6doWorkERNS_2VME
_ZN3JSC18IncrementalSweeper14sweepNextBlockERNS_2VMENS0_12SweepTriggerE
_ZN3JSC18IncrementalSweeper13startSweepingERNS_4HeapE
_ZN3JSC18IncrementalSweeper12stopSweepingEv
_ZN3JSC10IsoCellSetC1ERNS_11IsoSubspaceE
_ZN3JSC10IsoCellSetC2ERNS_11IsoSubspaceE
_ZN3JSC10IsoCellSetD1Ev
_ZN3JSC10IsoCellSetD2Ev
_ZN3JSC10IsoCellSet33parallelNotEmptyMarkedBlockSourceEv
_ZN3JSC10IsoCellSet7addSlowEj
_ZN3WTF9BitVector11excludeSlowERKS0_
_ZNK3WTF9BitVector12bitCountSlowEv
_ZNK3WTF9BitVector11isEmptySlowEv
_ZNK3WTF9BitVector4dumpERNS_11PrintStreamE
_ZN3WTF20ConcurrentPtrHashSetC1Ev
_ZN3WTF20ConcurrentPtrHashSetC2Ev
_ZN3WTF20ConcurrentPtrHashSet10initializeEv
_ZN3WTF20ConcurrentPtrHashSetD1Ev
_ZN3WTF20ConcurrentPtrHashSetD2Ev
_ZN3WTF20ConcurrentPtrHashSet15deleteOldTablesEv
_ZN3WTF20ConcurrentPtrHashSet5clearEv
_ZN3WTF20ConcurrentPtrHashSet7addSlowEPNS0_5TableEjjjPv
_ZNK3WTF20ConcurrentPtrHashSet16containsImplSlowEPv
_ZNK3WTF20ConcurrentPtrHashSet12containsImplEPv
_ZNK3WTF20ConcurrentPtrHashSet8sizeSlowEv
_ZZN3JSC11MarkedBlock6Handle16specializedSweepILb0ELNS1_9EmptyModeE0ELNS1_9SweepModeE0ELNS1_20SweepDestructionModeE0ELNS1_12ScribbleModeE0ELNS1_18NewlyAllocatedModeE0ELNS1_9MarksModeE0ENS_18DefaultDestroyFuncEEEvPNS_8FreeListES3_S4_S5_S6_S7_S8_RKT6_ENKUlTnbvE_clILb1EEEDav
_ZZN3JSC11MarkedBlock6Handle16specializedSweepILb1ELNS1_9EmptyModeE1ELNS1_9SweepModeE0ELNS1_20SweepDestructionModeE1ELNS1_12ScribbleModeE0ELNS1_18NewlyAllocatedModeE1ELNS1_9MarksModeE1ENS_18DefaultDestroyFuncEEEvPNS_8FreeListES3_S4_S5_S6_S7_S8_RKT6_ENKUlTnbvE_clILb1EEEDav
_ZZN3JSC11MarkedBlock6Handle16specializedSweepILb1ELNS1_9EmptyModeE1ELNS1_9SweepModeE1ELNS1_20SweepDestructionModeE1ELNS1_12ScribbleModeE0ELNS1_18NewlyAllocatedModeE1ELNS1_9MarksModeE1ENS_18DefaultDestroyFuncEEEvPNS_8FreeListES3_S4_S5_S6_S7_S8_RKT6_ENKUlTnbvE_clILb1EEEDav
_ZN3WTF13forEachSetBitImLm16EZZN3JSC11MarkedBlock6Handle16specializedSweepILb0ELNS3_9EmptyModeE0ELNS3_9SweepModeE0ELNS3_20SweepDestructionModeE0ELNS3_12ScribbleModeE0ELNS3_18NewlyAllocatedModeE0ELNS3_9MarksModeE0ENS1_18DefaultDestroyFuncEEEvPNS1_8FreeListES5_S6_S7_S8_S9_SA_RKT6_ENKUlTnbvE_clILb1EEEDavEUljE0_EEvSt4spanIKT_XT0_EERKT1_
_ZN3WTF13forEachSetBitImLm16EZZN3JSC11MarkedBlock6Handle16specializedSweepILb1ELNS3_9EmptyModeE1ELNS3_9SweepModeE0ELNS3_20SweepDestructionModeE1ELNS3_12ScribbleModeE0ELNS3_18NewlyAllocatedModeE1ELNS3_9MarksModeE1ENS1_18DefaultDestroyFuncEEEvPNS1_8FreeListES5_S6_S7_S8_S9_SA_RKT6_ENKUlTnbvE_clILb1EEEDavEUljE0_EEvSt4spanIKT_XT0_EERKT1_
_ZN3WTF13forEachSetBitImLm16EZZN3JSC11MarkedBlock6Handle16specializedSweepILb1ELNS3_9EmptyModeE1ELNS3_9SweepModeE1ELNS3_20SweepDestructionModeE1ELNS3_12ScribbleModeE0ELNS3_18NewlyAllocatedModeE1ELNS3_9MarksModeE1ENS1_18DefaultDestroyFuncEEEvPNS1_8FreeListES5_S6_S7_S8_S9_SA_RKT6_ENKUlTnbvE_clILb1EEEDavEUljE0_EEvSt4spanIKT_XT0_EERKT1_
_ZZNSt9once_flag18_Prepare_executionC1IZSt9call_onceIZN3JSC14heapHelperPoolEvE3$_0JEEvRS_OT_DpOT0_EUlvE_EERS6_ENUlvE_8__invokeEv
_ZN3WTF20ParallelHelperClientC1EONS_6RefPtrINS_18ParallelHelperPoolENS_12RawPtrTraitsIS2_EENS_21DefaultRefDerefTraitsIS2_EEEE
_ZN3WTF20ParallelHelperClientC2EONS_6RefPtrINS_18ParallelHelperPoolENS_12RawPtrTraitsIS2_EENS_21DefaultRefDerefTraitsIS2_EEEE
_ZN3WTF20ParallelHelperClientD1Ev
_ZN3WTF20ParallelHelperClientD2Ev
_ZN3WTF20ParallelHelperClient7setTaskEONS_6RefPtrINS_10SharedTaskIFvvEEENS_12RawPtrTraitsIS4_EENS_21DefaultRefDerefTraitsIS4_EEEE
_ZN3WTF18ParallelHelperPool20didMakeWorkAvailableERKNS_14AbstractLockerE
_ZN3WTF20ParallelHelperClient6finishEv
_ZN3WTF20ParallelHelperClient7runTaskERKNS_6RefPtrINS_10SharedTaskIFvvEEENS_12RawPtrTraitsIS4_EENS_21DefaultRefDerefTraitsIS4_EEEE
_ZN3WTF18ParallelHelperPool6createENS_12ASCIILiteralE
_ZN3WTF18ParallelHelperPoolD1Ev
_ZN3WTF18ParallelHelperPoolD2Ev
_ZN3WTF18ParallelHelperPool13ensureThreadsEj
_ZN3WTF18ParallelHelperPool6ThreadC2ERKNS_14AbstractLockerERS0_
_ZN3WTF18ParallelHelperPool6ThreadD2Ev
_ZN3WTF18ParallelHelperPool6ThreadD0Ev
_ZNK3WTF18ParallelHelperPool6Thread4nameEv
_ZN3WTF18ParallelHelperPool6Thread4pollERKNS_14AbstractLockerE
_ZN3WTF18ParallelHelperPool6Thread4workEv
_ZN3WTF24AutomaticThreadCondition6createEv
_ZN3WTF24AutomaticThreadConditionD1Ev
_ZN3WTF24AutomaticThreadConditionD2Ev
_ZN3WTF24AutomaticThreadCondition9notifyOneERKNS_14AbstractLockerE
_ZN3WTF15AutomaticThread5startERKNS_14AbstractLockerE
_ZN3WTF24AutomaticThreadCondition9notifyAllERKNS_14AbstractLockerE
_ZN3WTF15AutomaticThreadC2ERKNS_14AbstractLockerENS_3BoxINS_4LockEEEONS_3RefINS_24AutomaticThreadConditionENS_12RawPtrTraitsIS8_EENS_21DefaultRefDerefTraitsIS8_EEEENS_7SecondsE
_ZN3WTF15AutomaticThreadC2ERKNS_14AbstractLockerENS_3BoxINS_4LockEEEONS_3RefINS_24AutomaticThreadConditionENS_12RawPtrTraitsIS8_EENS_21DefaultRefDerefTraitsIS8_EEEENS_10ThreadTypeENS_7SecondsE
_ZN3WTF15AutomaticThreadD1Ev
_ZN3WTF15AutomaticThreadD2Ev
_ZN3WTF15AutomaticThread7tryStopERKNS_14AbstractLockerE
_ZN3WTF15AutomaticThread4joinEv
_ZNK3WTF15AutomaticThread4nameEv
_ZN3WTF6VectorINS_10CheckedPtrINS_15AutomaticThreadENS_12RawPtrTraitsIS2_EEEELm0ENS_15CrashOnOverflowELm16ENS_10FastMallocEE15reserveCapacityILNS_13FailureActionE0EEEbm
_ZN3WTF16ConcurrentVectorISt10unique_ptrINS_6BitSetILm1024EmEESt14default_deleteIS3_EELm8EEixEm
_ZN3WTF13FastBitVectorixEm
_ZN3JSC10IsoCellSet13didResizeBitsEj
_ZN3JSC10IsoCellSet14didRemoveBlockEj
_ZN3JSC10IsoCellSet15sweepToFreeListEPNS_11MarkedBlock6HandleE
_ZN3WTF6BitSetILm1024EmE16concurrentFilterERKS1_
_ZN3JSC15IsoHeapCellTypeC1ENS_15DestructionModeEPFvPNS_6JSCellEE
_ZN3JSC15IsoHeapCellTypeC2ENS_15DestructionModeEPFvPNS_6JSCellEE
_ZNK3JSC15IsoHeapCellType11finishSweepERNS_11MarkedBlock6HandleEPNS_8FreeListE
_ZN3JSC11MarkedBlock6Handle30finishSweepKnowingHeapCellTypeINS_15IsoHeapCellTypeEEEvPNS_8FreeListERKT_
_ZNK3JSC15IsoHeapCellType7destroyERNS_2VMEPNS_6JSCellE
_ZN3JSC11IsoSubspaceC1EN3WTF7CStringERNS_4HeapERKNS_12HeapCellTypeEmhOSt10unique_ptrINS_22AlignedMemoryAllocatorESt14default_deleteIS9_EE
_ZN3JSC11IsoSubspaceC2EN3WTF7CStringERNS_4HeapERKNS_12HeapCellTypeEmhOSt10unique_ptrINS_22AlignedMemoryAllocatorESt14default_deleteIS9_EE
_ZN3JSC11IsoSubspaceD1Ev
_ZN3JSC11IsoSubspaceD2Ev
_ZN3JSC11IsoSubspaceD0Ev
_ZN3JSC11IsoSubspace13didResizeBitsEj
_ZN3JSC11IsoSubspace14didRemoveBlockEj
_ZN3JSC11IsoSubspace26didBeginSweepingToFreeListEPNS_11MarkedBlock6HandleE
_ZN3JSC11IsoSubspace27tryAllocateLowerTierPreciseEm
_ZN3JSC11IsoSubspace25sweepLowerTierPreciseCellEPNS_17PreciseAllocationE
_ZN3JSC11IsoSubspace31destroyLowerTierPreciseFreeListEv
_ZN3JSC8GCClient4Heap32webAssemblyModuleRecordSpaceSlowEv
_ZN3JSC8GCClient4Heap25webAssemblyTableSpaceSlowEv
_ZN3JSC8GCClient4Heap23webAssemblyTagSpaceSlowEv
_ZN3JSC8GCClient4Heap36webAssemblyStreamingContextSpaceSlowEv
_ZN3JSC8GCClient4Heap35webAssemblyWrapperFunctionSpaceSlowEv
_ZN3JSC8GCClient4Heap23evalExecutableSpaceSlowEv
_ZN3JSC8GCClient4Heap32moduleProgramExecutableSpaceSlowEv
_ZN3JSC8HeapCell20isPendingDestructionEv
_ZN3WTF13printInternalERNS_11PrintStreamEN3JSC8HeapCell4KindE
_ZN3JSC12HeapCellTypeC1ENS_14CellAttributesE
_ZN3JSC12HeapCellTypeC2ENS_14CellAttributesE
_ZNK3JSC12HeapCellType11finishSweepERNS_11MarkedBlock6HandleEPNS_8FreeListE
_ZN3JSC11MarkedBlock6Handle30finishSweepKnowingHeapCellTypeINS_18DefaultDestroyFuncEEEvPNS_8FreeListERKT_
_ZNK3JSC12HeapCellType7destroyERNS_2VMEPNS_6JSCellE
_ZN3JSC12HeapProfilerC1ERNS_2VME
_ZN3JSC12HeapProfilerC2ERNS_2VME
_ZN3JSC12HeapProfilerD1Ev
_ZN3JSC12HeapProfilerD2Ev
_ZN3JSC12HeapProfiler14appendSnapshotESt10unique_ptrINS_12HeapSnapshotESt14default_deleteIS2_EE
_ZN3JSC12HeapProfiler14clearSnapshotsEv
_ZN3JSC12HeapProfiler21setActiveHeapAnalyzerEPNS_12HeapAnalyzerE
_ZN3JSC12HeapSnapshotC1EPS0_
_ZN3JSC12HeapSnapshotC2EPS0_
_ZN3JSC12HeapSnapshotD1Ev
_ZN3JSC12HeapSnapshotD2Ev
_ZN3JSC12HeapSnapshot10appendNodeERKNS_16HeapSnapshotNodeE
_ZN3JSC12HeapSnapshot8finalizeEv
_ZN2v810DateParser11InputReader15SkipParenthesesEv
_ZN2v88TimeClipEd
_ZN2v819ParseDateTimeStringEPKhmRb
_ZN3JSC32JSDestructibleObjectHeapCellTypeC1Ev
_ZN3JSC32JSDestructibleObjectHeapCellTypeC2Ev
_ZNK3JSC32JSDestructibleObjectHeapCellType11finishSweepERNS_11MarkedBlock6HandleEPNS_8FreeListE
_ZN3JSC11MarkedBlock6Handle30finishSweepKnowingHeapCellTypeINS_31JSDestructibleObjectDestroyFuncEEEvPNS_8FreeListERKT_
_ZN3JSC22EdenGCActivityCallback9deathRateERNS_4HeapE
_ZN3JSC22EdenGCActivityCallback11gcTimeSliceEm
_ZN3JSC32FastMallocAlignedMemoryAllocatorC1Ev
_ZN3JSC32FastMallocAlignedMemoryAllocatorC2Ev
_ZN3JSC32FastMallocAlignedMemoryAllocator24tryAllocateAlignedMemoryEmm
_ZNK3JSC32FastMallocAlignedMemoryAllocator4dumpERN3WTF11PrintStreamE
_ZN3JSC32FastMallocAlignedMemoryAllocator17tryAllocateMemoryEm
_ZN3JSC32FastMallocAlignedMemoryAllocator19tryReallocateMemoryEPvm
_ZN3JSC8FreeListC1Ej
_ZN3JSC8FreeListC2Ej
_ZN3JSC8FreeList5clearEv
_ZN3JSC8FreeList10initializeEPNS_8FreeCellEmj
_ZN3JSC17ConservativeRoots17genericAddPointerILb1ENS_13DummyMarkHookEEEvPcjjNS_15TinyBloomFilterImEES5_RT0_
_ZN3WTF6Detail15CallableWrapperIZZZN3JSC3FTL5State15dumpDisassemblyERNS_11PrintStreamERNS2_10LinkBufferERKNS_12ScopedLambdaIFvPNS2_3DFG4NodeEEEEENK3$_0clIS5_EEDaRT_ENKUlSC_E_clESC_EUlSC_E_vJSC_EE4callESC_
_ZN3JSC22AlignedMemoryAllocatorC2Ev
_ZN3JSC22AlignedMemoryAllocator17registerDirectoryERNS_4HeapEPNS_14BlockDirectoryE
_ZN3JSC22AlignedMemoryAllocator16registerSubspaceEPNS_8SubspaceE
_ZN3JSC14BlockDirectoryC1Em
_ZN3JSC14BlockDirectoryC2Em
_ZN3JSC14BlockDirectoryD1Ev
_ZN3JSC14BlockDirectoryD2Ev
_ZN3JSC14BlockDirectory11setSubspaceEPNS_8SubspaceE
_ZN3JSC14BlockDirectory31updatePercentageOfPagedOutPagesERN3WTF11SimpleStatsE
_ZN3JSC4HeapD1Ev
_ZN3JSC4HeapD2Ev
_ZN3JSC22FullGCActivityCallback12lastGCLengthERNS_4HeapE
_ZN3JSC22FullGCActivityCallback9deathRateERNS_4HeapE
_ZN3JSC18GCActivityCallback9deathRateEmm
_ZN3JSC22FullGCActivityCallback11gcTimeSliceEm
_ZN3JSC18GCActivityCallback6doWorkERNS_2VME
_ZN3JSC18GCActivityCallback11didAllocateERNS_4HeapEm
_ZN3JSC18GCActivityCallback11willCollectEv
_ZN3JSC20gcConductorShortNameENS_11GCConductorE
_ZNK3JSC9GCRequest10subsumedByERKS0_
_ZN3JSC30GigacageAlignedMemoryAllocatorC1EN8Gigacage4KindE
_ZN3JSC30GigacageAlignedMemoryAllocatorC2EN8Gigacage4KindE
_ZN3JSC30GigacageAlignedMemoryAllocator24tryAllocateAlignedMemoryEmm
_ZN3JSC30GigacageAlignedMemoryAllocator10freeMemoryEPv
_ZN3JSC30GigacageAlignedMemoryAllocator17freeAlignedMemoryEPv
_ZNK3JSC30GigacageAlignedMemoryAllocator4dumpERN3WTF11PrintStreamE
_ZN3WTF28stringTypeAdapterAccumulatorIDsNS_17StringTypeAdapterINS_12ASCIILiteralEEEJNS1_INS_10StringViewEEENS1_IcEEEEEvSt4spanIT_Lm18446744073709551615EET0_DpT1_
_ZN3JSC22worldShouldBeSuspendedENS_14CollectorPhaseE
_ZN3JSC16CompleteSubspaceC1EN3WTF7CStringERNS_4HeapERKNS_12HeapCellTypeEPNS_22AlignedMemoryAllocatorE
_ZN3JSC16CompleteSubspaceC2EN3WTF7CStringERNS_4HeapERKNS_12HeapCellTypeEPNS_22AlignedMemoryAllocatorE
_ZN3JSC16CompleteSubspaceD1Ev
_ZN3JSC16CompleteSubspaceD2Ev
_ZN3JSC16CompleteSubspaceD0Ev
_ZN3JSC16CompleteSubspace21allocatorForNonInlineEmNS_16AllocatorForModeE
_ZN3JSC16CompleteSubspace16allocatorForSlowEm
_ZN3JSC16CompleteSubspace12allocateSlowERNS_2VMEmPNS_17GCDeferralContextENS_21AllocationFailureModeE
_ZN3JSC16CompleteSubspace15tryAllocateSlowERNS_2VMEmPNS_17GCDeferralContextE
_ZN3JSC11SlotVisitor18waitForTerminationEN3WTF13MonotonicTimeE
_ZN3JSC11SlotVisitor6donateEv
_ZN3JSC11SlotVisitor7didRaceERKNS_12VisitRaceKeyE
_ZN3WTF9toCStringIJA16_cN3JSC12VisitRaceKeyEEEENS_7CStringEDpRKT_
_ZNK3JSC11SlotVisitor4dumpERN3WTF11PrintStreamE
_ZN3JSC14BlockDirectory21findEmptyBlockToStealEv
_ZN3JSC14BlockDirectory22findBlockForAllocationERNS_14LocalAllocatorE
_ZN3JSC14BlockDirectory16tryAllocateBlockERNS_4HeapE
_ZNK3JSC14BlockDirectory11markedSpaceEv
_ZN3JSC14BlockDirectory8addBlockEPNS_11MarkedBlock6HandleE
_ZN3JSC18BlockDirectoryBits6resizeEj
_ZN3JSC4Heap28ScriptExecutableSpaceAndSetsC2IJN3WTF12ASCIILiteralERS0_RNS_12HeapCellTypeEmRKhEEEDpOT_
_ZN3JSC4Heap10HeapThreadC2ERKN3WTF14AbstractLockerERS0_
_ZN3JSC11SlotVisitor25addParallelConstraintTaskEN3WTF6RefPtrINS1_10SharedTaskIFvRNS_19AbstractSlotVisitorEEEENS1_12RawPtrTraitsIS7_EENS1_21DefaultRefDerefTraitsIS7_EEEE
_ZN3JSC11SlotVisitor25addParallelConstraintTaskEN3WTF6RefPtrINS1_10SharedTaskIFvRS0_EEENS1_12RawPtrTraitsIS6_EENS1_21DefaultRefDerefTraitsIS6_EEEE
_ZN3JSC25SpaceTimeMutatorSchedulerC1ERNS_4HeapE
_ZN3JSC25SpaceTimeMutatorSchedulerC2ERNS_4HeapE
_ZN3JSC25SpaceTimeMutatorScheduler15beginCollectionEv
_ZN3JSC25SpaceTimeMutatorScheduler7didStopEv
_ZN3JSC25SpaceTimeMutatorScheduler10willResumeEv
_ZN3JSC25SpaceTimeMutatorScheduler21didExecuteConstraintsEv
_ZN3JSC25SpaceTimeMutatorScheduler10timeToStopEv
_ZN3JSC25SpaceTimeMutatorScheduler12timeToResumeEv
_ZN3JSC25SpaceTimeMutatorScheduler3logEv
_ZN3WTF7dataLogIJA3_cNS_10FormatImplIJPKcdEEEA4_cS6_S5_A2_cS6_S5_S7_EEEvDpRKT_
_ZN3JSC25SpaceTimeMutatorScheduler13endCollectionEv
_ZN3JSC35StochasticSpaceTimeMutatorSchedulerC1ERNS_4HeapE
_ZN3JSC35StochasticSpaceTimeMutatorSchedulerC2ERNS_4HeapE
_ZN3JSC35StochasticSpaceTimeMutatorScheduler15beginCollectionEv
_ZN3JSC35StochasticSpaceTimeMutatorScheduler7didStopEv
_ZN3JSC35StochasticSpaceTimeMutatorScheduler10willResumeEv
_ZN3JSC35StochasticSpaceTimeMutatorScheduler19didReachTerminationEv
_ZN3JSC23MarkingConstraintSolver18runExecutionThreadERNS_11SlotVisitorENS0_19SchedulerPreferenceEN3WTF12ScopedLambdaIFSt8optionalIjEvEEE
_ZN3JSC23MarkingConstraintSolver7executeERNS_17MarkingConstraintE
_ZN3JSC23MarkingConstraintSolver15addParallelTaskEN3WTF6RefPtrINS1_10SharedTaskIFvRNS_11SlotVisitorEEEENS1_12RawPtrTraitsIS7_EENS1_21DefaultRefDerefTraitsIS7_EEEERNS_17MarkingConstraintE
_ZZN3JSC23MarkingConstraintSolver18runExecutionThreadERNS_11SlotVisitorENS0_19SchedulerPreferenceEN3WTF12ScopedLambdaIFSt8optionalIjEvEEEENK3$_1clEv
_ZN3JSC16MutatorSchedulerC2Ev
_ZN3JSC16MutatorScheduler10shouldStopEv
_ZN3JSC16MutatorScheduler12shouldResumeEv
_ZN3JSC11MarkedBlock6Handle16specializedSweepILb1ELNS1_9EmptyModeE0ELNS1_9SweepModeE1ELNS1_20SweepDestructionModeE0ELNS1_12ScribbleModeE0ELNS1_18NewlyAllocatedModeE1ELNS1_9MarksModeE1EZZNS1_5sweepEPNS_8FreeListEENK3$_0clEvEUlRNS_2VMEPNS_6JSCellEE_EEvSA_S3_S4_S5_S6_S7_S8_RKT6_
_ZN3WTF6VectorINS_10CheckedPtrINS_15AutomaticThreadENS_12RawPtrTraitsIS2_EEEELm0ENS_15CrashOnOverflowELm16ENS_10FastMallocEE8removeAtEmm
_ZN3WTF6Detail15CallableWrapperIZNS_15AutomaticThread5startERKNS_14AbstractLockerEE3$_0vJEED2Ev
_ZN3WTF6Detail15CallableWrapperIZNS_15AutomaticThread5startERKNS_14AbstractLockerEE3$_0vJEED0Ev
_ZN3WTF6Detail15CallableWrapperIZNS_15AutomaticThread5startERKNS_14AbstractLockerEE3$_0vJEE4callEv
_ZN3JSC11SlotVisitorD0Ev
_ZN3JSC11SlotVisitor15didStartMarkingEv
_ZN3JSC11SlotVisitor5resetEv
_ZN3JSC11SlotVisitor6appendERKNS_17ConservativeRootsE
_ZN3JSC11SlotVisitor23appendJSCellOrAuxiliaryEPNS_8HeapCellE
_ZN3JSC11SlotVisitor17appendToMarkStackEPNS_6JSCellE
_ZN3JSC11SlotVisitor10appendSlowEPNS_6JSCellEN3WTF10DependencyE
_ZN3JSC11SlotVisitor16appendHiddenSlowEPNS_6JSCellEN3WTF10DependencyE
_ZN3JSC11SlotVisitor13markAuxiliaryEPKv
_ZN3JSC11SlotVisitor17visitAsConstraintEPKNS_6JSCellE
_ZN3JSC11SlotVisitor22updateMutatorIsStoppedERKN3WTF14AbstractLockerE
_ZN3JSC11SlotVisitor22updateMutatorIsStoppedEv
_ZNK3JSC11SlotVisitor38hasAcknowledgedThatTheMutatorIsResumedEv
_ZN3JSC11SlotVisitor25optimizeForStoppedMutatorEv
_ZN3JSC11SlotVisitor5drainEN3WTF13MonotonicTimeE
_ZN3JSC11MarkedBlock6Handle16specializedSweepILb1ELNS1_9EmptyModeE1ELNS1_9SweepModeE0ELNS1_20SweepDestructionModeE1ELNS1_12ScribbleModeE0ELNS1_18NewlyAllocatedModeE1ELNS1_9MarksModeE1ENS_15IsoHeapCellTypeEEEvPNS_8FreeListES3_S4_S5_S6_S7_S8_RKT6_
_ZN3JSC4Heap28webAssemblyFunctionSpaceSlowEv
_ZN3JSC4Heap26webAssemblyGlobalSpaceSlowEv
_ZN3JSC4Heap26webAssemblyMemorySpaceSlowEv
_ZN3JSC4Heap26webAssemblyModuleSpaceSlowEv
_ZN3JSC4Heap32webAssemblyModuleRecordSpaceSlowEv
_ZN3JSC4Heap25webAssemblyTableSpaceSlowEv
_ZN3JSC4Heap23webAssemblyTagSpaceSlowEv
_ZN3JSC4Heap36webAssemblyStreamingContextSpaceSlowEv
_ZN3JSC4Heap35webAssemblyWrapperFunctionSpaceSlowEv
_ZN3JSC4Heap23evalExecutableSpaceSlowEv
_ZN3JSC4Heap32moduleProgramExecutableSpaceSlowEv
_ZN3JSC4Heap28webAssemblyInstanceSpaceSlowEv
_ZN3JSC4Heap34reportWasmCalleePendingDestructionEON3WTF3RefINS_4Wasm6CalleeENS1_12RawPtrTraitsIS4_EENS1_21DefaultRefDerefTraitsIS4_EEEE
_ZN3JSC4Heap28didDiscoverPendingWasmCalleeEPNS_4Wasm6CalleeE
_ZN3JSC8GCClient4HeapC1ERNS_4HeapE
_ZN3JSC8GCClient4HeapC2ERNS_4HeapE
_ZN3JSC8GCClient4HeapD1Ev
_ZN3JSC8GCClient4HeapD2Ev
_ZN3JSC8GCClient11IsoSubspaceC1ERNS_11IsoSubspaceE
_ZN3JSC8GCClient11IsoSubspaceC2ERNS_11IsoSubspaceE
_ZN3JSC17JITStubRoutineSet23traceMarkedStubRoutinesINS_19AbstractSlotVisitorEEEvRT_
_ZN3JSC17JITStubRoutineSet23traceMarkedStubRoutinesINS_11SlotVisitorEEEvRT_
_ZN3JSC17JITStubRoutineSetD1Ev
_ZN3JSC17JITStubRoutineSetD2Ev
_ZN3JSC17JITStubRoutineSet3addEPNS_21GCAwareJITStubRoutineE
_ZN3JSC17JITStubRoutineSet26prepareForConservativeScanEv
_ZN3JSC13DatePrototype14finishCreationERNS_2VMEPNS_14JSGlobalObjectE
_ZN3JSCL24dateProtoFuncToUTCStringEPNS_14JSGlobalObjectEPNS_9CallFrameE
_ZN3JSCL30dateProtoFuncToPrimitiveSymbolEPNS_14JSGlobalObjectEPNS_9CallFrameE
_ZN3JSCL30dateProtoFuncToTemporalInstantEPNS_14JSGlobalObjectEPNS_9CallFrameE
_ZN3JSC17DeferredWorkTimerC1ERNS_2VME
_ZN3JSC17DeferredWorkTimerC2ERNS_2VME
_ZN3JSC17DeferredWorkTimer6doWorkERNS_2VME
_ZN3WTF17PrivateSymbolImpl6createERNS_10StringImplE
_ZN3WTF20RegisteredSymbolImpl6createERNS_10StringImplERNS_14SymbolRegistryE
_ZN3WTF20RegisteredSymbolImpl13createPrivateERNS_10StringImplERNS_14SymbolRegistryE
_ZN3WTF14SymbolRegistryC1ENS0_4TypeE
_ZN3WTF14SymbolRegistryC2ENS0_4TypeE
_ZN3WTF14SymbolRegistryD1Ev
_ZN3WTF14SymbolRegistryD2Ev
_ZN3WTF14SymbolRegistry12symbolForKeyERKNS_6StringE
_ZN3WTF14SymbolRegistry6removeERNS_20RegisteredSymbolImplE
_ZN3JSC12SmallStrings21visitStrongReferencesINS_11SlotVisitorEEEvRT_
_ZN3JSC12SmallStringsC1Ev
_ZN3JSC12SmallStringsC2Ev
_ZN3JSC12SmallStrings23initializeCommonStringsERNS_2VME
_ZN3JSC4Heap20forEachCodeBlockImplERKN3WTF12ScopedLambdaIFvPNS_9CodeBlockEEEE
_ZN3JSC4Heap36forEachCodeBlockIgnoringJITPlansImplERKN3WTF14AbstractLockerERKNS1_12ScopedLambdaIFvPNS_9CodeBlockEEEE
_ZN3JSC4Heap20writeBarrierSlowPathEPKNS_6JSCellE
_ZN3JSC4Heap26currentThreadIsDoingGCWorkEv
_ZN3JSC4Heap27reportExternalMemoryVisitedEm
_ZN3JSC4Heap39decrementDeferralDepthAndGCIfNeededSlowEv
_ZN3JSC4Heap23registerWeakGCHashTableEPNS_15WeakGCHashTableE
_ZN3JSC4Heap25unregisterWeakGCHashTableEPNS_15WeakGCHashTableE
_ZN3WTF13tryMakeStringITpTkNS_19StringTypeAdaptableEJNS_7CStringENS_12ASCIILiteralEN3JSC13CodeBlockHashEEEENS_6StringEDpRKT_
_ZN3WTF28stringTypeAdapterAccumulatorIhNS_17StringTypeAdapterINS_7CStringEEEJNS1_INS_12ASCIILiteralEEENS1_IN3JSC13CodeBlockHashEEEEEEvSt4spanIT_Lm18446744073709551615EET0_DpT1_
_ZN3WTF9HashTableIPKN3JSC20AbstractModuleRecordES4_NS_17IdentityExtractorENS_11DefaultHashIS4_EENS_10HashTraitsIS4_EES9_NS_10FastMallocEE3addINS_22IdentityHashTranslatorIS9_S7_EELNS_17ShouldValidateKeyE0ERKS4_TkSt9invocableZNSB_3addILSF_0EEENS_18HashTableAddResultINS_17HashTableIteratorISB_S4_S4_S5_S7_S9_S9_EEEEOS4_EUlvE_EESM_OT1_RKT2_
_ZN3WTF9HashTableIPKN3JSC4Wasm6CalleeES5_NS_17IdentityExtractorENS_11DefaultHashIS5_EENS_10HashTraitsIS5_EESA_NS_10FastMallocEE3addINS_22IdentityHashTranslatorISA_S8_EELNS_17ShouldValidateKeyE0ERKS5_TkSt9invocableZNSC_3addILSG_0EEENS_18HashTableAddResultINS_17HashTableIteratorISC_S5_S5_S6_S8_SA_SA_EEEEOS5_EUlvE_EESN_OT1_RKT2_
_ZN3WTF9HashTableIPKN3JSC4Wasm6CalleeES5_NS_17IdentityExtractorENS_11DefaultHashIS5_EENS_10HashTraitsIS5_EESA_NS_10FastMallocEE3addINS_22IdentityHashTranslatorISA_S8_EELNS_17ShouldValidateKeyE0ERKS5_TkSt9invocableZNSC_3addILSG_0EEENS_18HashTableAddResultINS_17HashTableIteratorISC_S5_S5_S6_S8_SA_SA_EEEESI_EUlvE_EESN_OT1_RKT2_
_ZN3WTF9HashTableIPKN3JSC8JSStringES4_NS_17IdentityExtractorENS_11DefaultHashIS4_EENS_10HashTraitsIS4_EES9_NS_10FastMallocEE3addINS_22IdentityHashTranslatorIS9_S7_EELNS_17ShouldValidateKeyE0ERKS4_TkSt9invocableZNSB_3addILSF_0EEENS_18HashTableAddResultINS_17HashTableIteratorISB_S4_S4_S5_S7_S9_S9_EEEESH_EUlvE_EESM_OT1_RKT2_
_ZN3WTF9HashTableIPN3JSC11SymbolTableES3_NS_17IdentityExtractorENS_11DefaultHashIS3_EENS_10HashTraitsIS3_EES8_NS_10FastMallocEE3addINS_22IdentityHashTranslatorIS8_S6_EELNS_17ShouldValidateKeyE0ERKS3_TkSt9invocableZNSA_3addILSE_0EEENS_18HashTableAddResultINS_17HashTableIteratorISA_S3_S3_S4_S6_S8_S8_EEEESG_EUlvE_EESL_OT1_RKT2_
_ZN3WTF9HashTableIPN3JSC12NativeCalleeES3_NS_17IdentityExtractorENS_11DefaultHashIS3_EENS_10HashTraitsIS3_EES8_NS_10FastMallocEE3addINS_22IdentityHashTranslatorIS8_S6_EELNS_17ShouldValidateKeyE0ERKS3_TkSt9invocableZNSA_3addILSE_0EEENS_18HashTableAddResultINS_17HashTableIteratorISA_S3_S3_S4_S6_S8_S8_EEEEOS3_EUlvE_EESL_OT1_RKT2_
_ZN3WTF9HashTableIPN3JSC12NativeCalleeES3_NS_17IdentityExtractorENS_11DefaultHashIS3_EENS_10HashTraitsIS3_EES8_NS_10FastMallocEE3addINS_22IdentityHashTranslatorIS8_S6_EELNS_17ShouldValidateKeyE0ERKS3_TkSt9invocableZNSA_3addILSE_0EEENS_18HashTableAddResultINS_17HashTableIteratorISA_S3_S3_S4_S6_S8_S8_EEEESG_EUlvE_EESL_OT1_RKT2_
_ZN3WTF9HashTableIPN3JSC13WatchpointSetES3_NS_17IdentityExtractorENS_11DefaultHashIS3_EENS_10HashTraitsIS3_EES8_NS_10FastMallocEE3addINS_22IdentityHashTranslatorIS8_S6_EELNS_17ShouldValidateKeyE0ERKS3_TkSt9invocableZNSA_3addILSE_0EEENS_18HashTableAddResultINS_17HashTableIteratorISA_S3_S3_S4_S6_S8_S8_EEEESG_EUlvE_EESL_OT1_RKT2_
_ZN3WTF9HashTableIPN3JSC14JSGlobalObjectES3_NS_17IdentityExtractorENS_11DefaultHashIS3_EENS_10HashTraitsIS3_EES8_NS_10FastMallocEE3addINS_22IdentityHashTranslatorIS8_S6_EELNS_17ShouldValidateKeyE0ERKS3_TkSt9invocableZNSA_3addILSE_0EEENS_18HashTableAddResultINS_17HashTableIteratorISA_S3_S3_S4_S6_S8_S8_EEEESG_EUlvE_EESL_OT1_RKT2_
_ZN3WTF9HashTableIPN3JSC15WeakGCHashTableES3_NS_17IdentityExtractorENS_11DefaultHashIS3_EENS_10HashTraitsIS3_EES8_NS_10FastMallocEE3addINS_22IdentityHashTranslatorIS8_S6_EELNS_17ShouldValidateKeyE0ERKS3_TkSt9invocableZNSA_3addILSE_0EEENS_18HashTableAddResultINS_17HashTableIteratorISA_S3_S3_S4_S6_S8_S8_EEEESG_EUlvE_EESL_OT1_RKT2_
_ZN3WTF9HashTableIPN3JSC17JSArrayBufferViewES3_NS_17IdentityExtractorENS_11DefaultHashIS3_EENS_10HashTraitsIS3_EES8_NS_10FastMallocEE3addINS_22IdentityHashTranslatorIS8_S6_EELNS_17ShouldValidateKeyE0ERKS3_TkSt9invocableZNSA_3addILSE_0EEENS_18HashTableAddResultINS_17HashTableIteratorISA_S3_S3_S4_S6_S8_S8_EEEESG_EUlvE_EESL_OT1_RKT2_
_ZN3WTF9HashTableIPN3JSC18FunctionExecutableES3_NS_17IdentityExtractorENS_11DefaultHashIS3_EENS_10HashTraitsIS3_EES8_NS_10FastMallocEE3addINS_22IdentityHashTranslatorIS8_S6_EELNS_17ShouldValidateKeyE0ERKS3_TkSt9invocableZNSA_3addILSE_0EEENS_18HashTableAddResultINS_17HashTableIteratorISA_S3_S3_S4_S6_S8_S8_EEEESG_EUlvE_EESL_OT1_RKT2_
_ZN3WTF9HashTableIPN3JSC19InlineWatchpointSetES3_NS_17IdentityExtractorENS_11DefaultHashIS3_EENS_10HashTraitsIS3_EES8_NS_10FastMallocEE3addINS_22IdentityHashTranslatorIS8_S6_EELNS_17ShouldValidateKeyE0ERKS3_TkSt9invocableZNSA_3addILSE_0EEENS_18HashTableAddResultINS_17HashTableIteratorISA_S3_S3_S4_S6_S8_S8_EEEESG_EUlvE_EESL_OT1_RKT2_
_ZN3WTF9HashTableIPN3JSC19JSModuleEnvironmentES3_NS_17IdentityExtractorENS_11DefaultHashIS3_EENS_10HashTraitsIS3_EES8_NS_10FastMallocEE3addINS_22IdentityHashTranslatorIS8_S6_EELNS_17ShouldValidateKeyE0ERKS3_TkSt9invocableZNSA_3addILSE_0EEENS_18HashTableAddResultINS_17HashTableIteratorISA_S3_S3_S4_S6_S8_S8_EEEEOS3_EUlvE_EESL_OT1_RKT2_
_ZN3WTF9HashTableIPN3JSC2B310BasicBlockES4_NS_17IdentityExtractorENS_11DefaultHashIS4_EENS_10HashTraitsIS4_EES9_NS_10FastMallocEE3addINS_22IdentityHashTranslatorIS9_S7_EELNS_17ShouldValidateKeyE0ERKS4_TkSt9invocableZNSB_3addILSF_0EEENS_18HashTableAddResultINS_17HashTableIteratorISB_S4_S4_S5_S7_S9_S9_EEEESH_EUlvE_EESM_OT1_RKT2_
_ZN3WTF9HashTableIPN3JSC2B33Air10BasicBlockES5_NS_17IdentityExtractorENS_11DefaultHashIS5_EENS_10HashTraitsIS5_EESA_NS_10FastMallocEE3addINS_22IdentityHashTranslatorISA_S8_EELNS_17ShouldValidateKeyE0ERKS5_TkSt9invocableZNSC_3addILSG_0EEENS_18HashTableAddResultINS_17HashTableIteratorISC_S5_S5_S6_S8_SA_SA_EEEESI_EUlvE_EESN_OT1_RKT2_
_ZN3WTF9HashTableIPN3JSC2B33Air7SpecialES5_NS_17IdentityExtractorENS_11DefaultHashIS5_EENS_10HashTraitsIS5_EESA_NS_10FastMallocEE3addINS_22IdentityHashTranslatorISA_S8_EELNS_17ShouldValidateKeyE0ERKS5_TkSt9invocableZNSC_3addILSG_0EEENS_18HashTableAddResultINS_17HashTableIteratorISC_S5_S5_S6_S8_SA_SA_EEEESI_EUlvE_EESN_OT1_RKT2_
_ZN3WTF9HashTableIPN3JSC2B33Air9StackSlotES5_NS_17IdentityExtractorENS_11DefaultHashIS5_EENS_10HashTraitsIS5_EESA_NS_10FastMallocEE3addINS_22IdentityHashTranslatorISA_S8_EELNS_17ShouldValidateKeyE0ERKS5_TkSt9invocableZNSC_3addILSG_0EEENS_18HashTableAddResultINS_17HashTableIteratorISC_S5_S5_S6_S8_SA_SA_EEEESI_EUlvE_EESN_OT1_RKT2_
_ZN3WTF9HashTableIPN3JSC2B35ValueES4_NS_17IdentityExtractorENS_11DefaultHashIS4_EENS_10HashTraitsIS4_EES9_NS_10FastMallocEE3addINS_22IdentityHashTranslatorIS9_S7_EELNS_17ShouldValidateKeyE0ERKS4_TkSt9invocableZNSB_3addILSF_0EEENS_18HashTableAddResultINS_17HashTableIteratorISB_S4_S4_S5_S7_S9_S9_EEEESH_EUlvE_EESM_OT1_RKT2_
_ZN3WTF9HashTableIPN3JSC3DFG10BasicBlockES4_NS_17IdentityExtractorENS_11DefaultHashIS4_EENS_10HashTraitsIS4_EES9_NS_10FastMallocEE3addINS_22IdentityHashTranslatorIS9_S7_EELNS_17ShouldValidateKeyE0ERKS4_TkSt9invocableZNSB_3addILSF_0EEENS_18HashTableAddResultINS_17HashTableIteratorISB_S4_S4_S5_S7_S9_S9_EEEESH_EUlvE_EESM_OT1_RKT2_
_ZN3WTF9HashTableIPN3JSC3DFG4NodeES4_NS_17IdentityExtractorENS_11DefaultHashIS4_EENS_10HashTraitsIS4_EES9_NS_10FastMallocEE3addINS_22IdentityHashTranslatorIS9_S7_EELNS_17ShouldValidateKeyE0ERKS4_TkSt9invocableZNSB_3addILSF_0EEENS_18HashTableAddResultINS_17HashTableIteratorISB_S4_S4_S5_S7_S9_S9_EEEEOS4_EUlvE_EESM_OT1_RKT2_
_ZN3WTF9HashTableIPN3JSC3DFG4NodeES4_NS_17IdentityExtractorENS_11DefaultHashIS4_EENS_10HashTraitsIS4_EES9_NS_10FastMallocEE3addINS_22IdentityHashTranslatorIS9_S7_EELNS_17ShouldValidateKeyE0ERKS4_TkSt9invocableZNSB_3addILSF_0EEENS_18HashTableAddResultINS_17HashTableIteratorISB_S4_S4_S5_S7_S9_S9_EEEESH_EUlvE_EESM_OT1_RKT2_
_ZN3WTF9HashTableIPN3JSC3FTL29ExitTimeObjectMaterializationES4_NS_17IdentityExtractorENS_11DefaultHashIS4_EENS_10HashTraitsIS4_EES9_NS_10FastMallocEE3addINS_22IdentityHashTranslatorIS9_S7_EELNS_17ShouldValidateKeyE0ERKS4_TkSt9invocableZNSB_3addILSF_0EEENS_18HashTableAddResultINS_17HashTableIteratorISB_S4_S4_S5_S7_S9_S9_EEEESH_EUlvE_EESM_OT1_RKT2_
_ZN3WTF9HashTableIPN3JSC6JSCellES3_NS_17IdentityExtractorENS_11DefaultHashIS3_EENS_10HashTraitsIS3_EES8_NS_10FastMallocEE3addINS_22IdentityHashTranslatorIS8_S6_EELNS_17ShouldValidateKeyE0ERKS3_TkSt9invocableZNSA_3addILSE_0EEENS_18HashTableAddResultINS_17HashTableIteratorISA_S3_S3_S4_S6_S8_S8_EEEEOS3_EUlvE_EESL_OT1_RKT2_
_ZN3WTF9HashTableIPN3JSC6JSCellES3_NS_17IdentityExtractorENS_11DefaultHashIS3_EENS_10HashTraitsIS3_EES8_NS_10FastMallocEE3addINS_22IdentityHashTranslatorIS8_S6_EELNS_17ShouldValidateKeyE0ERKS3_TkSt9invocableZNSA_3addILSE_0EEENS_18HashTableAddResultINS_17HashTableIteratorISA_S3_S3_S4_S6_S8_S8_EEEESG_EUlvE_EESL_OT1_RKT2_
_ZN3WTF9HashTableIPN3JSC8Debugger8ObserverES4_NS_17IdentityExtractorENS_11DefaultHashIS4_EENS_10HashTraitsIS4_EES9_NS_10FastMallocEE3addINS_22IdentityHashTranslatorIS9_S7_EELNS_17ShouldValidateKeyE0ERKS4_TkSt9invocableZNSB_3addILSF_0EEENS_18HashTableAddResultINS_17HashTableIteratorISB_S4_S4_S5_S7_S9_S9_EEEEOS4_EUlvE_EESM_OT1_RKT2_
_ZN3WTF9HashTableIPN3JSC8HeapCellES3_NS_17IdentityExtractorENS_11DefaultHashIS3_EENS_10HashTraitsIS3_EES8_NS_10FastMallocEE3addINS_22IdentityHashTranslatorIS8_S6_EELNS_17ShouldValidateKeyE0ERKS3_TkSt9invocableZNSA_3addILSE_0EEENS_18HashTableAddResultINS_17HashTableIteratorISA_S3_S3_S4_S6_S8_S8_EEEEOS3_EUlvE_EESL_OT1_RKT2_
_ZN3WTF9HashTableIPN3JSC9CodeBlockES3_NS_17IdentityExtractorENS_11DefaultHashIS3_EENS_10HashTraitsIS3_EES8_NS_10FastMallocEE3addINS_22IdentityHashTranslatorIS8_S6_EELNS_17ShouldValidateKeyE0ERKS3_TkSt9invocableZNSA_3addILSE_0EEENS_18HashTableAddResultINS_17HashTableIteratorISA_S3_S3_S4_S6_S8_S8_EEEESG_EUlvE_EESL_OT1_RKT2_
_ZN3WTF9HashTableIPN3JSC9StructureES3_NS_17IdentityExtractorENS_11DefaultHashIS3_EENS_10HashTraitsIS3_EES8_NS_10FastMallocEE3addINS_22IdentityHashTranslatorIS8_S6_EELNS_17ShouldValidateKeyE0ERKS3_TkSt9invocableZNSA_3addILSE_0EEENS_18HashTableAddResultINS_17HashTableIteratorISA_S3_S3_S4_S6_S8_S8_EEEESG_EUlvE_EESL_OT1_RKT2_
_ZN3WTF9HashTableImmNS_17IdentityExtractorENS_11DefaultHashImEENS_10HashTraitsImEES5_NS_10FastMallocEE3addINS_22IdentityHashTranslatorIS5_S3_EELNS_17ShouldValidateKeyE0ERKmTkSt9invocableZNS7_3addILSB_0EEENS_18HashTableAddResultINS_17HashTableIteratorIS7_mmS1_S3_S5_S5_EEEEOmEUlvE_EESI_OT1_RKT2_
_ZN3WTF9HashTableIPKN3JSC20AbstractModuleRecordES4_NS_17IdentityExtractorENS_11DefaultHashIS4_EENS_10HashTraitsIS4_EES9_NS_10FastMallocEE6rehashENS_7CheckedIjNS_15CrashOnOverflowEEEPS4_
_ZN3WTF9HashTableIPKN3JSC4Wasm6CalleeES5_NS_17IdentityExtractorENS_11DefaultHashIS5_EENS_10HashTraitsIS5_EESA_NS_10FastMallocEE6rehashENS_7CheckedIjNS_15CrashOnOverflowEEEPS5_
_ZN3WTF9HashTableIPKN3JSC8JSStringES4_NS_17IdentityExtractorENS_11DefaultHashIS4_EENS_10HashTraitsIS4_EES9_NS_10FastMallocEE6rehashENS_7CheckedIjNS_15CrashOnOverflowEEEPS4_
_ZN3WTF9HashTableIPN3JSC11SymbolTableES3_NS_17IdentityExtractorENS_11DefaultHashIS3_EENS_10HashTraitsIS3_EES8_NS_10FastMallocEE6rehashENS_7CheckedIjNS_15CrashOnOverflowEEEPS3_
_ZN3WTF9HashTableIPN3JSC12NativeCalleeES3_NS_17IdentityExtractorENS_11DefaultHashIS3_EENS_10HashTraitsIS3_EES8_NS_10FastMallocEE6rehashENS_7CheckedIjNS_15CrashOnOverflowEEEPS3_
_ZN3WTF9HashTableIPN3JSC13WatchpointSetES3_NS_17IdentityExtractorENS_11DefaultHashIS3_EENS_10HashTraitsIS3_EES8_NS_10FastMallocEE6rehashENS_7CheckedIjNS_15CrashOnOverflowEEEPS3_
_ZN3WTF9HashTableIPN3JSC14JSGlobalObjectES3_NS_17IdentityExtractorENS_11DefaultHashIS3_EENS_10HashTraitsIS3_EES8_NS_10FastMallocEE6rehashENS_7CheckedIjNS_15CrashOnOverflowEEEPS3_
_ZN3WTF9HashTableIPN3JSC15WeakGCHashTableES3_NS_17IdentityExtractorENS_11DefaultHashIS3_EENS_10HashTraitsIS3_EES8_NS_10FastMallocEE6rehashENS_7CheckedIjNS_15CrashOnOverflowEEEPS3_
_ZN3WTF9HashTableIPN3JSC17JSArrayBufferViewES3_NS_17IdentityExtractorENS_11DefaultHashIS3_EENS_10HashTraitsIS3_EES8_NS_10FastMallocEE6rehashENS_7CheckedIjNS_15CrashOnOverflowEEEPS3_
_ZN3WTF9HashTableIPN3JSC18FunctionExecutableES3_NS_17IdentityExtractorENS_11DefaultHashIS3_EENS_10HashTraitsIS3_EES8_NS_10FastMallocEE6rehashENS_7CheckedIjNS_15CrashOnOverflowEEEPS3_
_ZN3WTF9HashTableIPN3JSC19InlineWatchpointSetES3_NS_17IdentityExtractorENS_11DefaultHashIS3_EENS_10HashTraitsIS3_EES8_NS_10FastMallocEE6rehashENS_7CheckedIjNS_15CrashOnOverflowEEEPS3_
_ZN3WTF9HashTableIPN3JSC19JSModuleEnvironmentES3_NS_17IdentityExtractorENS_11DefaultHashIS3_EENS_10HashTraitsIS3_EES8_NS_10FastMallocEE6rehashENS_7CheckedIjNS_15CrashOnOverflowEEEPS3_
_ZN3WTF9HashTableIPN3JSC2B310BasicBlockES4_NS_17IdentityExtractorENS_11DefaultHashIS4_EENS_10HashTraitsIS4_EES9_NS_10FastMallocEE6rehashENS_7CheckedIjNS_15CrashOnOverflowEEEPS4_
_ZN3WTF9HashTableIPN3JSC2B33Air10BasicBlockES5_NS_17IdentityExtractorENS_11DefaultHashIS5_EENS_10HashTraitsIS5_EESA_NS_10FastMallocEE6rehashENS_7CheckedIjNS_15CrashOnOverflowEEEPS5_
_ZN3WTF9HashTableIPN3JSC2B33Air7SpecialES5_NS_17IdentityExtractorENS_11DefaultHashIS5_EENS_10HashTraitsIS5_EESA_NS_10FastMallocEE6rehashENS_7CheckedIjNS_15CrashOnOverflowEEEPS5_
_ZN3WTF9HashTableIPN3JSC2B33Air9StackSlotES5_NS_17IdentityExtractorENS_11DefaultHashIS5_EENS_10HashTraitsIS5_EESA_NS_10FastMallocEE6rehashENS_7CheckedIjNS_15CrashOnOverflowEEEPS5_
_ZN3WTF9HashTableIPN3JSC2B35ValueES4_NS_17IdentityExtractorENS_11DefaultHashIS4_EENS_10HashTraitsIS4_EES9_NS_10FastMallocEE6rehashENS_7CheckedIjNS_15CrashOnOverflowEEEPS4_
_ZN3WTF9HashTableIPN3JSC3DFG10BasicBlockES4_NS_17IdentityExtractorENS_11DefaultHashIS4_EENS_10HashTraitsIS4_EES9_NS_10FastMallocEE6rehashENS_7CheckedIjNS_15CrashOnOverflowEEEPS4_
_ZN3WTF9HashTableIPN3JSC3DFG4NodeES4_NS_17IdentityExtractorENS_11DefaultHashIS4_EENS_10HashTraitsIS4_EES9_NS_10FastMallocEE6rehashENS_7CheckedIjNS_15CrashOnOverflowEEEPS4_
_ZN3WTF9HashTableIPN3JSC3FTL29ExitTimeObjectMaterializationES4_NS_17IdentityExtractorENS_11DefaultHashIS4_EENS_10HashTraitsIS4_EES9_NS_10FastMallocEE6rehashENS_7CheckedIjNS_15CrashOnOverflowEEEPS4_
_ZN3WTF9HashTableIPN3JSC6JSCellES3_NS_17IdentityExtractorENS_11DefaultHashIS3_EENS_10HashTraitsIS3_EES8_NS_10FastMallocEE6rehashENS_7CheckedIjNS_15CrashOnOverflowEEEPS3_
_ZN3WTF9HashTableIPN3JSC8Debugger8ObserverES4_NS_17IdentityExtractorENS_11DefaultHashIS4_EENS_10HashTraitsIS4_EES9_NS_10FastMallocEE6rehashENS_7CheckedIjNS_15CrashOnOverflowEEEPS4_
_ZN3WTF9HashTableIPN3JSC8HeapCellES3_NS_17IdentityExtractorENS_11DefaultHashIS3_EENS_10HashTraitsIS3_EES8_NS_10FastMallocEE6rehashENS_7CheckedIjNS_15CrashOnOverflowEEEPS3_
_ZN3WTF9HashTableIPN3JSC9CodeBlockES3_NS_17IdentityExtractorENS_11DefaultHashIS3_EENS_10HashTraitsIS3_EES8_NS_10FastMallocEE6rehashENS_7CheckedIjNS_15CrashOnOverflowEEEPS3_
_ZN3WTF9HashTableIPN3JSC9StructureES3_NS_17IdentityExtractorENS_11DefaultHashIS3_EENS_10HashTraitsIS3_EES8_NS_10FastMallocEE6rehashENS_7CheckedIjNS_15CrashOnOverflowEEEPS3_
_ZN3WTF9HashTableImmNS_17IdentityExtractorENS_11DefaultHashImEENS_10HashTraitsImEES5_NS_10FastMallocEE6rehashENS_7CheckedIjNS_15CrashOnOverflowEEEPm
_ZN3WTF9HashTableIPN3JSC11SymbolTableENS_12KeyValuePairIS3_NS1_4WeakIS2_EEEENS_24KeyValuePairKeyExtractorIS7_EENS_11DefaultHashIS3_EENS_7HashMapIS3_S6_SB_NS_10HashTraitsIS3_EENSD_IS6_EENS_15HashTableTraitsELNS_17ShouldValidateKeyE0ENS_10FastMallocEE18KeyValuePairTraitsESE_SI_E3addINS_17HashMapTranslatorISK_SB_EELSH_0ERKS3_TkSt9invocableZNSJ_9inlineAddISQ_S6_EENS_18HashTableAddResultINS_17HashTableIteratorISL_S3_S7_S9_SB_SK_SE_EEEEOT_OT0_EUlvE_EESV_OT1_RKT2_
_ZN3WTF9HashTableIPNS_10SymbolImplENS_12KeyValuePairIS2_N3JSC4WeakINS4_6SymbolEEEEENS_24KeyValuePairKeyExtractorIS8_EENS_7PtrHashIS2_EENS_7HashMapIS2_S7_SC_NS_10HashTraitsIS2_EENSE_IS7_EENS_15HashTableTraitsELNS_17ShouldValidateKeyE0ENS_10FastMallocEE18KeyValuePairTraitsESF_SJ_E3addINS_17HashMapTranslatorISL_SC_EELSI_0ERKS2_TkSt9invocableZNSK_9inlineAddISR_S7_EENS_18HashTableAddResultINS_17HashTableIteratorISM_S2_S8_SA_SC_SL_SF_EEEEOT_OT0_EUlvE_EESW_OT1_RKT2_
_ZN3WTF9HashTableIPKN3JSC4Wasm3RTTENS_12KeyValuePairIS5_NS1_4WeakINS1_22WebAssemblyGCStructureEEEEENS_24KeyValuePairKeyExtractorISA_EENS_7PtrHashIS5_EENS_7HashMapIS5_S9_SE_NS_10HashTraitsIS5_EENSG_IS9_EENS_15HashTableTraitsELNS_17ShouldValidateKeyE0ENS_10FastMallocEE18KeyValuePairTraitsESH_SL_E6rehashENS_7CheckedIjNS_15CrashOnOverflowEEEPSA_
_ZN3WTF9HashTableIPN3JSC11SymbolTableENS_12KeyValuePairIS3_NS1_4WeakIS2_EEEENS_24KeyValuePairKeyExtractorIS7_EENS_11DefaultHashIS3_EENS_7HashMapIS3_S6_SB_NS_10HashTraitsIS3_EENSD_IS6_EENS_15HashTableTraitsELNS_17ShouldValidateKeyE0ENS_10FastMallocEE18KeyValuePairTraitsESE_SI_E6rehashENS_7CheckedIjNS_15CrashOnOverflowEEEPS7_
_ZN3WTF9HashTableIPNS_10StringImplENS_12KeyValuePairIS2_N3JSC4WeakINS4_8JSStringEEEEENS_24KeyValuePairKeyExtractorIS8_EENS_7PtrHashIS2_EENS_7HashMapIS2_S7_SC_NS_10HashTraitsIS2_EENSE_IS7_EENS_15HashTableTraitsELNS_17ShouldValidateKeyE0ENS_10FastMallocEE18KeyValuePairTraitsESF_SJ_E6rehashENS_7CheckedIjNS_15CrashOnOverflowEEEPS8_
_ZN3WTF9HashTableIPNS_10SymbolImplENS_12KeyValuePairIS2_N3JSC4WeakINS4_6SymbolEEEEENS_24KeyValuePairKeyExtractorIS8_EENS_7PtrHashIS2_EENS_7HashMapIS2_S7_SC_NS_10HashTraitsIS2_EENSE_IS7_EENS_15HashTableTraitsELNS_17ShouldValidateKeyE0ENS_10FastMallocEE18KeyValuePairTraitsESF_SJ_E6rehashENS_7CheckedIjNS_15CrashOnOverflowEEEPS8_
_ZN3JSC9CodeBlock13visitChildrenINS_19AbstractSlotVisitorEEEvRT_
_ZN3JSC9CodeBlock29stronglyVisitStrongReferencesINS_19AbstractSlotVisitorEEEvRKNS_18ConcurrentJSLockerERT_
_ZN3JSC9CodeBlock27stronglyVisitWeakReferencesINS_19AbstractSlotVisitorEEEvRKNS_18ConcurrentJSLockerERT_
_ZN3JSC9CodeBlock26forEachPropertyInlineCacheIZNS0_29stronglyVisitStrongReferencesINS_19AbstractSlotVisitorEEEvRKNS_18ConcurrentJSLockerERT_EUlRNS_19PropertyInlineCacheEE_EEvS7_
_ZN3JSC9DateCache19timeZoneDisplayNameEb
_ZN3JSC9DateCacheC1Ev
_ZN3JSC9DateCacheC2Ev
_ZN3JSC9DateCacheD1Ev
_ZN3JSC9DateCacheD2Ev
_ZN3JSC9DateCache22cachedDateInstanceDataEd
_ZN3JSC9DateCache17timeZoneCacheSlowEv
_ZN3JSC9DateCache20resetIfNecessarySlowEv
_ZN3JSC9DateCache8DSTCacheC2Ev
_ZNSt5arrayIN3JSC17DateInstanceCache10CacheEntryELm16EED2Ev
_ZN3JSC18BuiltinExecutables16createExecutableERNS_2VMERKNS_10SourceCodeERKNS_10IdentifierENS_24ImplementationVisibilityENS_15ConstructorKindENS_16ConstructAbilityENS_15InlineAttributeENS_26NeedsClassFieldInitializerENS_23PrivateBrandRequirementE
_ZN3JSC18BuiltinExecutablesC1ERNS_2VME
_ZN3JSC18BuiltinExecutablesC2ERNS_2VME
_ZN3JSC18BuiltinExecutables28defaultConstructorSourceCodeENS_15ConstructorKindE
_ZN3JSC18BuiltinExecutables24createDefaultConstructorENS_15ConstructorKindERKNS_10IdentifierENS_26NeedsClassFieldInitializerENS_23PrivateBrandRequirementE
_ZN3WTF13StringBuilder24extendBufferForAppendingIhEESt4spanIT_Lm18446744073709551615EEj
_ZN3WTF10StringImplD1Ev
_ZN3WTF10StringImplD2Ev
_ZN3WTF10StringImpl7destroyEPS0_
_ZN3WTF10StringImpl28createWithoutCopyingNonEmptyESt4spanIKDsLm18446744073709551615EE
_ZN3WTF10StringImpl28createWithoutCopyingNonEmptyESt4spanIKhLm18446744073709551615EE
_ZN3WTF10StringImpl19createUninitializedEmRSt4spanIhLm18446744073709551615EE
_ZN3WTF10StringImpl19createUninitializedEmRSt4spanIDsLm18446744073709551615EE
_ZN3JSCL19tryCreateAttributesERNS_2VMEPNS_24ImportAttributesListNodeE
_ZN3JSC24ExportAllDeclarationNode13analyzeModuleERNS_14ModuleAnalyzerE
_ZN3JSC26ExportNamedDeclarationNode13analyzeModuleERNS_14ModuleAnalyzerE
_ZN3JSC11ParserArenaD1Ev
_ZN3JSC11ParserArenaD2Ev
_ZN3JSC11ParserArena20allocateFreeablePoolEv
_ZN3JSC15IdentifierArena27makeBigIntDecimalIdentifierERNS_2VMERKNS_10IdentifierEh
_ZN3JSC15IdentifierArena21makePrivateIdentifierERNS_2VMEN3WTF12ASCIILiteralEj
_ZN3JSC14SourceProviderC2ERKNS_12SourceOriginEON3WTF6StringES6_NS_19SourceTaintedOriginERKNS4_12TextPositionENS_24SourceProviderSourceTypeE
_ZN3JSC14SourceProvider20lockUnderlyingBufferEv
_ZN3JSC14SourceProvider22unlockUnderlyingBufferEv
_ZN3JSC14SourceProvider25codeBlockHashConcurrentlyEiiNS_22CodeSpecializationKindE
_ZN3JSC14SourceProvider5getIDEv
_ZN3JSC14SourceProvider17sourceURLStrippedEv
_ZN3WTF3URLC2ERKNS_6StringEPKNS_15URLTextEncodingE
_ZN3JSC14SourceProvider22sourceCodeDumpFilePathERKN3WTF7CStringE
_ZN3WTF4Xsum9XsumSmall7computeEv
_ZN3WTF4Xsum9XsumLargeC1Ev
_ZN3WTF4Xsum9XsumLargeC2Ev
_ZN3WTF4Xsum9XsumLarge7addListESt4spanIKdLm18446744073709551615EE
_ZN3WTF4Xsum9XsumLarge3addEd
_ZN3WTF4Xsum9XsumLarge7computeEv
_ZN3WTF4Xsum9XsumSmallD0Ev
_ZN3WTF4Xsum9XsumLargeD2Ev
_ZN3WTF4Xsum9XsumLargeD0Ev
_ZN3JSC24runMicrotaskWithDebuggerEPNS_14JSGlobalObjectERNS_2VMERNS_10QueuedTaskE
_ZN3JSC16DeferTerminationILNS_7VMTraps11DeferActionE0EEC2ERNS_2VME
_ZN3JSC16DeferTerminationILNS_7VMTraps11DeferActionE0EED2Ev
_ZN3JSC29DebuggableMicrotaskDispatcher3runERNS_10QueuedTaskE
_ZN3JSC14MicrotaskQueue6createERNS_2VME
_ZN3JSC14MicrotaskQueueD1Ev
_ZN3JSC14MicrotaskQueueD2Ev
_ZN3JSC14MicrotaskQueueD0Ev
_ZN3JSC14MicrotaskQueue14visitAggregateERNS_19AbstractSlotVisitorE
_ZN3JSC14MicrotaskQueue14visitAggregateERNS_11SlotVisitorE
_ZN3JSC14MicrotaskQueue11enqueueSlowEONS_10QueuedTaskE
_ZN3JSC2VM14throwExceptionEPNS_14JSGlobalObjectENS_7JSValueE
_ZN3JSC2VM24setStackPointerAtVMEntryEPv
_ZN3JSC2VM17updateStackLimitsEv
_ZN3JSC2VM24gatherScratchBufferRootsERNS_17ConservativeRootsE
_ZNK3JSC2VM13scanSideStateERNS_17ConservativeRootsE
_ZN3JSC2VM26pushCheckpointOSRSideStateEOSt10unique_ptrINS_26CheckpointOSRExitSideStateESt14default_deleteIS2_EE
_ZN3JSC2VM25popCheckpointOSRSideStateEPNS_9CallFrameE
_ZN3JSC2VM33popAllCheckpointOSRSideStateUntilEPNS_9CallFrameE
_ZN3JSC2VM36ensureWatchpointSetForImpurePropertyEPN3WTF17UniquedStringImplE
_ZN3JSC2VM19disableTypeProfilerEv
_ZN3JSC2VM26disableControlFlowProfilerEv
_ZN3JSC2VM28callPromiseRejectionCallbackERNS_6StrongINS_9JSPromiseELNS_30ShouldStrongDestructorGrabLockE0EEE
_ZNK3JSC10StackFrame17sourceURLStrippedERNS_2VME
_ZNK3JSC10StackFrame12functionNameERNS_2VME
_ZNK3JSC10StackFrame20computeLineAndColumnEv
_ZNK3JSC10StackFrame8toStringERNS_2VME
_ZN3JSC12StackManager11requestStopEv
_ZN3JSC12StackManager10cancelStopEv
_ZN3JSC12StackManager17setStackSoftLimitEPv
_ZN3JSC12StackManager14registerMirrorERNS0_6MirrorE
_ZN3JSC12StackManager16unregisterMirrorERNS0_6MirrorE
_ZN3JSC14JSRunLoopTimer7Manager12timerDidFireEv
_ZN3JSC14JSRunLoopTimer7Manager9PerVMDataD1Ev
_ZN3JSC14JSRunLoopTimer7Manager9PerVMDataD2Ev
_ZN3JSC14JSRunLoopTimer12timerDidFireEv
_ZN3JSC14JSRunLoopTimer7Manager9singletonEv
_ZN3JSC14JSRunLoopTimer7Manager10registerVMERNS_2VME
_ZN3JSC14JSRunLoopTimer7Manager12unregisterVMERNS_2VME
_ZN3JSC14JSRunLoopTimer7Manager13scheduleTimerERS0_N3WTF7SecondsE
_ZN3JSC25JSSegmentedVariableObject13visitChildrenEPNS_6JSCellERNS_11SlotVisitorE
_ZN3JSC25JSSegmentedVariableObject13visitChildrenEPNS_6JSCellERNS_19AbstractSlotVisitorE
_ZN3JSC25JSSegmentedVariableObject12addVariablesEjNS_7JSValueE
_ZN3JSC25JSSegmentedVariableObject17visitChildrenImplINS_11SlotVisitorEEEvPNS_6JSCellERT_
_ZN3JSC25JSSegmentedVariableObjectC1ERNS_2VMEPNS_9StructureEPNS_7JSScopeE
_ZN3JSC25JSSegmentedVariableObjectC2ERNS_2VMEPNS_9StructureEPNS_7JSScopeE
_ZN3JSC25JSSegmentedVariableObjectD1Ev
_ZN3JSC25JSSegmentedVariableObjectD2Ev
_ZN3JSC25JSSegmentedVariableObject14finishCreationERNS_2VME
_ZN3JSC19JSSymbolTableObject14setSymbolTableERNS_2VMEPNS_11SymbolTableE
_ZN3JSC5JSSet5cloneEPNS_14JSGlobalObjectERNS_2VMEPNS_9StructureE
_ZN3JSC5JSSet25isAddFastAndNonObservableEPNS_9StructureE
_ZSt11make_uniqueIN3WTF7RunLoop5TimerEJRS1_NS0_12ASCIILiteralEPN3JSC14JSRunLoopTimer7ManagerEMS7_FvvEEENSt8__detail9_MakeUniqIT_E15__single_objectEDpOT0_
_ZN3WTF6Detail15CallableWrapperIZNS_7RunLoop5TimerC1IN3JSC14JSRunLoopTimer7ManagerEQaaaantsr3WTF29HasThreadSafeWeakPtrFunctionsIT_EE5valuentsr3WTF19HasWeakPtrFunctionsIS8_EE5valuesr3WTF28HasCheckedPtrMemberFunctionsIS8_EE5valueEEONS_3RefIS2_NS_12RawPtrTraitsIS2_EENS_21DefaultRefDerefTraitsIS2_EEEENS_12ASCIILiteralEPS8_MS8_FvvEEUlvE_vJEED2Ev
_ZN3WTF6Detail15CallableWrapperIZNS_7RunLoop5TimerC1IN3JSC14JSRunLoopTimer7ManagerEQaaaantsr3WTF29HasThreadSafeWeakPtrFunctionsIT_EE5valuentsr3WTF19HasWeakPtrFunctionsIS8_EE5valuesr3WTF28HasCheckedPtrMemberFunctionsIS8_EE5valueEEONS_3RefIS2_NS_12RawPtrTraitsIS2_EENS_21DefaultRefDerefTraitsIS2_EEEENS_12ASCIILiteralEPS8_MS8_FvvEEUlvE_vJEED0Ev
_ZN3WTF6Detail15CallableWrapperIZNS_7RunLoop5TimerC1IN3JSC14JSRunLoopTimer7ManagerEQaaaantsr3WTF29HasThreadSafeWeakPtrFunctionsIT_EE5valuentsr3WTF19HasWeakPtrFunctionsIS8_EE5valuesr3WTF28HasCheckedPtrMemberFunctionsIS8_EE5valueEEONS_3RefIS2_NS_12RawPtrTraitsIS2_EENS_21DefaultRefDerefTraitsIS2_EEEENS_12ASCIILiteralEPS8_MS8_FvvEEUlvE_vJEE4callEv
_ZN3WTF6Detail15CallableWrapperIZN3JSC14JSRunLoopTimer7Manager9PerVMDataD1EvE3$_0vJEED2Ev
_ZN3WTF6Detail15CallableWrapperIZN3JSC14JSRunLoopTimer7Manager9PerVMDataD1EvE3$_0vJEED0Ev
_ZZNSt9once_flag18_Prepare_executionC1IZSt9call_onceIZN3JSC14JSRunLoopTimer7Manager9singletonEvE3$_0JEEvRS_OT_DpOT0_EUlvE_EERS8_ENUlvE_8__invokeEv
_ZN3WTF9HashTableINS_3RefIN3JSC6JSLockENS_12RawPtrTraitsIS3_EENS_21DefaultRefDerefTraitsIS3_EEEENS_12KeyValuePairIS8_St10unique_ptrINS2_14JSRunLoopTimer7Manager9PerVMDataESt14default_deleteISD_EEEENS_24KeyValuePairKeyExtractorISH_EENS_11DefaultHashIS8_EENS_7HashMapIS8_SG_SL_NS_10HashTraitsIS8_EENSN_ISG_EENS_15HashTableTraitsELNS_17ShouldValidateKeyE0ENS_10FastMallocEE18KeyValuePairTraitsESO_SS_E3addINS_17HashMapTranslatorISU_SL_EELSR_0ES8_TkSt9invocableZNST_9inlineAddIS8_SG_EENS_18HashTableAddResultINS_17HashTableIteratorISV_S8_SH_SJ_SL_SU_SO_EEEEOT_OT0_EUlvE_EES13_OT1_RKT2_
_ZN3WTF9HashTableINS_3RefIN3JSC6JSLockENS_12RawPtrTraitsIS3_EENS_21DefaultRefDerefTraitsIS3_EEEENS_12KeyValuePairIS8_St10unique_ptrINS2_14JSRunLoopTimer7Manager9PerVMDataESt14default_deleteISD_EEEENS_24KeyValuePairKeyExtractorISH_EENS_11DefaultHashIS8_EENS_7HashMapIS8_SG_SL_NS_10HashTraitsIS8_EENSN_ISG_EENS_15HashTableTraitsELNS_17ShouldValidateKeyE0ENS_10FastMallocEE18KeyValuePairTraitsESO_SS_E6rehashENS_7CheckedIjNS_15CrashOnOverflowEEEPSH_
_RNvMs_NtNtCs1yUlXPGwCKD_11bun_runtime5timer9wtf_timerNtB4_8WTFTimer6cancel
WTFTimer__create
WTFTimer__deinit
WTFTimer__isActive
WTFTimer__update
WebCore__alert
_ZN3JSC8JSString17visitChildrenImplINS_11SlotVisitorEEEvPNS_6JSCellERT_
_ZN3WTF6Thread16currentSingletonEv
_Z16WTFCrashWithInfoIllllEviPKcS1_T_T0_T1_T2_
_ZN3JSC2VM26updateSoftReservedZoneSizeEm
_ZN3JSC2VM15setLastStackTopERKN3WTF6ThreadE
_ZN3JSC16JSOrderedHashMap14createSentinelERNS_2VME
_ZN3JSC2VM33primitiveGigacageDisabledCallbackEPv
_ZNSt10unique_ptrIN3JSC8Profiler8DatabaseESt14default_deleteIS2_EEaSEOS5_
_ZNSt10unique_ptrIN3JSC8Profiler8DatabaseESt14default_deleteIS2_EED2Ev
_ZN3WTF11PrintStream5printIJPKcA2_cEEEvDpRKT_
_ZN3WTF11PrintStream5printIJA12_ciA2_cNS_23ObjectIdentifierGenericIN3JSC8Profiler14DatabaseIDTypeENS_38ObjectIdentifierThreadSafeAccessTraitsImEEmEEA6_cEEEvDpRKT_
_ZN3JSC2VM18enableTypeProfilerEv
_ZN3JSC2VM25enableControlFlowProfilerEv
_ZN3JSC2VM22ensureSamplingProfilerEON3WTF3RefINS1_9StopwatchENS1_12RawPtrTraitsIS3_EENS1_21DefaultRefDerefTraitsIS3_EEEE
_ZN3JSC8Watchdog12setTimeLimitEN3WTF7SecondsEPFbPNS_14JSGlobalObjectEPvS5_ES5_S5_
_ZN3JSC2VM16getBoundFunctionEbNS_19SourceTaintedOriginE
_ZN3WTF7RunLoop19RunLoopGenericState7runImplENS1_7RunModeE
UDPSocketPrototype__setMulticastInterface
UDPSocketPrototype__setMulticastLoopback
UDPSocketPrototype__setMulticastTTL
_RNvMs0_NtNtCs1yUlXPGwCKD_11bun_runtime6socket16udp_socket_draftNtB5_9UDPSocket11set_any_ttl
UDPSocketPrototype__setTTL
UDPSocketPrototype__unref
WTFTimer__cancel
_ZN3WTF9HashTableIN3JSC11StructureIDES2_NS_17IdentityExtractorENS_11DefaultHashIS2_EENS_10HashTraitsIS2_EES7_NS_10FastMallocEE20computeBestTableSizeEj
_ZN3WTF9HashTableIN3JSC12PrototypeKeyENS_12KeyValuePairIS2_NS1_4WeakINS1_9StructureEEEEENS_24KeyValuePairKeyExtractorIS7_EENS_11DefaultHashIS2_EENS_7HashMapIS2_S6_SB_NS_10HashTraitsIS2_EENSD_IS6_EENS_15HashTableTraitsELNS_17ShouldValidateKeyE0ENS_10FastMallocEE18KeyValuePairTraitsESE_SI_E20computeBestTableSizeEj
_ZN3WTF9HashTableIN3JSC13BytecodeIndexENS_12KeyValuePairIS2_PNS1_7JSValueEEENS_24KeyValuePairKeyExtractorIS6_EENS_11DefaultHashIS2_EENS_7HashMapIS2_S5_SA_NS_10HashTraitsIS2_EENSC_IS5_EENS_15HashTableTraitsELNS_17ShouldValidateKeyE0ENS_10FastMallocEE18KeyValuePairTraitsESD_SH_E20computeBestTableSizeEj
_ZN3WTF9HashTableIN3JSC23ObjectPropertyConditionES2_NS_17IdentityExtractorENS_11DefaultHashIS2_EENS_10HashTraitsIS2_EES7_NS_10FastMallocEE20computeBestTableSizeEj
_ZN3WTF9HashTableIN3JSC24StructureTransitionTable4Hash3KeyENS_12KeyValuePairIS4_NS1_4WeakINS1_9StructureEEEEENS_24KeyValuePairKeyExtractorIS9_EES3_NS_7HashMapIS4_S8_S3_NS_21SimpleClassHashTraitsIS4_EENS_10HashTraitsIS8_EENS_15HashTableTraitsELNS_17ShouldValidateKeyE0ENS_10FastMallocEE18KeyValuePairTraitsESE_SJ_E20computeBestTableSizeEj
_ZN3WTF9HashTableIN3JSC3DFG12AbstractHeapENS_12KeyValuePairIS3_PNS2_4NodeEEENS_24KeyValuePairKeyExtractorIS7_EENS_11DefaultHashIS3_EENS_7HashMapIS3_S6_SB_NS_10HashTraitsIS3_EENSD_IS6_EENS_15HashTableTraitsELNS_17ShouldValidateKeyE0ENS_10FastMallocEE18KeyValuePairTraitsESE_SI_E20computeBestTableSizeEj
_ZN3WTF9HashTableIN3JSC3DFG12AbstractHeapENS_12KeyValuePairIS3_bEENS_24KeyValuePairKeyExtractorIS5_EENS_11DefaultHashIS3_EENS_7HashMapIS3_bS9_NS_10HashTraitsIS3_EENSB_IbEENS_15HashTableTraitsELNS_17ShouldValidateKeyE0ENS_10FastMallocEE18KeyValuePairTraitsESC_SG_E20computeBestTableSizeEj
_ZN3WTF9HashTableIN3JSC3DFG18NodeFlowProjectionENS_12KeyValuePairIS3_NS2_13AbstractValueEEENS_24KeyValuePairKeyExtractorIS6_EENS_11DefaultHashIS3_EENS_7HashMapIS3_S5_SA_NS_10HashTraitsIS3_EENSC_IS5_EENS_15HashTableTraitsELNS_17ShouldValidateKeyE0ENS_10FastMallocEE18KeyValuePairTraitsESD_SH_E20computeBestTableSizeEj
_ZN3WTF9HashTableIN3JSC3DFG20PromotedHeapLocationENS_12KeyValuePairIS3_NS2_12AvailabilityEEENS_24KeyValuePairKeyExtractorIS6_EENS_11DefaultHashIS3_EENS_7HashMapIS3_S5_SA_NS_10HashTraitsIS3_EENSC_IS5_EENS_15HashTableTraitsELNS_17ShouldValidateKeyE0ENS_10FastMallocEE18KeyValuePairTraitsESD_SH_E20computeBestTableSizeEj
_ZN3WTF9HashTableIN3JSC3DFG21DesiredGlobalPropertyES3_NS_17IdentityExtractorENS_11DefaultHashIS3_EENS_10HashTraitsIS3_EES8_NS_10FastMallocEE20computeBestTableSizeEj
_ZN3WTF9HashTableIN3JSC3DFG26PromotedLocationDescriptorENS_12KeyValuePairIS3_PNS2_4NodeEEENS_24KeyValuePairKeyExtractorIS7_EENS_11DefaultHashIS3_EENS_7HashMapIS3_S6_SB_NS_10HashTraitsIS3_EENSD_IS6_EENS_15HashTableTraitsELNS_17ShouldValidateKeyE0ENS_10FastMallocEE18KeyValuePairTraitsESE_SI_E20computeBestTableSizeEj
_ZN3WTF9HashTableIN3JSC4Wasm23CanonicalSingletonEntryES3_NS_17IdentityExtractorENS_11DefaultHashIS3_EENS_10HashTraitsIS3_EES8_NS_10FastMallocEE20computeBestTableSizeEj
_ZN3WTF9HashTableIN3JSC4Wasm28CanonicalRecursionGroupEntryES3_NS_17IdentityExtractorENS2_32CanonicalRecursionGroupEntryHashENS_10HashTraitsIS3_EES7_NS_10FastMallocEE20computeBestTableSizeEj
_ZN3WTF9HashTableIN3JSC4WeakINS1_21JSWebAssemblyInstanceEEES4_NS_17IdentityExtractorENS1_13WeakGCSetHashIS3_EENS1_19WeakGCSetHashTraitsIS3_EES9_NS_10FastMallocEE20computeBestTableSizeEj
_ZN3WTF9HashTableIN3JSC4WeakINS1_22JSCustomGetterFunctionEEES4_NS_17IdentityExtractorENS1_14JSGlobalObject28WeakCustomGetterOrSetterHashIS3_EENS1_19WeakGCSetHashTraitsIS3_EESA_NS_10FastMallocEE20computeBestTableSizeEj
_ZN3WTF9HashTableIN3JSC4WeakINS1_22JSCustomSetterFunctionEEES4_NS_17IdentityExtractorENS1_14JSGlobalObject28WeakCustomGetterOrSetterHashIS3_EENS1_19WeakGCSetHashTraitsIS3_EESA_NS_10FastMallocEE20computeBestTableSizeEj
_ZN3WTF9HashTableINS_3RefIN3JSC17DeferredWorkTimer10TicketDataENS_12RawPtrTraitsIS4_EENS_21DefaultRefDerefTraitsIS4_EEEES9_NS_17IdentityExtractorENS_11DefaultHashIS9_EENS_10HashTraitsIS9_EESE_NS_10FastMallocEE20computeBestTableSizeEj
_ZN3WTF9HashTableINS_3RefIN3JSC4Wasm6CalleeENS_12RawPtrTraitsIS4_EENS_21DefaultRefDerefTraitsIS4_EEEES9_NS_17IdentityExtractorENS_11DefaultHashIS9_EENS_10HashTraitsIS9_EESE_NS_10FastMallocEE20computeBestTableSizeEj
_ZN3WTF9HashTableINS_6RefPtrINS_17UniquedStringImplENS_12RawPtrTraitsIS2_EENS_21DefaultRefDerefTraitsIS2_EEEENS_12KeyValuePairIS7_N3JSC16PrivateNameEntryEEENS_24KeyValuePairKeyExtractorISB_EENS9_17IdentifierRepHashENS_7HashMapINS1_IS2_NS_15PackedPtrTraitsIS2_EES6_EESA_SE_NS_10HashTraitsIS7_EENS9_26PrivateNameEntryHashTraitsENS_15HashTableTraitsELNS_17ShouldValidateKeyE0ENS_10FastMallocEE18KeyValuePairTraitsESK_SO_E20computeBestTableSizeEj
_ZN3WTF9HashTableINS_6RefPtrINS_17UniquedStringImplENS_12RawPtrTraitsIS2_EENS_21DefaultRefDerefTraitsIS2_EEEENS_12KeyValuePairIS7_N3JSC17BytecodeGenerator17TDZNecessityLevelEEENS_24KeyValuePairKeyExtractorISC_EENS9_17IdentifierRepHashENS_7HashMapIS7_SB_SF_NS_10HashTraitsIS7_EENSH_ISB_EENS_15HashTableTraitsELNS_17ShouldValidateKeyE0ENS_10FastMallocEE18KeyValuePairTraitsESI_SM_E20computeBestTableSizeEj
_ZN3WTF9HashTableINS_6RefPtrINS_17UniquedStringImplENS_12RawPtrTraitsIS2_EENS_21DefaultRefDerefTraitsIS2_EEEES7_NS_17IdentityExtractorEN3JSC17IdentifierRepHashENS_10HashTraitsIS7_EESC_NS_10FastMallocEE20computeBestTableSizeEj
_ZN3WTF9HashTableINS_6StringENS_12KeyValuePairIS1_MN9Inspector21HeapBackendDispatcherEFvlONS_6RefPtrINS_8JSONImpl6ObjectENS_12RawPtrTraitsIS7_EENS_21DefaultRefDerefTraitsIS7_EEEEEEENS_24KeyValuePairKeyExtractorISG_EENS_11DefaultHashIS1_EENS_7HashMapIS1_SF_SK_NS_10HashTraitsIS1_EENSM_ISF_EENS_15HashTableTraitsELNS_17ShouldValidateKeyE1ENS_10FastMallocEE18KeyValuePairTraitsESN_SR_E20computeBestTableSizeEj
_ZN3WTF9HashTableINS_6StringENS_12KeyValuePairIS1_MN9Inspector24ConsoleBackendDispatcherEFvlONS_6RefPtrINS_8JSONImpl6ObjectENS_12RawPtrTraitsIS7_EENS_21DefaultRefDerefTraitsIS7_EEEEEEENS_24KeyValuePairKeyExtractorISG_EENS_11DefaultHashIS1_EENS_7HashMapIS1_SF_SK_NS_10HashTraitsIS1_EENSM_ISF_EENS_15HashTableTraitsELNS_17ShouldValidateKeyE1ENS_10FastMallocEE18KeyValuePairTraitsESN_SR_E20computeBestTableSizeEj
_ZN3WTF9HashTableINS_6StringENS_12KeyValuePairIS1_MN9Inspector24RuntimeBackendDispatcherEFvlONS_6RefPtrINS_8JSONImpl6ObjectENS_12RawPtrTraitsIS7_EENS_21DefaultRefDerefTraitsIS7_EEEEEEENS_24KeyValuePairKeyExtractorISG_EENS_11DefaultHashIS1_EENS_7HashMapIS1_SF_SK_NS_10HashTraitsIS1_EENSM_ISF_EENS_15HashTableTraitsELNS_17ShouldValidateKeyE1ENS_10FastMallocEE18KeyValuePairTraitsESN_SR_E20computeBestTableSizeEj
_ZN3WTF9HashTableINS_6StringENS_12KeyValuePairIS1_MN9Inspector25DebuggerBackendDispatcherEFvlONS_6RefPtrINS_8JSONImpl6ObjectENS_12RawPtrTraitsIS7_EENS_21DefaultRefDerefTraitsIS7_EEEEEEENS_24KeyValuePairKeyExtractorISG_EENS_11DefaultHashIS1_EENS_7HashMapIS1_SF_SK_NS_10HashTraitsIS1_EENSM_ISF_EENS_15HashTableTraitsELNS_17ShouldValidateKeyE1ENS_10FastMallocEE18KeyValuePairTraitsESN_SR_E20computeBestTableSizeEj
_ZN3WTF9HashTableINS_6StringENS_12KeyValuePairIS1_MN9Inspector31RemoteInspectorConnectionClientEFvRKNS4_5EventEEEENS_24KeyValuePairKeyExtractorISA_EENS_11DefaultHashIS1_EENS_7HashMapIS1_S9_SE_NS_10HashTraitsIS1_EENSG_IS9_EENS_15HashTableTraitsELNS_17ShouldValidateKeyE1ENS_10FastMallocEE18KeyValuePairTraitsESH_SL_E20computeBestTableSizeEj
_ZN3WTF9HashTableINS_6StringES1_NS_17IdentityExtractorENS_11DefaultHashIS1_EENS_10HashTraitsIS1_EES6_NS_10FastMallocEE20computeBestTableSizeEj
_ZN3WTF9HashTableIPKN3JSC4Wasm3RTTENS_12KeyValuePairIS5_NS1_4WeakINS1_22WebAssemblyGCStructureEEEEENS_24KeyValuePairKeyExtractorISA_EENS_7PtrHashIS5_EENS_7HashMapIS5_S9_SE_NS_10HashTraitsIS5_EENSG_IS9_EENS_15HashTableTraitsELNS_17ShouldValidateKeyE0ENS_10FastMallocEE18KeyValuePairTraitsESH_SL_E20computeBestTableSizeEj
_ZN3WTF9HashTableIPN3JSC11SymbolTableENS_12KeyValuePairIS3_NS1_4WeakIS2_EEEENS_24KeyValuePairKeyExtractorIS7_EENS_11DefaultHashIS3_EENS_7HashMapIS3_S6_SB_NS_10HashTraitsIS3_EENSD_IS6_EENS_15HashTableTraitsELNS_17ShouldValidateKeyE0ENS_10FastMallocEE18KeyValuePairTraitsESE_SI_E20computeBestTableSizeEj
_ZN3WTF9HashTableIPN3JSC11SymbolTableES3_NS_17IdentityExtractorENS_11DefaultHashIS3_EENS_10HashTraitsIS3_EES8_NS_10FastMallocEE20computeBestTableSizeEj
_ZN3WTF9HashTableIPN3JSC13WatchpointSetES3_NS_17IdentityExtractorENS_11DefaultHashIS3_EENS_10HashTraitsIS3_EES8_NS_10FastMallocEE20computeBestTableSizeEj
_ZN3WTF9HashTableIPN3JSC15InlineCallFrameES3_NS_17IdentityExtractorENS_11DefaultHashIS3_EENS_18NullableHashTraitsIS3_EES8_NS_10FastMallocEE20computeBestTableSizeEj
_ZN3WTF9HashTableIPN3JSC17JSArrayBufferViewES3_NS_17IdentityExtractorENS_11DefaultHashIS3_EENS_10HashTraitsIS3_EES8_NS_10FastMallocEE20computeBestTableSizeEj
_ZN3WTF9HashTableIPN3JSC18FunctionExecutableES3_NS_17IdentityExtractorENS_11DefaultHashIS3_EENS_10HashTraitsIS3_EES8_NS_10FastMallocEE20computeBestTableSizeEj
_ZN3WTF9HashTableIPN3JSC19InlineWatchpointSetES3_NS_17IdentityExtractorENS_11DefaultHashIS3_EENS_10HashTraitsIS3_EES8_NS_10FastMallocEE20computeBestTableSizeEj
_ZN3WTF9HashTableIPN3JSC2B35ValueENS_12KeyValuePairIS4_NS_6VectorIS4_Lm1ENS_15CrashOnOverflowELm16ENS_10FastMallocEEEEENS_24KeyValuePairKeyExtractorISA_EENS_11DefaultHashIS4_EENS_7HashMapIS4_S9_SE_NS_10HashTraitsIS4_EENSG_IS9_EENS_15HashTableTraitsELNS_17ShouldValidateKeyE0ES8_E18KeyValuePairTraitsESH_S8_E20computeBestTableSizeEj
_ZN3WTF9HashTableIPN3JSC2B35ValueENS_12KeyValuePairIS4_S4_EENS_24KeyValuePairKeyExtractorIS6_EENS_11DefaultHashIS4_EENS_7HashMapIS4_S4_SA_NS_10HashTraitsIS4_EESD_NS_15HashTableTraitsELNS_17ShouldValidateKeyE0ENS_10FastMallocEE18KeyValuePairTraitsESD_SG_E20computeBestTableSizeEj
_ZN3WTF9HashTableIPN3JSC2B35ValueES4_NS_17IdentityExtractorENS_11DefaultHashIS4_EENS_10HashTraitsIS4_EES9_NS_10FastMallocEE20computeBestTableSizeEj
_ZN3WTF9HashTableIPN3JSC3DFG4NodeENS_12KeyValuePairIS4_NS2_12_GLOBAL__N_110AllocationEEENS_24KeyValuePairKeyExtractorIS8_EENS_11DefaultHashIS4_EENS_7HashMapIS4_S7_SC_NS_10HashTraitsIS4_EENSE_IS7_EENS_15HashTableTraitsELNS_17ShouldValidateKeyE0ENS_10FastMallocEE18KeyValuePairTraitsESF_SJ_E20computeBestTableSizeEj
_ZN3WTF9HashTableIPN3JSC3DFG4NodeENS_12KeyValuePairIS4_S4_EENS_24KeyValuePairKeyExtractorIS6_EENS_11DefaultHashIS4_EENS_7HashMapIS4_S4_SA_NS_10HashTraitsIS4_EESD_NS_15HashTableTraitsELNS_17ShouldValidateKeyE0ENS_10FastMallocEE18KeyValuePairTraitsESD_SG_E20computeBestTableSizeEj
_ZN3WTF9HashTableIPN3JSC3DFG4NodeES4_NS_17IdentityExtractorENS_11DefaultHashIS4_EENS_10HashTraitsIS4_EES9_NS_10FastMallocEE20computeBestTableSizeEj
_ZN3WTF9HashTableIPN3JSC6JSCellENS_12KeyValuePairIS3_NS_6VectorINS1_22JSFinalizationRegistry12RegistrationELm0ENS_15CrashOnOverflowELm16ENS_10FastMallocEEEEENS_24KeyValuePairKeyExtractorISB_EENS_11DefaultHashIS3_EENS_7HashMapIS3_SA_SF_NS_10HashTraitsIS3_EENSH_ISA_EENS_15HashTableTraitsELNS_17ShouldValidateKeyE0ES9_E18KeyValuePairTraitsESI_S9_E20computeBestTableSizeEj
_ZN3WTF9HashTableIPN3JSC6JSCellES3_NS_17IdentityExtractorENS_11DefaultHashIS3_EENS_10HashTraitsIS3_EES8_NS_10FastMallocEE20computeBestTableSizeEj
_ZN3WTF9HashTableIPN3JSC9CodeBlockENS_12KeyValuePairIS3_jEENS_24KeyValuePairKeyExtractorIS5_EENS_11DefaultHashIS3_EENS_7HashMapIS3_jS9_NS_10HashTraitsIS3_EENSB_IjEENS_15HashTableTraitsELNS_17ShouldValidateKeyE1ENS_10FastMallocEE18KeyValuePairTraitsESC_SG_E20computeBestTableSizeEj
_ZN3WTF9HashTableIPN3JSC9CodeBlockES3_NS_17IdentityExtractorENS_11DefaultHashIS3_EENS_10HashTraitsIS3_EES8_NS_10FastMallocEE20computeBestTableSizeEj
_ZN3WTF9HashTableIPN3JSC9StructureES3_NS_17IdentityExtractorENS_11DefaultHashIS3_EENS_10HashTraitsIS3_EES8_NS_10FastMallocEE20computeBestTableSizeEj
_ZN3WTF9HashTableIPNS_10StringImplENS_12KeyValuePairIS2_N3JSC4WeakINS4_8JSStringEEEEENS_24KeyValuePairKeyExtractorIS8_EENS_7PtrHashIS2_EENS_7HashMapIS2_S7_SC_NS_10HashTraitsIS2_EENSE_IS7_EENS_15HashTableTraitsELNS_17ShouldValidateKeyE0ENS_10FastMallocEE18KeyValuePairTraitsESF_SJ_E20computeBestTableSizeEj
_ZN3WTF9HashTableIPNS_10SymbolImplENS_12KeyValuePairIS2_N3JSC4WeakINS4_6SymbolEEEEENS_24KeyValuePairKeyExtractorIS8_EENS_7PtrHashIS2_EENS_7HashMapIS2_S7_SC_NS_10HashTraitsIS2_EENSE_IS7_EENS_15HashTableTraitsELNS_17ShouldValidateKeyE0ENS_10FastMallocEE18KeyValuePairTraitsESF_SJ_E20computeBestTableSizeEj
_ZN3WTF9HashTableIPNS_13SSACalculatorIN3JSC2B320SSACalculatorAdapterEE8VariableENS_12KeyValuePairIS7_PNS5_3DefEEENS_24KeyValuePairKeyExtractorISB_EENS_11DefaultHashIS7_EENS_7HashMapIS7_SA_SF_NS_10HashTraitsIS7_EENSH_ISA_EENS_15HashTableTraitsELNS_17ShouldValidateKeyE0ENS_10FastMallocEE18KeyValuePairTraitsESI_SM_E20computeBestTableSizeEj
_ZN3WTF9HashTableIPNS_13SSACalculatorIN3JSC3DFG20SSACalculatorAdapterEE8VariableENS_12KeyValuePairIS7_PNS5_3DefEEENS_24KeyValuePairKeyExtractorISB_EENS_11DefaultHashIS7_EENS_7HashMapIS7_SA_SF_NS_10HashTraitsIS7_EENSH_ISA_EENS_15HashTableTraitsELNS_17ShouldValidateKeyE0ENS_10FastMallocEE18KeyValuePairTraitsESI_SM_E20computeBestTableSizeEj
_ZN3WTF9HashTableIPNS_17UniquedStringImplENS_12KeyValuePairIS2_jEENS_24KeyValuePairKeyExtractorIS4_EENS_11DefaultHashIS2_EENS_7HashMapIS2_jS8_NS_10HashTraitsIS2_EENSA_IjEENS_15HashTableTraitsELNS_17ShouldValidateKeyE0ENS_10FastMallocEE18KeyValuePairTraitsESB_SF_E20computeBestTableSizeEj
_ZN3WTF9HashTableIPvNS_12KeyValuePairIS1_NS_3RefIN3JSC10WaiterListENS_12RawPtrTraitsIS5_EENS_21DefaultRefDerefTraitsIS5_EEEEEENS_24KeyValuePairKeyExtractorISB_EENS_11DefaultHashIS1_EENS_7HashMapIS1_SA_SF_NS_10HashTraitsIS1_EENSH_ISA_EENS_15HashTableTraitsELNS_17ShouldValidateKeyE0ENS_10FastMallocEE18KeyValuePairTraitsESI_SM_E20computeBestTableSizeEj
_ZN3WTF9HashTableISt4pairINS_6RefPtrINS_29ThreadSafeWeakPtrControlBlockENS_12RawPtrTraitsIS3_EENS_43ThreadSafeWeakPtrControlBlockRefDerefTraitsEEEPKN3JSC17DeferredWorkTimer10TicketDataEESD_NS_17IdentityExtractorENS_11DefaultHashISD_EENS_10HashTraitsISD_EESI_NS_10FastMallocEE20computeBestTableSizeEj
_ZN3WTF9HashTableISt4pairINS_6RefPtrINS_29ThreadSafeWeakPtrControlBlockENS_12RawPtrTraitsIS3_EENS_43ThreadSafeWeakPtrControlBlockRefDerefTraitsEEEPKN3JSC4Wasm14InstanceAnchorEESD_NS_17IdentityExtractorENS_11DefaultHashISD_EENS_10HashTraitsISD_EESI_NS_10FastMallocEE20computeBestTableSizeEj
_ZN3WTF9HashTableISt4pairINS_6RefPtrINS_29ThreadSafeWeakPtrControlBlockENS_12RawPtrTraitsIS3_EENS_43ThreadSafeWeakPtrControlBlockRefDerefTraitsEEEPKNS_11ThreadGroupEESB_NS_17IdentityExtractorENS_11DefaultHashISB_EENS_10HashTraitsISB_EESG_NS_10FastMallocEE20computeBestTableSizeEj
_ZN3WTF9HashTableISt4pairINS_6RefPtrINS_29ThreadSafeWeakPtrControlBlockENS_12RawPtrTraitsIS3_EENS_43ThreadSafeWeakPtrControlBlockRefDerefTraitsEEEPKNS_6ThreadEESB_NS_17IdentityExtractorENS_11DefaultHashISB_EENS_10HashTraitsISB_EESG_NS_10FastMallocEE20computeBestTableSizeEj
_ZN3WTF9HashTableISt5tupleIJN3JSC11StructureIDENS2_13BytecodeIndexEEENS_12KeyValuePairIS5_NS_11FixedVectorINS2_45LLIntPrototypeLoadAdaptiveStructureWatchpointENS_10FastMallocEEEEENS_24KeyValuePairKeyExtractorISB_EENS_11DefaultHashIS5_EENS_7HashMapIS5_SA_SF_NS_10HashTraitsIS5_EENSH_ISA_EENS_15HashTableTraitsELNS_17ShouldValidateKeyE0ES9_E18KeyValuePairTraitsESI_S9_E20computeBestTableSizeEj
_ZN3WTF9HashTableISt5tupleIJPN3JSC2B35ValueES5_EENS_12KeyValuePairIS6_NS_6VectorIS5_Lm1ENS_15CrashOnOverflowELm16ENS_10FastMallocEEEEENS_24KeyValuePairKeyExtractorISC_EENS_11DefaultHashIS6_EENS_7HashMapIS6_SB_SG_NS_10HashTraitsIS6_EENSI_ISB_EENS_15HashTableTraitsELNS_17ShouldValidateKeyE0ESA_E18KeyValuePairTraitsESJ_SA_E20computeBestTableSizeEj
_ZN3WTF9HashTableISt5tupleIJPN3JSC2B35ValueEmEENS_12KeyValuePairIS6_NS_6VectorIS5_Lm1ENS_15CrashOnOverflowELm16ENS_10FastMallocEEEEENS_24KeyValuePairKeyExtractorISC_EENS_11DefaultHashIS6_EENS_7HashMapIS6_SB_SG_NS_10HashTraitsIS6_EENSI_ISB_EENS_15HashTableTraitsELNS_17ShouldValidateKeyE0ESA_E18KeyValuePairTraitsESJ_SA_E20computeBestTableSizeEj
_ZN3WTF9HashTableIjNS_12KeyValuePairIjNS_6RefPtrIN3JSC4Wasm14JSToWasmCalleeENS_12RawPtrTraitsIS5_EENS_21DefaultRefDerefTraitsIS5_EEEEEENS_24KeyValuePairKeyExtractorISB_EENS_11DefaultHashIjEENS_7HashMapIjSA_SF_NS_29UnsignedWithZeroKeyHashTraitsIjEENS_10HashTraitsISA_EENS_15HashTableTraitsELNS_17ShouldValidateKeyE0ENS_10FastMallocEE18KeyValuePairTraitsESI_SN_E20computeBestTableSizeEj
_ZN3WTF9HashTableIjNS_12KeyValuePairIjSt10unique_ptrIN9Inspector29RemoteInspectorSocketEndpoint16ClientConnectionESt14default_deleteIS5_EEEENS_24KeyValuePairKeyExtractorIS9_EENS_11DefaultHashIjEENS_7HashMapIjS8_SD_NS_10HashTraitsIjEENSF_IS8_EENS_15HashTableTraitsELNS_17ShouldValidateKeyE0ENS_10FastMallocEE18KeyValuePairTraitsESG_SK_E20computeBestTableSizeEj
_ZN3WTF9HashTableIjNS_12KeyValuePairIjSt10unique_ptrIN9Inspector29RemoteInspectorSocketEndpoint18ListenerConnectionESt14default_deleteIS5_EEEENS_24KeyValuePairKeyExtractorIS9_EENS_11DefaultHashIjEENS_7HashMapIjS8_SD_NS_10HashTraitsIjEENSF_IS8_EENS_15HashTableTraitsELNS_17ShouldValidateKeyE0ENS_10FastMallocEE18KeyValuePairTraitsESG_SK_E20computeBestTableSizeEj
_ZN3WTF9HashTableIjjNS_17IdentityExtractorENS_7IntHashIjEENS_29UnsignedWithZeroKeyHashTraitsIjEES5_NS_10FastMallocEE20computeBestTableSizeEj
_ZN3WTF9HashTableIttNS_17IdentityExtractorENS_7IntHashItEENS_29UnsignedWithZeroKeyHashTraitsItEES5_NS_10FastMallocEE20computeBestTableSizeEj
_ZN3WTF9HashTableISt4pairINS_6RefPtrINS_29ThreadSafeWeakPtrControlBlockENS_12RawPtrTraitsIS3_EENS_43ThreadSafeWeakPtrControlBlockRefDerefTraitsEEEPKN3JSC17DeferredWorkTimer10TicketDataEESD_NS_17IdentityExtractorENS_11DefaultHashISD_EENS_10HashTraitsISD_EESI_NS_10FastMallocEE3addINS_22IdentityHashTranslatorISI_SG_EELNS_17ShouldValidateKeyE1ERKSD_TkSt9invocableZNSK_3addILSO_1EEENS_18HashTableAddResultINS_17HashTableIteratorISK_SD_SD_SE_SG_SI_SI_EEEEOSD_EUlvE_EESV_OT1_RKT2_
_ZN3WTF9HashTableISt4pairINS_6RefPtrINS_29ThreadSafeWeakPtrControlBlockENS_12RawPtrTraitsIS3_EENS_43ThreadSafeWeakPtrControlBlockRefDerefTraitsEEEPKN3JSC4Wasm14InstanceAnchorEESD_NS_17IdentityExtractorENS_11DefaultHashISD_EENS_10HashTraitsISD_EESI_NS_10FastMallocEE3addINS_22IdentityHashTranslatorISI_SG_EELNS_17ShouldValidateKeyE1ERKSD_TkSt9invocableZNSK_3addILSO_1EEENS_18HashTableAddResultINS_17HashTableIteratorISK_SD_SD_SE_SG_SI_SI_EEEEOSD_EUlvE_EESV_OT1_RKT2_
_ZN3WTF9HashTableISt4pairINS_6RefPtrINS_29ThreadSafeWeakPtrControlBlockENS_12RawPtrTraitsIS3_EENS_43ThreadSafeWeakPtrControlBlockRefDerefTraitsEEEPKNS_11ThreadGroupEESB_NS_17IdentityExtractorENS_11DefaultHashISB_EENS_10HashTraitsISB_EESG_NS_10FastMallocEE3addINS_22IdentityHashTranslatorISG_SE_EELNS_17ShouldValidateKeyE1ERKSB_TkSt9invocableZNSI_3addILSM_1EEENS_18HashTableAddResultINS_17HashTableIteratorISI_SB_SB_SC_SE_SG_SG_EEEEOSB_EUlvE_EEST_OT1_RKT2_
_ZN3WTF9HashTableISt4pairINS_6RefPtrINS_29ThreadSafeWeakPtrControlBlockENS_12RawPtrTraitsIS3_EENS_43ThreadSafeWeakPtrControlBlockRefDerefTraitsEEEPKNS_6ThreadEESB_NS_17IdentityExtractorENS_11DefaultHashISB_EENS_10HashTraitsISB_EESG_NS_10FastMallocEE3addINS_22IdentityHashTranslatorISG_SE_EELNS_17ShouldValidateKeyE1ERKSB_TkSt9invocableZNSI_3addILSM_1EEENS_18HashTableAddResultINS_17HashTableIteratorISI_SB_SB_SC_SE_SG_SG_EEEEOSB_EUlvE_EEST_OT1_RKT2_
_ZNK3WTF47ThreadSafeRefCountedAndCanMakeThreadSafeWeakPtrINS_6ThreadELNS_17DestructionThreadE0EE12weakRefCountEv
_ZN3WTF9HashTableISt4pairINS_6RefPtrINS_29ThreadSafeWeakPtrControlBlockENS_12RawPtrTraitsIS3_EENS_43ThreadSafeWeakPtrControlBlockRefDerefTraitsEEEPKNS_6ThreadEESB_NS_17IdentityExtractorENS_11DefaultHashISB_EENS_10HashTraitsISB_EESG_NS_10FastMallocEE6removeEPSB_
_ZNK3WTF29ThreadSafeWeakPtrControlBlock11strongDerefINS_11ThreadGroupELNS_17DestructionThreadE0EEEvv
_ZN3WTF13CompactMapperIZNKS_21ThreadSafeWeakHashSetINS_11ThreadGroupEE6valuesEvEUlRT_E_NS_6VectorINS_3RefIS2_NS_12RawPtrTraitsIS2_EENS_21DefaultRefDerefTraitsIS2_EEEELm0ENS_15CrashOnOverflowELm16ENS_10FastMallocEEERNS_7HashSetISt4pairINS_6RefPtrINS_29ThreadSafeWeakPtrControlBlockENS9_ISK_EENS_43ThreadSafeWeakPtrControlBlockRefDerefTraitsEEEPKS2_ENS_11DefaultHashISQ_EENS_10HashTraitsISQ_EENS_15HashTableTraitsELNS_17ShouldValidateKeyE1EEEvE10compactMapERSG_SY_RKS6_
_ZN3WTF6VectorINS_3RefINS_11ThreadGroupENS_12RawPtrTraitsIS2_EENS_21DefaultRefDerefTraitsIS2_EEEELm0ENS_15CrashOnOverflowELm16ENS_10FastMallocEE14shrinkCapacityEm
_ZN3WTF9HashTableISt10unique_ptrINS_15ListHashSetNodeINS_3RefINS_6ThreadENS_12RawPtrTraitsIS4_EENS_21DefaultRefDerefTraitsIS4_EEEEEESt14default_deleteISA_EESD_NS_17IdentityExtractorENS_28ListHashSetNodeHashFunctionsINS_11DefaultHashIS9_EEEENS_11ListHashSetIS9_SH_E10NodeTraitsESL_NS_10FastMallocEE6removeEPSD_
_ZN3WTF9HashTableISt10unique_ptrINS_15ListHashSetNodeINS_3RefIN3JSC10BreakpointENS_12RawPtrTraitsIS5_EENS_21DefaultRefDerefTraitsIS5_EEEEEESt14default_deleteISB_EESE_NS_17IdentityExtractorENS_28ListHashSetNodeHashFunctionsINS_11DefaultHashISA_EEEENS_11ListHashSetISA_SI_E10NodeTraitsESM_NS_10FastMallocEE6rehashENS_7CheckedIjNS_15CrashOnOverflowEEEPSE_
_ZN3WTF9HashTableISt10unique_ptrINS_15ListHashSetNodeINS_3RefINS_6ThreadENS_12RawPtrTraitsIS4_EENS_21DefaultRefDerefTraitsIS4_EEEEEESt14default_deleteISA_EESD_NS_17IdentityExtractorENS_28ListHashSetNodeHashFunctionsINS_11DefaultHashIS9_EEEENS_11ListHashSetIS9_SH_E10NodeTraitsESL_NS_10FastMallocEE6rehashENS_7CheckedIjNS_15CrashOnOverflowEEEPSD_
_ZN3JSC2VM24didExhaustMicrotaskQueueEv
_ZN3WTF9HashTableISt4pairINS_6RefPtrINS_29ThreadSafeWeakPtrControlBlockENS_12RawPtrTraitsIS3_EENS_43ThreadSafeWeakPtrControlBlockRefDerefTraitsEEEPKN3JSC17DeferredWorkTimer10TicketDataEESD_NS_17IdentityExtractorENS_11DefaultHashISD_EENS_10HashTraitsISD_EESI_NS_10FastMallocEE6rehashENS_7CheckedIjNS_15CrashOnOverflowEEEPSD_
_ZN3WTF9HashTableISt4pairINS_6RefPtrINS_29ThreadSafeWeakPtrControlBlockENS_12RawPtrTraitsIS3_EENS_43ThreadSafeWeakPtrControlBlockRefDerefTraitsEEEPKN3JSC4Wasm14InstanceAnchorEESD_NS_17IdentityExtractorENS_11DefaultHashISD_EENS_10HashTraitsISD_EESI_NS_10FastMallocEE6rehashENS_7CheckedIjNS_15CrashOnOverflowEEEPSD_
_ZN3WTF9HashTableISt4pairINS_6RefPtrINS_29ThreadSafeWeakPtrControlBlockENS_12RawPtrTraitsIS3_EENS_43ThreadSafeWeakPtrControlBlockRefDerefTraitsEEEPKNS_11ThreadGroupEESB_NS_17IdentityExtractorENS_11DefaultHashISB_EENS_10HashTraitsISB_EESG_NS_10FastMallocEE6rehashENS_7CheckedIjNS_15CrashOnOverflowEEEPSB_
_ZN3WTF9HashTableISt4pairINS_6RefPtrINS_29ThreadSafeWeakPtrControlBlockENS_12RawPtrTraitsIS3_EENS_43ThreadSafeWeakPtrControlBlockRefDerefTraitsEEEPKNS_6ThreadEESB_NS_17IdentityExtractorENS_11DefaultHashISB_EENS_10HashTraitsISB_EESG_NS_10FastMallocEE6rehashENS_7CheckedIjNS_15CrashOnOverflowEEEPSB_
_ZN10fast_float19from_chars_advancedIdDsEENS_19from_chars_result_tIT0_EERNS_22parsed_number_string_tIS2_EERT_
_ZN3JSC7VMTraps12SignalSender4workEv
_ZN3Bun13ConsoleObjectD0Ev
_ZN3JSC8JSObject22getOwnPropertySlotImplEPS0_PNS_14JSGlobalObjectENS_12PropertyNameERNS_12PropertySlotE
_ZN3JSC8JSObject26getOwnNonIndexPropertySlotERNS_2VMEPNS_9StructureENS_12PropertyNameERNS_12PropertySlotE
_ZN3JSC10parseIndexENS_12PropertyNameE
_ZN3JSC9Structure3getERNS_2VMENS_12PropertyNameERj
_ZN3JSC8JSObject18didBecomePrototypeERNS_2VME
_ZN3JSC8JSObject12setStructureERNS_2VMEPNS_9StructureE
_ZN3JSC41DeferredStructureTransitionWatchpointFireD2Ev
_ZZN3JSC14LocalAllocator8allocateERNS_4HeapEmPNS_17GCDeferralContextENS_21AllocationFailureModeEENKUlvE_clEv
_ZN3JSC12allocateCellINS_13JSFinalObjectEEEPvRNS_2VMEm
_ZN3JSC12allocateCellINS_15DirectArgumentsEEEPvRNS_2VMEm
_ZN3JSC12allocateCellINS_18JSWebAssemblyArrayEEEPvRNS_2VMEm
_ZN3JSC12allocateCellINS_19JSModuleEnvironmentEEEPvRNS_2VMEm
_ZN3JSC12allocateCellINS_20JSLexicalEnvironmentEEEPvRNS_2VMEm
_RNvNtCs7QmvgyBSXbk_3std7process5abort
_Z16WTFCrashWithInfoIPKcEviS1_S1_T_
_Z16WTFCrashWithInfoImEviPKcS1_T_
_Z16WTFCrashWithInfoImmEviPKcS1_T_T0_
_Z16WTFCrashWithInfoImmmEviPKcS1_T_T0_T1_
_ZN3WTF15CrashOnOverflow10overflowedEv
_RNvNtNtNtCs7QmvgyBSXbk_3std3sys3pal4unix14abort_internal
_Z18threadSelfRestrictIL17MemoryRestriction0EEvv
_Z20WTFCrashWithInfoImpliPKcS0_m
_Z20WTFCrashWithInfoImpliPKcS0_mm
_Z20WTFCrashWithInfoImpliPKcS0_mmm
_Z20WTFCrashWithInfoImpliPKcS0_mmmm
_Z20WTFCrashWithInfoImpliPKcS0_mmmmm
_Z20WTFCrashWithInfoImpliPKcS0_mmmmmm
_Z20WTFCrashWithInfoImpliPKcS0_mmmmmmm
_ZN3JSC4Wasm12_GLOBAL__N_131webAssemblyCouldntGetFastMemoryEv
_ZN3WTF14RecordOverflow5crashEv
_ZN3WTF15CrashOnOverflow5crashEv
_ZN3WTF21CanMakeCheckedPtrBaseINS_27SingleThreadIntegralWrapperIjEEjbLNS_30CheckedPtrDeleteCheckExceptionE0EE32crashDueToCheckedPtrToDeadObjectEv
_ZN3WTF21CanMakeCheckedPtrBaseISt6atomicIjEjS1_IbELNS_30CheckedPtrDeleteCheckExceptionE0EE32crashDueToCheckedPtrToDeadObjectEv
_ZN3WTFL24crashUnableToOpenURandomEv
_ZN3WTFL28crashUnableToReadFromURandomEv
_ZN6icu_7524WholeStringBreakIterator9adoptTextEPNS_17CharacterIteratorE
_ZNK6icu_7524WholeStringBreakIterator7getTextEv
_ZNK6icu_756number4impl14SimpleModifier13containsFieldENS_22FormattedStringBuilder5FieldE
_ZNK6icu_756number4impl18ScientificModifier13containsFieldENS_22FormattedStringBuilder5FieldE
_ZNK6icu_756number4impl22MutablePatternModifier12strictEqualsERKNS1_8ModifierE
_ZNK6icu_756number4impl22MutablePatternModifier13containsFieldENS_22FormattedStringBuilder5FieldE
_ZNK6icu_756number4impl22MutablePatternModifier13getParametersERNS1_8Modifier10ParametersE
_ZNK6icu_756number4impl24MixedUnitLongNameHandler11getModifierENS1_6SignumENS_14StandardPlural4FormE
_ZSt27__throw_bad_optional_accessv
_ZThn8_NK6icu_756number4impl22MutablePatternModifier12strictEqualsERKNS1_8ModifierE
_ZThn8_NK6icu_756number4impl22MutablePatternModifier13containsFieldENS_22FormattedStringBuilder5FieldE
_ZThn8_NK6icu_756number4impl22MutablePatternModifier13getParametersERNS1_8Modifier10ParametersE
_ZThn8_NK6icu_756number4impl24MixedUnitLongNameHandler11getModifierENS1_6SignumENS_14StandardPlural4FormE
diediedie
_ZN3WTF9InlineMapINS_6RefPtrINS_17UniquedStringImplENS_15PackedPtrTraitsIS2_EENS_21DefaultRefDerefTraitsIS2_EEEEN3JSC24VariableEnvironmentEntryELj9ENS8_17IdentifierRepHashENS_10HashTraitsINS1_IS2_NS_12RawPtrTraitsIS2_EES6_EEEENS8_34VariableEnvironmentEntryHashTraitsEE3addIRKSE_S9_EENS_18InlineMapAddResultINSH_8iteratorEEEOT_OT0_
_ZN3JSC2VM15promiseRejectedEPNS_9JSPromiseE
_ZN3JSC2VM15drainMicrotasksEv
_ZN3JSC2VM30drainMicrotasksForGlobalObjectEPNS_14JSGlobalObjectE
_ZN3JSC18sanitizeStackForVMERNS_2VME
_ZN3JSC2VM20scratchBufferForSizeEm
_ZN3JSC2VM22checkVMEntryPermissionEv
_ZN3JSC2VM31emptyPropertyNameEnumeratorSlowEv
_ZN3JSC2VM45promiseResolvingFunctionResolveExecutableSlowEv
_ZN3JSC2VM44promiseResolvingFunctionRejectExecutableSlowEv
_ZN3JSC2VM50promiseFirstResolvingFunctionResolveExecutableSlowEv
_ZN3JSC2VM49promiseFirstResolvingFunctionRejectExecutableSlowEv
_ZN3JSC2VM66promiseResolvingFunctionResolveWithInternalMicrotaskExecutableSlowEv
_ZN3JSC2VM65promiseResolvingFunctionRejectWithInternalMicrotaskExecutableSlowEv
_ZN3JSC2VM39promiseCapabilityExecutorExecutableSlowEv
_ZN3JSC2VM39promiseAllFulfillFunctionExecutableSlowEv
_ZN3JSC2VM43promiseAllSlowFulfillFunctionExecutableSlowEv
_ZN3JSC2VM46promiseAllSettledFulfillFunctionExecutableSlowEv
_ZN3JSC2VM45promiseAllSettledRejectFunctionExecutableSlowEv
_ZN3JSC2VM50promiseAllSettledSlowFulfillFunctionExecutableSlowEv
_ZN3JSC2VM49promiseAllSettledSlowRejectFunctionExecutableSlowEv
_ZN3JSC2VM38promiseAnyRejectFunctionExecutableSlowEv
_ZN3JSC4Heap33dumpHeapStatisticsAtVMDestructionEv
_ZN3JSC4Heap20lastChanceToFinalizeEv
_ZN3WTF7dataLogIJdA5_cEEEvDpRKT_
_ZN3JSC4Heap55reportExtraMemoryAllocatedPossiblyFromAlreadyMarkedCellEPKNS_6JSCellEm
_ZN3JSC4Heap24reportExtraMemoryVisitedEm
_ZN3JSC4Heap34reportExtraMemoryAllocatedSlowCaseEPNS_17GCDeferralContextEPKNS_6JSCellEm
_ZN3JSC4Heap11didAllocateEm
_ZN3JSC14JSRunLoopTimer16setTimeUntilFireEN3WTF7SecondsE
_ZN3JSC14JSRunLoopTimer11cancelTimerEv
_ZN3JSC7JSScope13visitChildrenEPNS_6JSCellERNS_11SlotVisitorE
_ZN3JSC7JSScope13visitChildrenEPNS_6JSCellERNS_19AbstractSlotVisitorE
_ZN3WTF17SharedTaskFunctorIFvRN3JSC12CCallHelpersERNS1_2B33Air17GenerationContextEEZNS5_21WasmBoundsCheckCustom8generateERNS5_4InstES3_S7_E3$_0E3runES3_S7_
_ZN3WTF6VectorISt4pairINS_3RefIN3JSC14JSRunLoopTimerENS_12RawPtrTraitsIS4_EENS_21DefaultRefDerefTraitsIS4_EEEENS_13MonotonicTimeEELm0ENS_15CrashOnOverflowELm16ENS_10FastMallocEE14expandCapacityILNS_13FailureActionE0EEEPSB_mSH_
_ZN3WTF6VectorISt5tupleIJN3JSC2B36OriginENS_3RefINS_10SharedTaskIFvRNS2_12CCallHelpersERNS3_3Air17GenerationContextEEEENS_12RawPtrTraitsISD_EENS_21DefaultRefDerefTraitsISD_EEEEEELm0ENS_15CrashOnOverflowELm16ENS_10FastMallocEE14expandCapacityILNS_13FailureActionE0EEEPSJ_mSP_
_ZN3WTF6VectorISt4pairINS_3RefIN3JSC14JSRunLoopTimerENS_12RawPtrTraitsIS4_EENS_21DefaultRefDerefTraitsIS4_EEEENS_13MonotonicTimeEELm0ENS_15CrashOnOverflowELm16ENS_10FastMallocEE15reserveCapacityILNS_13FailureActionE0EEEbm
_ZN3WTF6VectorISt5tupleIJN3JSC2B36OriginENS_3RefINS_10SharedTaskIFvRNS2_12CCallHelpersERNS3_3Air17GenerationContextEEEENS_12RawPtrTraitsISD_EENS_21DefaultRefDerefTraitsISD_EEEEEELm0ENS_15CrashOnOverflowELm16ENS_10FastMallocEE15reserveCapacityILNS_13FailureActionE0EEEbm
_ZN3JSC2B33Air11RegLivenessC1ERNS1_4CodeE
_ZN3JSC2B33Air11RegLivenessC2ERNS1_4CodeE
_RNvMs5_NtCs1yUlXPGwCKD_11bun_runtime5timerNtB5_3All12drain_timers
_RNvMs5_NtCs1yUlXPGwCKD_11bun_runtime5timerNtB5_3All6update
_RNvXs1i_NtCshzHRevywlmE_4core3fmtRINtNtCsgtociwQ8c96_8bun_core6output15TemplateDisplayNtB6_9ArgumentsENtB6_7Display3fmtCs1yUlXPGwCKD_11bun_runtime
_RINvNtCshzHRevywlmE_4core3ptr13drop_in_placeINtNtCs4YSnrHLetPa_5alloc5boxed3BoxNtNtCs1yUlXPGwCKD_11bun_runtime9jsc_hooks12RuntimeStateEEB1j_
_RINvNtCshzHRevywlmE_4core3ptr13drop_in_placeNtNtNtCs1yUlXPGwCKD_11bun_runtime7dns_jsc8dns_body8ResolverEBM_
_RNvNtNtCs1yUlXPGwCKD_11bun_runtime10hw_exports9sql_hooks21ssl_ctx_get_or_create
_RNvNtNtCs1yUlXPGwCKD_11bun_runtime10hw_exports9sql_hooks18ssl_config_from_js
_RNvXs_NtNtCs1yUlXPGwCKD_11bun_runtime6socket10ssl_configNtNtCsflik4Lp6Ma9_8bun_http10ssl_config9SSLConfigNtB4_15SSLConfigFromJs14from_generated
_ZN3JSC26MarkStackMergingConstraintC1ERNS_4HeapE
_ZN3JSC26MarkStackMergingConstraintC2ERNS_4HeapE
_ZN3JSC4Heap25collectIfNecessaryOrDeferEPNS_17GCDeferralContextE
_ZN3WTF8SmallSetIN3JSC2B33Air3TmpENS_11DefaultHashIS4_EENS_10HashTraitsIS4_EELj2EE4growEj
_ZN3WTF22ScopedLambdaRefFunctorIFvRN3JSC2B33Air3ArgENS4_4RoleENS2_4BankENS1_5WidthEEZNS3_4Inst10forEachTmpIZNS3_11PatchCustom11isValidFormERSA_E3$_0EEvRKT_EUlS5_S6_S7_S8_E_E12implFunctionEPvS5_S6_S7_S8_
_ZZN3JSC2B33Air4Inst10forEachTmpIZNS1_11PatchCustom11isValidFormERS2_E3$_0EEvRKT_ENKUlRNS1_3ArgENSA_4RoleENS0_4BankENS_5WidthEE_clESB_SC_SD_SE_
_ZN3WTF9HashTableIN3JSC2B33Air3ArgES4_NS_17IdentityExtractorENS_11DefaultHashIS4_EENS_10HashTraitsIS4_EES9_NS_10FastMallocEE3addINS_22IdentityHashTranslatorIS9_S7_EELNS_17ShouldValidateKeyE0ERKS4_TkSt9invocableZNSB_3addILSF_0EEENS_18HashTableAddResultINS_17HashTableIteratorISB_S4_S4_S5_S7_S9_S9_EEEESH_EUlvE_EESM_OT1_RKT2_
_ZN3WTF9HashTableIN3JSC2B33Air3ArgES4_NS_17IdentityExtractorENS_11DefaultHashIS4_EENS_10HashTraitsIS4_EES9_NS_10FastMallocEE6rehashENS_7CheckedIjNS_15CrashOnOverflowEEEPS4_
_ZNK3WTF9HashTableIN3JSC2B33Air3ArgES4_NS_17IdentityExtractorENS_11DefaultHashIS4_EENS_10HashTraitsIS4_EES9_NS_10FastMallocEE8containsINS_22IdentityHashTranslatorIS9_S7_EELNS_17ShouldValidateKeyE0ES4_EEbRKT1_
_ZN3JSC17MarkingConstraintC2EN3WTF7CStringES2_NS_20ConstraintVolatilityENS_21ConstraintConcurrencyENS_21ConstraintParallelismE
_ZN3JSC17MarkingConstraintD1Ev
_ZN3JSC17MarkingConstraintD2Ev
_ZN3JSC26MarkStackMergingConstraintD1Ev
_ZN3JSC26MarkStackMergingConstraintD2Ev
_ZN3JSC26MarkStackMergingConstraintD0Ev
_ZN3JSC26MarkStackMergingConstraint17quickWorkEstimateERNS_11SlotVisitorE
_ZN3JSC26MarkStackMergingConstraint20prepareToExecuteImplERKN3WTF14AbstractLockerERNS_19AbstractSlotVisitorE
_ZN3JSC26MarkStackMergingConstraint11executeImplERNS_11SlotVisitorE
_ZN3JSC26MarkStackMergingConstraint11executeImplERNS_19AbstractSlotVisitorE
_ZN3JSC11MarkedBlock8isMarkedEjPKv
_ZN3JSC11MarkedBlock6Handle6isLiveEjjbPKNS_8HeapCellE
_ZN3JSC11MarkedBlock6Handle6isLiveEPKNS_8HeapCellE
_ZN3JSC11MarkedBlock9tryCreateERNS_4HeapEPNS_22AlignedMemoryAllocatorE
_ZN3JSC11MarkedBlock6Handle27unsweepWithNoNewlyAllocatedEv
_ZN3JSC11MarkedBlock6Handle14stopAllocatingERKNS_8FreeListE
_ZN3JSC11MarkedBlock6Handle20lastChanceToFinalizeEv
_ZN3JSC11MarkedBlock6Handle5sweepEPNS_8FreeListE
_ZL35bmalloc_try_allocate_impl_impl_slowP14__pas_heap_refmm19pas_allocation_mode
_ZL50bmalloc_try_allocate_with_alignment_impl_impl_slowP14__pas_heap_refmm19pas_allocation_mode
_ZL45bmalloc_try_allocate_auxiliary_impl_impl_slowP14__pas_heap_refmm19pas_allocation_mode
_ZL33bmalloc_allocate_impl_for_reallocm19pas_allocation_mode
_ZL48bmalloc_allocate_with_alignment_impl_casual_casemm19pas_allocation_mode
_ZL47bmalloc_try_allocate_auxiliary_impl_for_reallocP22pas_primitive_heap_refm19pas_allocation_mode
bmalloc_medium_bitfit_page_config_specialized_page_shrink_with_page
_ZL46bmalloc_medium_bitfit_page_header_for_boundaryPv
_ZL46bmalloc_medium_bitfit_boundary_for_page_headerP13pas_page_base
bmalloc_medium_bitfit_page_header_for_boundary_remote
bmalloc_medium_bitfit_create_page_header
bmalloc_medium_bitfit_destroy_page_header
bmalloc_heap_config_allocate_medium_bitfit_page
_ZN3JSC11MarkedSpace17prepareForMarkingEv
_ZN3JSC11MarkedSpace16resumeAllocatingEv
_ZN3JSC11MarkedSpace10isPagedOutEv
_ZN3JSC11MarkedSpace9freeBlockEPNS_11MarkedBlock6HandleE
_ZN3JSC14MarkedBlockSet6removeEPNS_11MarkedBlockE
_ZN3JSC11MarkedSpace6shrinkEv
_ZN3JSC11MarkedSpace12beginMarkingEv
_ZN3JSC11MarkedSpace12forEachBlockIZNS0_12beginMarkingEvE3$_1EEvRKT_
bmalloc_marge_bitfit_page_config_specialized_page_shrink_with_page
_ZL38bmalloc_heap_config_fast_megapage_kindm
_ZL31bmalloc_heap_config_page_headerm
bmalloc_aligned_allocator
bmalloc_prepare_to_enumerate
_ZNK7WebCore9CookieMap6toJSONEPN3JSC14JSGlobalObjectE
_ZN3JSC4Heap16didAllocateBlockEm
_ZN3JSC4Heap12didFreeBlockEm
_ZN3JSC4Heap18addCoreConstraintsEv
_ZN3JSC4Heap20addMarkingConstraintESt10unique_ptrINS_17MarkingConstraintESt14default_deleteIS2_EE
_ZN3JSC4Heap21notifyIsSafeToCollectEv
_ZN3JSC3DFG7JITDataD2Ev
_ZN3JSC11MarkedSpace10endMarkingEv
_ZN3JSC11MarkedSpace12forEachBlockIZNS0_10endMarkingEvE3$_0EEvRKT_
_ZN3JSC11MarkedSpace18willStartIteratingEv
_ZN3JSC11MarkedSpace18didFinishIteratingEv
_ZN3JSC11MarkedSpace11objectCountEv
_ZN3JSC11MarkedSpace4sizeEv
_ZN3JSC11MarkedSpace16addActiveWeakSetEPNS_7WeakSetE
_ZN3JSC11MarkedSpace11didAddBlockEPNS_11MarkedBlock6HandleE
_ZN3JSC11MarkedSpace18didAllocateInBlockEPNS_11MarkedBlock6HandleE
_ZN3JSC11MarkedBlock6Handle16specializedSweepILb1ELNS1_9EmptyModeE0ELNS1_9SweepModeE1ELNS1_20SweepDestructionModeE0ELNS1_12ScribbleModeE0ELNS1_18NewlyAllocatedModeE1ELNS1_9MarksModeE0EZZNS1_5sweepEPNS_8FreeListEENK3$_0clEvEUlRNS_2VMEPNS_6JSCellEE0_EEvSA_S3_S4_S5_S6_S7_S8_RKT6_
_ZN3JSC11MarkedBlock6Handle16specializedSweepILb1ELNS1_9EmptyModeE1ELNS1_9SweepModeE1ELNS1_20SweepDestructionModeE0ELNS1_12ScribbleModeE0ELNS1_18NewlyAllocatedModeE1ELNS1_9MarksModeE0EZZNS1_5sweepEPNS_8FreeListEENK3$_0clEvEUlRNS_2VMEPNS_6JSCellEE2_EEvSA_S3_S4_S5_S6_S7_S8_RKT6_
_ZN3JSC11MarkedBlock6Handle16specializedSweepILb1ELNS1_9EmptyModeE1ELNS1_9SweepModeE1ELNS1_20SweepDestructionModeE0ELNS1_12ScribbleModeE0ELNS1_18NewlyAllocatedModeE1ELNS1_9MarksModeE1EZZNS1_5sweepEPNS_8FreeListEENK3$_0clEvEUlRNS_2VMEPNS_6JSCellEE1_EEvSA_S3_S4_S5_S6_S7_S8_RKT6_
_ZN3WTF11PrintStream10atomicallyIZN3JSC11MarkedBlock6Handle16specializedSweepILb0ELNS4_9EmptyModeE0ELNS4_9SweepModeE0ELNS4_20SweepDestructionModeE0ELNS4_12ScribbleModeE0ELNS4_18NewlyAllocatedModeE0ELNS4_9MarksModeE0EZNS4_5sweepEPNS2_8FreeListEE3$_1EEvSD_S6_S7_S8_S9_SA_SB_RKT6_EUlRS0_E_EEvRKT_
_ZN3WTF11PrintStream10atomicallyIZN3JSC11MarkedBlock6Handle16specializedSweepILb1ELNS4_9EmptyModeE0ELNS4_9SweepModeE1ELNS4_20SweepDestructionModeE0ELNS4_12ScribbleModeE0ELNS4_18NewlyAllocatedModeE1ELNS4_9MarksModeE1EZZNS4_5sweepEPNS2_8FreeListEENK3$_0clEvEUlRNS2_2VMEPNS2_6JSCellEE_EEvSD_S6_S7_S8_S9_SA_SB_RKT6_EUlRS0_E_EEvRKT_
_ZN3WTF9HashTableIPN3JSC11MarkedBlockES3_NS_17IdentityExtractorENS_11DefaultHashIS3_EENS_10HashTraitsIS3_EES8_NS_10FastMallocEE6rehashENS_7CheckedIjNS_15CrashOnOverflowEEEPS3_
_ZN3WTF9HashTableIPN3JSC11MarkedBlockES3_NS_17IdentityExtractorENS_11DefaultHashIS3_EENS_10HashTraitsIS3_EES8_NS_10FastMallocEE3addINS_22IdentityHashTranslatorIS8_S6_EELNS_17ShouldValidateKeyE0ERKS3_TkSt9invocableZNSA_3addILSE_0EEENS_18HashTableAddResultINS_17HashTableIteratorISA_S3_S3_S4_S6_S8_S8_EEEESG_EUlvE_EESL_OT1_RKT2_
_ZN3JSC14BlockDirectory11removeBlockEPNS_11MarkedBlock6HandleENS0_15WillDeleteBlockE
_ZN3JSC14BlockDirectory14stopAllocatingEv
_ZN3JSC14BlockDirectory20prepareForAllocationEv
_ZN3JSC14BlockDirectory21stopAllocatingForGoodEv
_ZN3JSC14BlockDirectory20lastChanceToFinalizeEv
_ZN3JSC14BlockDirectory16resumeAllocatingEv
_ZN3JSC14BlockDirectory29beginMarkingForFullCollectionEv
_ZN3JSC11MarkedBlock28analyzeInvalidHandleAndCrashERN3WTF14AbstractLockerEPNS_8HeapCellE
_ZN3JSC11MarkedBlock13areMarksStaleEv
_ZN3JSC11MarkedBlock8isMarkedEPKv
_ZN3JSC11MarkedBlock6Handle18didConsumeFreeListEv
_ZN3JSC11MarkedBlock14noteMarkedSlowEv
_ZN3JSC11MarkedBlock6Handle19removeFromDirectoryEv
_ZN3JSC11MarkedBlock6Handle17didAddToDirectoryEPNS_14BlockDirectoryEj
_ZN3JSC11MarkedBlock6Handle22didRemoveFromDirectoryEv
_ZN3JSC9WeakBlock16specializedVisitINS_11MarkedBlockENS_19AbstractSlotVisitorEEEvRT_RT0_
_ZN3JSC9WeakBlock16specializedVisitINS_17PreciseAllocationENS_11SlotVisitorEEEvRT_RT0_
_ZN3JSC9WeakBlock16specializedVisitINS_11MarkedBlockENS_11SlotVisitorEEEvRT_RT0_
_ZN3JSC7WeakSetD1Ev
_ZN3JSC7WeakSetD2Ev
_ZN3JSC7WeakSet20lastChanceToFinalizeEv
_ZN3JSC7WeakSet4reapEv
_ZN3JSC7WeakSet5sweepEv
_ZN3JSC7WeakSet6shrinkEv
_ZN3JSC7WeakSet13findAllocatorENS_13CellContainerE
_ZN9Inspector15AsyncStackTrace6createEON3WTF3RefINS_15ScriptCallStackENS1_12RawPtrTraitsIS3_EENS1_21DefaultRefDerefTraitsIS3_EEEEbNS1_6RefPtrIS0_NS4_IS0_EENS6_IS0_EEEE
_ZN3WTF6RefPtrIN9Inspector15AsyncStackTraceENS_12RawPtrTraitsIS2_EENS_21DefaultRefDerefTraitsIS2_EEED2Ev
_ZN9Inspector15AsyncStackTraceD1Ev
_ZN9Inspector15AsyncStackTraceD2Ev
_ZN9Inspector15AsyncStackTrace6removeEv
_ZNK9Inspector15AsyncStackTrace9isPendingEv
_ZN9Inspector15AsyncStackTrace21willDispatchAsyncCallEm
_ZN9Inspector15AsyncStackTrace8truncateEm
_ZN9Inspector15AsyncStackTrace20didDispatchAsyncCallEv
_ZN9Inspector15AsyncStackTrace18didCancelAsyncCallEv
_ZNK9Inspector15AsyncStackTrace20buildInspectorObjectEv
_ZN9Inspector8Protocol7Console10StackTrace7BuilderILi0EE13setCallFramesEON3WTF3RefINS5_8JSONImpl7ArrayOfINS1_9CallFrameEEENS5_12RawPtrTraitsISA_EENS5_21DefaultRefDerefTraitsISA_EEEE
_ZN3JSC18StringReplaceCache18visitAggregateImplINS_11SlotVisitorEEEvRT_
_ZN3JSC9Structure11markIfCheapINS_19AbstractSlotVisitorEEEbRT_
_ZN3JSC9Structure11markIfCheapINS_11SlotVisitorEEEbRT_
_ZN3JSC24StructureTransitionTable3addERNS_2VMEPNS_6JSCellEPNS_9StructureE
_ZN3JSC9StructureC1ERNS_2VMENS0_16StructureVariantEPNS_14JSGlobalObjectERKNS_8TypeInfoEPKNS_9ClassInfoE
_ZN3JSC9StructureC2ERNS_2VMENS0_16StructureVariantEPNS_14JSGlobalObjectERKNS_8TypeInfoEPKNS_9ClassInfoE
_ZN3JSC9StructureC1ERNS_2VMEPNS_14JSGlobalObjectENS_7JSValueERKNS_8TypeInfoEPKNS_9ClassInfoEhj
_ZN3JSC9StructureC2ERNS_2VMEPNS_14JSGlobalObjectENS_7JSValueERKNS_8TypeInfoEPKNS_9ClassInfoEhj
_ZN3JSC9Structure7destroyEPNS_6JSCellE
_ZN3JSC9Structure13visitChildrenEPNS_6JSCellERNS_11SlotVisitorE
_ZN3JSC9Structure13visitChildrenEPNS_6JSCellERNS_19AbstractSlotVisitorE
_ZN3JSC9StructureC1ERNS_2VMENS_6JSCell20CreatingEarlyCellTagE
_ZN3JSC9StructureC2ERNS_2VMENS_6JSCell20CreatingEarlyCellTagE
_ZN3JSC9StructureC1ERNS_2VMENS0_16StructureVariantEPS0_
_ZN3JSC9StructureC2ERNS_2VMENS0_16StructureVariantEPS0_
_ZN3JSC9StructureD1Ev
_ZN3JSC9StructureD2Ev
_ZN3JSC9Structure6createENS0_12PolyProtoTagERNS_2VMEPNS_14JSGlobalObjectEPNS_8JSObjectERKNS_8TypeInfoEPKNS_9ClassInfoEhj
_ZZNK3JSC9Structure22checkOffsetConsistencyIZNKS0_22checkOffsetConsistencyEvE3$_0EEvPNS_13PropertyTableERKT_ENKUlPKcE_clES9_
_ZN3WTF17toWellFormedUTF16ESt4spanIKDsLm18446744073709551615EES0_IDsLm18446744073709551615EE
_ZN3JSC17StructureRareData7destroyEPNS_6JSCellE
_ZN3JSC17StructureRareData13visitChildrenEPNS_6JSCellERNS_11SlotVisitorE
_ZN3JSC17StructureRareData13visitChildrenEPNS_6JSCellERNS_19AbstractSlotVisitorE
_ZN3JSC17StructureRareData15createStructureERNS_2VMEPNS_14JSGlobalObjectENS_7JSValueE
_ZN3JSC17StructureRareData6createERNS_2VMEPNS_9StructureE
_ZN3JSC17StructureRareDataD2Ev
_ZN3JSC17StructureRareData17visitChildrenImplINS_19AbstractSlotVisitorEEEvPNS_6JSCellERT_
_ZN3JSCL12isUnscopableEPNS_14JSGlobalObjectEPNS_7JSScopeEPNS_8JSObjectERKNS_10IdentifierE
_ZN3WTF15SegmentedVectorIN3JSC12WriteBarrierINS1_7UnknownENS_14RawValueTraitsIS3_EEEELm16ELm0ELNS_27SegmentedVectorGrowthPolicyE0ENS_10FastMallocEE17ensureSegmentsForEm
_ZN3JSC13JSSetIterator13visitChildrenEPNS_6JSCellERNS_11SlotVisitorE
_ZN3JSC13JSSetIterator13visitChildrenEPNS_6JSCellERNS_19AbstractSlotVisitorE
_ZN3JSC13JSSetIterator23createWithInitialValuesERNS_2VMEPNS_9StructureE
_ZN3JSC12JSSourceCode7destroyEPNS_6JSCellE
_ZN3JSC8JSString7destroyEPNS_6JSCellE
_ZN3JSC8JSString12dumpToStreamEPKNS_6JSCellERN3WTF11PrintStreamE
_ZN3JSC8JSString13estimatedSizeEPNS_6JSCellERNS_2VME
_ZN3JSC8JSString13visitChildrenEPNS_6JSCellERNS_11SlotVisitorE
_ZN3JSC8JSString13visitChildrenEPNS_6JSCellERNS_19AbstractSlotVisitorE
_ZN3JSC8JSString15createStructureERNS_2VMEPNS_14JSGlobalObjectENS_7JSValueE
_ZN3JSC8JSString17createEmptyStringERNS_2VME
_ZN3JSC12JSRopeString11RopeBuilderIN3WTF14RecordOverflowEE6expandEv
_ZNK3JSC8JSString13equalSlowCaseEPNS_14JSGlobalObjectEPS0_
_ZN3JSC8JSString17visitChildrenImplINS_19AbstractSlotVisitorEEEvPNS_6JSCellERT_
_ZN3WTF13tryFastMallocEm
_ZN3WTF27tryFastCompactAlignedMallocEmm
_ZN3WTF20tryFastCompactMallocEm
_ZN3WTF21tryFastCompactReallocEPvm
_ZN3WTF40releaseFastMallocFreeMemoryForThisThreadEv
_ZN3WTF27releaseFastMallocFreeMemoryEv
_ZN3WTF25fastDecommitAlignedMemoryEPvm
_ZN3WTF18fastEnableMiniModeEb
_ZN3WTF14forceEnablePGMEt
_ZN8Gigacage16tryAlignedMallocENS_4KindEmm
_ZN8Gigacage9tryMallocENS_4KindEm
_ZN3WTF49replaceUnpairedSurrogatesWithReplacementCharacterEONS_6StringE
_ZN3WTF13StringBuilder18appendFromAdaptersIJNS_17StringTypeAdapterIDiEEEEEvDpRKT_
_ZN3WTF14AtomStringImpl3addESt4spanIKDsLm18446744073709551615EE
_ZN3WTF14AtomStringImpl3addERNS_24HashTranslatorCharBufferIDsEE
_ZN3WTF14AtomStringImpl3addERNS_24HashTranslatorCharBufferIhEE
_ZN3WTF14AtomStringImpl3addESt4spanIKhLm18446744073709551615EE
_ZN3WTF14AtomStringImpl10addLiteralESt4spanIKhLm18446744073709551615EE
_ZN3WTF14AtomStringImpl11addSlowCaseERNS_10StringImplE
_ZN3WTFL9addSymbolERNS_10StringImplE
_ZN3WTF14AtomStringImpl11addSlowCaseEONS_3RefINS_10StringImplENS_12RawPtrTraitsIS2_EENS_21DefaultRefDerefTraitsIS2_EEEE
_ZN3WTF14AtomStringImpl11addSlowCaseERNS_15AtomStringTableERNS_10StringImplE
_ZN3WTFL9addStaticERNS_21AtomStringTableLockerERNS_7HashSetINS_6PackedIPNS_10StringImplEEENS_11DefaultHashIS6_EENS_10HashTraitsIS6_EENS_15HashTableTraitsELNS_17ShouldValidateKeyE0EEERKS4_
_ZN3WTF14AtomStringImpl6removeEPS0_
_ZN3WTF14AtomStringImpl14lookUpSlowCaseERNS_10StringImplE
_ZN3WTF14AtomStringImpl3addESt4spanIKDuLm18446744073709551615EE
_ZN3JSC21jsSubstringOfResolvedERNS_2VMEPNS_17GCDeferralContextEPNS_8JSStringEjj
_ZN3JSC18KeyAtomStringCache4makeIN3WTF24HashTranslatorCharBufferIhEEZNS_21jsSubstringOfResolvedERNS_2VMEPNS_17GCDeferralContextEPNS_8JSStringEjjEUlS6_RT_E_EESA_S6_SC_RKT0_
_ZN3WTF9RapidHash13rapidhashImplITkNS_9InvocableIFmmEEEZNS0_23rapidhashOneBytePerCharIhNS_12StringHasher16DefaultConverterEEEmSt4spanIKT_Lm18446744073709551615EEEUlmE0_TkNS2_IS3_EEZNS4_IhS6_EEmSA_EUlmE1_TkNS2_IFmmmEEEZNS4_IhS6_EEmSA_EUlmmE_EEmmRS9_RKT0_RKT1_
_ZN3WTF10StringImpl26createSubstringSharingImplERS0_jj
_ZN3WTF9HashTableINS_6PackedIPNS_10StringImplEEES4_NS_17IdentityExtractorENS_11DefaultHashIS4_EENS_10HashTraitsIS4_EES9_NS_10FastMallocEE18addPassingHashCodeINS_24HashSetTranslatorAdapterINS_21SubstringTranslator16EEELNS_17ShouldValidateKeyE0ERKNS_17SubstringLocationETkSt9invocableZNS_7HashSetIS4_S7_S9_NS_15HashTableTraitsELSG_0EE3addISE_SH_EENS_18HashTableAddResultINS_17HashTableIteratorISB_S4_S4_S5_S7_S9_S9_EEEERKT0_EUlvE_EESR_OT1_RKT2_
_ZN3WTF9HashTableINS_6PackedIPNS_10StringImplEEES4_NS_17IdentityExtractorENS_11DefaultHashIS4_EENS_10HashTraitsIS4_EES9_NS_10FastMallocEE20fullLookupForWritingINS_24HashSetTranslatorAdapterINS_21SubstringTranslator16EEELNS_17ShouldValidateKeyE0ENS_17SubstringLocationEEESt4pairISI_IPS4_bEjERKT1_
_ZN3WTF14AtomStringImpl3addEONS_3RefINS_10StringImplENS_12RawPtrTraitsIS2_EENS_21DefaultRefDerefTraitsIS2_EEEE
_ZN3WTF9HashTableINS_6PackedIPNS_10StringImplEEES4_NS_17IdentityExtractorENS_11DefaultHashIS4_EENS_10HashTraitsIS4_EES9_NS_10FastMallocEE18addPassingHashCodeINS_24HashSetTranslatorAdapterINS_21UTF16BufferTranslatorEEELNS_17ShouldValidateKeyE0ERKNS_24HashTranslatorCharBufferIDsEETkSt9invocableZNS_7HashSetIS4_S7_S9_NS_15HashTableTraitsELSG_0EE3addISE_SI_EENS_18HashTableAddResultINS_17HashTableIteratorISB_S4_S4_S5_S7_S9_S9_EEEERKT0_EUlvE_EESS_OT1_RKT2_
_ZN3WTF9HashTableINS_6PackedIPNS_10StringImplEEES4_NS_17IdentityExtractorENS_11DefaultHashIS4_EENS_10HashTraitsIS4_EES9_NS_10FastMallocEE18addPassingHashCodeINS_24HashSetTranslatorAdapterINS_22Latin1BufferTranslatorEEELNS_17ShouldValidateKeyE0ERKNS_24HashTranslatorCharBufferIhEETkSt9invocableZNS_7HashSetIS4_S7_S9_NS_15HashTableTraitsELSG_0EE3addISE_SI_EENS_18HashTableAddResultINS_17HashTableIteratorISB_S4_S4_S5_S7_S9_S9_EEEERKT0_EUlvE_EESS_OT1_RKT2_
_ZN3WTF9HashTableINS_6PackedIPNS_10StringImplEEES4_NS_17IdentityExtractorENS_11DefaultHashIS4_EENS_10HashTraitsIS4_EES9_NS_10FastMallocEE3addINS_22IdentityHashTranslatorIS9_S7_EELNS_17ShouldValidateKeyE0ERKS4_TkSt9invocableZNSB_3addILSF_0EEENS_18HashTableAddResultINS_17HashTableIteratorISB_S4_S4_S5_S7_S9_S9_EEEEOS4_EUlvE_EESM_OT1_RKT2_
_ZN3WTF14AtomStringImpl6lookUpESt4spanIKhLm18446744073709551615EE
_ZN3WTF14AtomStringImpl6lookUpESt4spanIKDsLm18446744073709551615EE
_ZN3WTF9HashTableINS_6PackedIPNS_10StringImplEEES4_NS_17IdentityExtractorENS_11DefaultHashIS4_EENS_10HashTraitsIS4_EES9_NS_10FastMallocEE18addPassingHashCodeINS_24HashSetTranslatorAdapterINS_26StaticStringAtomTranslatorIhEEEELNS_17ShouldValidateKeyE0ERKNS_22StaticStringAtomBufferIhEETkSt9invocableZNS_7HashSetIS4_S7_S9_NS_15HashTableTraitsELSH_0EE3addISF_SJ_EENS_18HashTableAddResultINS_17HashTableIteratorISB_S4_S4_S5_S7_S9_S9_EEEERKT0_EUlvE_EEST_OT1_RKT2_
_ZN3WTF9HashTableINS_6PackedIPNS_10StringImplEEES4_NS_17IdentityExtractorENS_11DefaultHashIS4_EENS_10HashTraitsIS4_EES9_NS_10FastMallocEE6rehashENS_7CheckedIjNS_15CrashOnOverflowEEEPS4_
_ZN3WTF10StringImpl7replaceEDsSt4spanIKhLm18446744073709551615EE
_ZN3WTF10StringImpl13tryReallocateEONS_3RefIS0_NS_12RawPtrTraitsIS0_EENS_21DefaultRefDerefTraitsIS0_EEEEjRPh
_ZN3WTF10StringImpl13tryReallocateEONS_3RefIS0_NS_12RawPtrTraitsIS0_EENS_21DefaultRefDerefTraitsIS0_EEEEjRPDs
_ZN3WTF10StringImpl6createESt4spanIKDsLm18446744073709551615EE
_ZN3WTF10StringImpl6createESt4spanIKhLm18446744073709551615EE
_ZN3WTF10StringImpl6createESt4spanIKDuLm18446744073709551615EE
_ZN3WTF10StringImpl22createStaticStringImplESt4spanIKhLm18446744073709551615EE
_ZN3WTF10StringImpl22createStaticStringImplESt4spanIKDsLm18446744073709551615EE
_ZN3WTF10StringImpl20create8BitIfPossibleESt4spanIKDsLm18446744073709551615EE
_ZN3WTF10StringImpl25create8BitUnconditionallyESt4spanIKDsLm18446744073709551615EE
_ZN3WTF10StringImpl9substringEjj
_ZN3WTF5equalEPKNS_10StringImplES2_
_ZN3WTF5equalEPKNS_10StringImplESt4spanIKhLm18446744073709551615EE
_ZN3WTF13equalInternalIhEEbPKNS_10StringImplESt4spanIKT_Lm18446744073709551615EE
_ZN3WTF5equalEPKNS_10StringImplESt4spanIKDsLm18446744073709551615EE
_ZN3WTF13equalInternalIDsEEbPKNS_10StringImplESt4spanIKT_Lm18446744073709551615EE
_ZN3WTF5equalERKNS_10StringImplES2_
_ZN3WTF22equalIgnoringASCIICaseEPKNS_10StringImplES2_
_ZN3WTF10StringImpl5adoptEONS_12StringBufferIhEE
_ZN3WTF10StringImpl5adoptEONS_12StringBufferIDsEE
_ZN3WTF10StringImpl17utf8ForCharactersESt4spanIKhLm18446744073709551615EE
_ZN3WTF10StringImpl17utf8ForCharactersESt4spanIKDsLm18446744073709551615EENS_14ConversionModeE
_ZN3WTF28stringTypeAdapterAccumulatorIDsNS_17StringTypeAdapterINS_12ASCIILiteralEEEJNS1_INS_10AtomStringEEES3_EEEvSt4spanIT_Lm18446744073709551615EET0_DpT1_
_ZN3WTF28stringTypeAdapterAccumulatorIDsNS_17StringTypeAdapterINS_12ASCIILiteralEEEJNS1_INS_6StringEEES3_EEEvSt4spanIT_Lm18446744073709551615EET0_DpT1_
_ZN3WTF9HashTableINS_6PackedIPNS_10StringImplEEES4_NS_17IdentityExtractorENS_11DefaultHashIS4_EENS_10HashTraitsIS4_EES9_NS_10FastMallocEE18addPassingHashCodeINS_24HashSetTranslatorAdapterINS_26StaticStringAtomTranslatorIDsEEEELNS_17ShouldValidateKeyE0ERKNS_22StaticStringAtomBufferIDsEETkSt9invocableZNS_7HashSetIS4_S7_S9_NS_15HashTableTraitsELSH_0EE3addISF_SJ_EENS_18HashTableAddResultINS_17HashTableIteratorISB_S4_S4_S5_S7_S9_S9_EEEERKT0_EUlvE_EEST_OT1_RKT2_
_ZN3WTF9HashTableINS_6PackedIPNS_10StringImplEEES4_NS_17IdentityExtractorENS_11DefaultHashIS4_EENS_10HashTraitsIS4_EES9_NS_10FastMallocEE18addPassingHashCodeINS_24HashSetTranslatorAdapterINS_30BufferFromStaticDataTranslatorIhEEEELNS_17ShouldValidateKeyE0ERKNS_24HashTranslatorCharBufferIhEETkSt9invocableZNS_7HashSetIS4_S7_S9_NS_15HashTableTraitsELSH_0EE3addISF_SJ_EENS_18HashTableAddResultINS_17HashTableIteratorISB_S4_S4_S5_S7_S9_S9_EEEERKT0_EUlvE_EEST_OT1_RKT2_
_ZN3WTF9HashTableINS_6PackedIPNS_10StringImplEEES4_NS_17IdentityExtractorENS_11DefaultHashIS4_EENS_10HashTraitsIS4_EES9_NS_10FastMallocEE18addPassingHashCodeINS_24HashSetTranslatorAdapterINS_30BufferFromStaticDataTranslatorIDsEEEELNS_17ShouldValidateKeyE0ERKNS_24HashTranslatorCharBufferIDsEETkSt9invocableZNS_7HashSetIS4_S7_S9_NS_15HashTableTraitsELSH_0EE3addISF_SJ_EENS_18HashTableAddResultINS_17HashTableIteratorISB_S4_S4_S5_S7_S9_S9_EEEERKT0_EUlvE_EEST_OT1_RKT2_
_ZN3WTF9HashTableINS_6PackedIPNS_10StringImplEEES4_NS_17IdentityExtractorENS_11DefaultHashIS4_EENS_10HashTraitsIS4_EES9_NS_10FastMallocEE18addPassingHashCodeINS_24HashSetTranslatorAdapterINS_20SubstringTranslator8EEELNS_17ShouldValidateKeyE0ERKNS_17SubstringLocationETkSt9invocableZNS_7HashSetIS4_S7_S9_NS_15HashTableTraitsELSG_0EE3addISE_SH_EENS_18HashTableAddResultINS_17HashTableIteratorISB_S4_S4_S5_S7_S9_S9_EEEERKT0_EUlvE_EESR_OT1_RKT2_
_ZN3JSC8JSString6createERNS_2VMEON3WTF3RefINS3_10StringImplENS3_12RawPtrTraitsIS5_EENS3_21DefaultRefDerefTraitsIS5_EEEE
_ZNK3JSC14JSGlobalObject40arrayStructureForProfileDuringAllocationEPS0_PNS_22ArrayAllocationProfileENS_7JSValueE
_ZN3JSC7JSArray9tryCreateERNS_2VMEPNS_9StructureEjj
_ZN3JSC23tryCreateArrayButterflyERNS_2VMEPNS_8JSObjectEj
_ZN3JSC8JSObject15setIndexQuicklyERNS_2VMEjNS_7JSValueE
_ZN3JSC8JSObject28setIndexQuicklyForTypedArrayEjNS_7JSValueE
_ZN3JSCL25toStringWithRadixInternalERA2180_cdj
_ZN3JSC14NumericStrings11addJSStringERNS_2VMEi
_ZN3JSC14NumericStrings11addJSStringERNS_2VMEd
_ZN3JSC14NumericStrings21initializeDoubleCacheEv
_ZN3JSC14NumericStrings23initializeSmallIntCacheERNS_2VME
_ZN3JSC13int32ToStringERNS_2VMEii
_ZN3JSCL21int32ToStringInternalERNS_2VMEii
_ZN3WTF9HashTableINS_6StringENS_12KeyValuePairIS1_NS_3RefINS_8JSONImpl5ValueENS_12RawPtrTraitsIS5_EENS_21DefaultRefDerefTraitsIS5_EEEEEENS_24KeyValuePairKeyExtractorISB_EENS_11DefaultHashIS1_EENS_7HashMapIS1_SA_SF_NS_10HashTraitsIS1_EENSH_ISA_EENS_15HashTableTraitsELNS_17ShouldValidateKeyE1ENS_10FastMallocEE18KeyValuePairTraitsESI_SM_E3addINS_17HashMapTranslatorISO_SF_EELSL_1ERKS1_TkSt9invocableZNSN_9inlineAddISU_NS3_INS4_10ObjectBaseENS6_ISW_EENS8_ISW_EEEEEENS_18HashTableAddResultINS_17HashTableIteratorISP_S1_SB_SD_SF_SO_SI_EEEEOT_OT0_EUlvE_EES13_OT1_RKT2_
_ZN3WTF9HashTableINS_6StringENS_12KeyValuePairIS1_NS_3RefINS_8JSONImpl5ValueENS_12RawPtrTraitsIS5_EENS_21DefaultRefDerefTraitsIS5_EEEEEENS_24KeyValuePairKeyExtractorISB_EENS_11DefaultHashIS1_EENS_7HashMapIS1_SA_SF_NS_10HashTraitsIS1_EENSH_ISA_EENS_15HashTableTraitsELNS_17ShouldValidateKeyE1ENS_10FastMallocEE18KeyValuePairTraitsESI_SM_E3addINS_17HashMapTranslatorISO_SF_EELSL_1ERKS1_TkSt9invocableZNSN_9inlineAddISU_NS3_INS4_9ArrayBaseENS6_ISW_EENS8_ISW_EEEEEENS_18HashTableAddResultINS_17HashTableIteratorISP_S1_SB_SD_SF_SO_SI_EEEEOT_OT0_EUlvE_EES13_OT1_RKT2_
_ZN3WTF6StringC1ESt4spanIKDsLm18446744073709551615EE
_ZN3WTF6StringC2ESt4spanIKDsLm18446744073709551615EE
_ZN3WTF6StringC1ESt4spanIKcLm18446744073709551615EE
_ZN3WTF6StringC1ESt4spanIKhLm18446744073709551615EE
_ZN3WTF6StringC2ESt4spanIKcLm18446744073709551615EE
_ZN3WTF6StringC2ESt4spanIKhLm18446744073709551615EE
_ZN3WTF6StringC1ESt4spanIKDuLm18446744073709551615EE
_ZN3WTF6StringC2ESt4spanIKDuLm18446744073709551615EE
_ZN3WTF6StringC1EPKc
_ZN3WTF6StringC2EPKc
_ZN3WTF20makeStringByRemovingERKNS_6StringEjj
_ZNK3WTF6String20substringSharingImplEjj
_ZNK3WTF6String23convertToASCIILowercaseEv
_ZNK3WTF6String23convertToASCIIUppercaseEv
_ZNK3WTF6String31convertToLowercaseWithoutLocaleEv
_ZNK3WTF6String57convertToLowercaseWithoutLocaleStartingAtFailingIndex8BitEj
_ZNK3WTF6String31convertToUppercaseWithoutLocaleEv
_ZNK3WTF6String57convertToUppercaseWithoutLocaleStartingAtFailingIndex8BitEj
_ZNK3WTF6String4trimEPFbDsE
_ZNK3WTF6String32charactersWithoutNullTerminationEv
_ZN3WTF6String6numberEi
_ZN3WTF20numberToStringSignedINS_6StringEiEENS_30IntegerToStringConversionTraitIT_E10ReturnTypeET0_PNS4_22AdditionalArgumentTypeE
_ZN3WTF6String6numberEj
_ZN3WTF6String6numberEl
_ZN3WTF20numberToStringSignedINS_6StringElEENS_30IntegerToStringConversionTraitIT_E10ReturnTypeET0_PNS4_22AdditionalArgumentTypeE
_ZN3WTF6String6numberEm
_ZN3WTF6String28numberToStringFixedPrecisionEdjNS_19TrailingZerosPolicyE
_ZN3WTF6String6numberEd
_ZN3WTF6String24numberToStringFixedWidthEdj
_ZNKR3WTF6String12isolatedCopyEv
_ZNO3WTF6String12isolatedCopyEv
_ZNK3WTF6String5splitEDsRKNS_8FunctionIFvNS_10StringViewEEEE
_ZNK3WTF6String13splitInternalILb0EEEvDsRKNS_8FunctionIFvNS_10StringViewEEEE
_ZN3WTF6String13fromCodePointEDi
_ZN3WTF18charactersToDoubleESt4spanIKhLm18446744073709551615EEPb
_ZN3WTF18charactersToDoubleESt4spanIKDsLm18446744073709551615EEPb
_ZN3WTF6VectorIDsLm0ENS_15CrashOnOverflowELm16ENS_10FastMallocEE6appendILNS_13FailureActionE0EhLm18446744073709551615EEEbSt4spanIKT0_XT1_EE
_ZN3WTFL18numberToStringImplINS_6StringEjLNS_24PositiveOrNegativeNumberE0EPvEENS_30IntegerToStringConversionTraitIT_E10ReturnTypeET0_T2_
_ZN3WTF6Detail15CallableWrapperIZNKS_6String13splitInternalILb0EEENS_6VectorIS2_Lm0ENS_15CrashOnOverflowELm16ENS_10FastMallocEEEDsEUlNS_10StringViewEE_vJS8_EE4callES8_
_ZN3WTF6Detail15CallableWrapperIZNKS_6String13splitInternalILb1EEENS_6VectorIS2_Lm0ENS_15CrashOnOverflowELm16ENS_10FastMallocEEEDsEUlNS_10StringViewEE_vJS8_EE4callES8_
_ZZNK3WTF6String13splitInternalILb0EEENS_6VectorIS0_Lm0ENS_15CrashOnOverflowELm16ENS_10FastMallocEEEDsENKUlNS_10StringViewEE_clES6_
_ZZNK3WTF6String13splitInternalILb1EEENS_6VectorIS0_Lm0ENS_15CrashOnOverflowELm16ENS_10FastMallocEEEDsENKUlNS_10StringViewEE_clES6_
_ZN3WTF35openLatin1ContextAwareUTextProviderEPNS_15UTextWithBufferESt4spanIKhLm18446744073709551615EES2_IKDsLm18446744073709551615EEP10UErrorCode
_ZN3WTFL28uTextLatin1ContextAwareCloneEP5UTextPKS0_aP10UErrorCode
_ZN3WTFL35uTextLatin1ContextAwareNativeLengthEP5UText
_ZN3WTFL29uTextLatin1ContextAwareAccessEP5UTextla
_ZN3WTFL30uTextLatin1ContextAwareExtractEP5UTextllPDsiP10UErrorCode
_ZN3WTFL28uTextLatin1ContextAwareCloseEP5UText
_ZN3WTF14uTextCloneImplEP5UTextPKS0_aP10UErrorCode
_ZN3WTF34openUTF16ContextAwareUTextProviderEP5UTextSt4spanIKDsLm18446744073709551615EES4_P10UErrorCode
_ZN3WTFL27uTextUTF16ContextAwareCloneEP5UTextPKS0_aP10UErrorCode
_ZN3WTFL34uTextUTF16ContextAwareNativeLengthEP5UText
_ZN3JSC35parseFunctionForFunctionConstructorERNS_2VMERKNS_10SourceCodeEhRNS_11ParserErrorEPNS_14JSTextPositionESt8optionalIiE
_ZN3JSC12CodeCacheMap8addCacheERKNS_13SourceCodeKeyERKNS_15SourceCodeValueE
_ZN3JSC9CodeCache11updateCacheEPKNS_26UnlinkedFunctionExecutableERKNS_10SourceCodeENS_22CodeSpecializationKindEPKNS_25UnlinkedFunctionCodeBlockE
_ZN3JSC33sourceCodeKeyForSerializedProgramERNS_2VMERKNS_10SourceCodeE
_ZN3JSC32sourceCodeKeyForSerializedModuleERNS_2VMERKNS_10SourceCodeE
_ZN3JSC17serializeBytecodeERNS_2VMEPNS_17UnlinkedCodeBlockERKNS_10SourceCodeENS_14SourceCodeTypeEhNS_18JSParserScriptModeERN3WTF14FileSystemImpl10FileHandleERNS_18BytecodeCacheErrorENS9_9OptionSetINS_18CodeGenerationModeELNS9_14ConcurrencyTagE0EEE
_ZN3WTF13printInternalERNS_11PrintStreamEN3JSC22CodeSpecializationKindE
_ZN3JSC17CommonIdentifiersC1ERNS_2VME
_ZN3JSC17CommonIdentifiersC2ERNS_2VME
_ZN3WTF6VectorIN3Zig9BunPlugin5GroupELm0ENS_15CrashOnOverflowELm16ENS_10FastMallocEE14expandCapacityILNS_13FailureActionE0EEEPS3_mS9_
_ZN3WTF6VectorIN3Zig9BunPlugin5GroupELm0ENS_15CrashOnOverflowELm16ENS_10FastMallocEE15reserveCapacityILNS_13FailureActionE0EEEbm
_ZN7WebCore15subspaceForImplIN3Zig12JSModuleMockELNS_21UseCustomHeapCellTypeE1EZNS2_11subspaceForIS2_LN3JSC14SubspaceAccessE0EEEPNS5_8GCClient11IsoSubspaceERNS5_2VMEEUlRT_E_ZNS4_IS2_LS6_0EEES9_SB_EUlSD_OT0_E_ZNS4_IS2_LS6_0EEES9_SB_EUlSD_E0_ZNS4_IS2_LS6_0EEES9_SB_EUlSD_SG_E0_EES9_SB_T1_T2_T3_T4_PFRNS5_12HeapCellTypeERNS_10JSHeapDataEE
_ZNK3WTF7HashMapINS_6StringEN3JSC6StrongINS2_8JSObjectELNS2_30ShouldStrongDestructorGrabLockE0EEENS_11DefaultHashIS1_EENS_10HashTraitsIS1_EENS9_IS6_EENS_15HashTableTraitsELNS_17ShouldValidateKeyE0ENS_10FastMallocEE3getINS_22IdentityHashTranslatorINSF_18KeyValuePairTraitsES8_EES1_EES6_RKT0_
_ZN3WTF29tryMakeAtomStringFromAdaptersIJNS_17StringTypeAdapterINS_6StringEEEEEENS_10AtomStringEDpT_
_ZN3WTF37tryMakeStringImplFromAdaptersInternalIJNS_17StringTypeAdapterINS_6StringEEEEEENS_6RefPtrINS_10StringImplENS_12RawPtrTraitsIS5_EENS_21DefaultRefDerefTraitsIS5_EEEEjbDpT_
_ZN3WTF14AtomStringImpl3addERNS_10StringImplE
_ZN3WTF12parseIntegerIihEESt8optionalIT_ESt4spanIKT0_Lm18446744073709551615EEhNS_18TrailingJunkPolicyENS_28ParseIntegerWhitespacePolicyE
_ZN3WTF12parseIntegerIiDsEESt8optionalIT_ESt4spanIKT0_Lm18446744073709551615EEhNS_18TrailingJunkPolicyENS_28ParseIntegerWhitespacePolicyE
_ZN3JSC18BuiltinExecutables44iteratorHelpersWrappedIteratorCodeExecutableEv
_ZN3JSC12BuiltinNamesC1ERNS_2VMEPNS_17CommonIdentifiersE
_ZN3JSC12BuiltinNamesC2ERNS_2VMEPNS_17CommonIdentifiersE
_ZNK3JSC14SourceProvider8getRangeEii
_ZN3WTF18RobinHoodHashTableINS_6StringES1_NS_17IdentityExtractorENS_11DefaultHashIS1_EENS_10HashTraitsIS1_EES6_NS_51MemoryCompactLookupOnlyRobinHoodHashTableSizePolicyENS_10FastMallocEE3addINS_22IdentityHashTranslatorIS6_S4_EELNS_17ShouldValidateKeyE1ERKS1_TkSt9invocableZNS9_3addILSD_1EEENS_18HashTableAddResultINS_17HashTableIteratorIS9_S1_S1_S2_S4_S6_S6_EEEEOS1_EUlvE_EESK_OT1_RKT2_
_ZN3WTF18RobinHoodHashTableINS_6StringES1_NS_17IdentityExtractorENS_11DefaultHashIS1_EENS_10HashTraitsIS1_EES6_NS_51MemoryCompactLookupOnlyRobinHoodHashTableSizePolicyENS_10FastMallocEE6rehashEj
_ZN3WTF7dataLogIJA20_cN3JSC20FunctionMetadataNodeEA2_cEEEvDpRKT_
_ZN3WTF7dataLogIJA23_cN3JSC20FunctionMetadataNodeEA2_cEEEvDpRKT_
_ZN3WTF7dataLogIJA13_ciA2_cEEEvDpRKT_
_ZN3WTF7dataLogIJA20_ciA2_cEEEvDpRKT_
_ZN3WTF7dataLogIJA22_ciA2_cEEEvDpRKT_
_ZN3WTF7dataLogIJA32_ciA2_cEEEvDpRKT_
_ZN3WTF7dataLogIJA34_ciA2_cEEEvDpRKT_
_ZN3WTF7dataLogIJA42_ciA2_cEEEvDpRKT_
_ZN3WTF7dataLogIJA43_ciA2_cEEEvDpRKT_
_ZN3WTF7dataLogIJA44_ciA2_cEEEvDpRKT_
_ZN3WTF7dataLogIJA53_ciA2_cEEEvDpRKT_
_ZN3WTF18RobinHoodHashTableINS_6StringENS_12KeyValuePairIS1_PNS_10SymbolImplEEENS_24KeyValuePairKeyExtractorIS5_EENS_11DefaultHashIS1_EENS_7HashMapIS1_S4_S9_NS_10HashTraitsIS1_EENSB_IS4_EENS_47MemoryCompactLookupOnlyRobinHoodHashTableTraitsELNS_17ShouldValidateKeyE1ENS_10FastMallocEE18KeyValuePairTraitsESC_NS_51MemoryCompactLookupOnlyRobinHoodHashTableSizePolicyESG_E3addINS_17HashMapTranslatorISI_S9_EELSF_1ES1_TkSt9invocableZNSH_9inlineAddIS1_RS4_EENS_18HashTableAddResultINS_17HashTableIteratorISK_S1_S5_S7_S9_SI_SC_EEEEOT_OT0_EUlvE_EEST_OT1_RKT2_
_ZN3WTF18RobinHoodHashTableINS_6RefPtrINS_10StringImplENS_12RawPtrTraitsIS2_EENS_21DefaultRefDerefTraitsIS2_EEEENS_12KeyValuePairIS7_N3JSC23UnlinkedStringJumpTable14OffsetLocationEEENS_24KeyValuePairKeyExtractorISC_EENS_11DefaultHashIS7_EENS_7HashMapIS7_SB_SG_NS_10HashTraitsIS7_EENSI_ISB_EENS_47MemoryCompactLookupOnlyRobinHoodHashTableTraitsELNS_17ShouldValidateKeyE1ENS_10FastMallocEE18KeyValuePairTraitsESJ_NS_51MemoryCompactLookupOnlyRobinHoodHashTableSizePolicyESN_E27maintainProbeDistanceForAddEOSC_jjjjj
_ZN3WTF18RobinHoodHashTableINS_6StringENS_12KeyValuePairIS1_PNS_10SymbolImplEEENS_24KeyValuePairKeyExtractorIS5_EENS_11DefaultHashIS1_EENS_7HashMapIS1_S4_S9_NS_10HashTraitsIS1_EENSB_IS4_EENS_47MemoryCompactLookupOnlyRobinHoodHashTableTraitsELNS_17ShouldValidateKeyE1ENS_10FastMallocEE18KeyValuePairTraitsESC_NS_51MemoryCompactLookupOnlyRobinHoodHashTableSizePolicyESG_E27maintainProbeDistanceForAddEOS5_jjjjj
_ZN3WTF18RobinHoodHashTableINS_6StringENS_12KeyValuePairIS1_PNS_10SymbolImplEEENS_24KeyValuePairKeyExtractorIS5_EENS_11DefaultHashIS1_EENS_7HashMapIS1_S4_S9_NS_10HashTraitsIS1_EENSB_IS4_EENS_47MemoryCompactLookupOnlyRobinHoodHashTableTraitsELNS_17ShouldValidateKeyE1ENS_10FastMallocEE18KeyValuePairTraitsESC_NS_51MemoryCompactLookupOnlyRobinHoodHashTableSizePolicyESG_E6rehashEj
_ZN3WTF18RobinHoodHashTableINS_6RefPtrINS_10StringImplENS_12RawPtrTraitsIS2_EENS_21DefaultRefDerefTraitsIS2_EEEENS_12KeyValuePairIS7_N3JSC23UnlinkedStringJumpTable14OffsetLocationEEENS_24KeyValuePairKeyExtractorISC_EENS_11DefaultHashIS7_EENS_7HashMapIS7_SB_SG_NS_10HashTraitsIS7_EENSI_ISB_EENS_47MemoryCompactLookupOnlyRobinHoodHashTableTraitsELNS_17ShouldValidateKeyE1ENS_10FastMallocEE18KeyValuePairTraitsESJ_NS_51MemoryCompactLookupOnlyRobinHoodHashTableSizePolicyESN_E8reinsertEOSC_
_ZN3WTF18RobinHoodHashTableINS_6StringENS_12KeyValuePairIS1_PNS_10SymbolImplEEENS_24KeyValuePairKeyExtractorIS5_EENS_11DefaultHashIS1_EENS_7HashMapIS1_S4_S9_NS_10HashTraitsIS1_EENSB_IS4_EENS_47MemoryCompactLookupOnlyRobinHoodHashTableTraitsELNS_17ShouldValidateKeyE1ENS_10FastMallocEE18KeyValuePairTraitsESC_NS_51MemoryCompactLookupOnlyRobinHoodHashTableSizePolicyESG_E8reinsertEOS5_
_ZNK3WTF18RobinHoodHashTableINS_6StringENS_12KeyValuePairIS1_PNS_10SymbolImplEEENS_24KeyValuePairKeyExtractorIS5_EENS_11DefaultHashIS1_EENS_7HashMapIS1_S4_S9_NS_10HashTraitsIS1_EENSB_IS4_EENS_47MemoryCompactLookupOnlyRobinHoodHashTableTraitsELNS_17ShouldValidateKeyE1ENS_10FastMallocEE18KeyValuePairTraitsESC_NS_51MemoryCompactLookupOnlyRobinHoodHashTableSizePolicyESG_E4findINS_24HashMapTranslatorAdapterISI_N3JSC17CharBufferSeacherIhEEEELSF_1ENS_24HashTranslatorCharBufferIhEEEENS_22HashTableConstIteratorISK_S1_S5_S7_S9_SI_SC_EERKT1_
_ZNK3WTF18RobinHoodHashTableINS_6StringENS_12KeyValuePairIS1_PNS_10SymbolImplEEENS_24KeyValuePairKeyExtractorIS5_EENS_11DefaultHashIS1_EENS_7HashMapIS1_S4_S9_NS_10HashTraitsIS1_EENSB_IS4_EENS_47MemoryCompactLookupOnlyRobinHoodHashTableTraitsELNS_17ShouldValidateKeyE1ENS_10FastMallocEE18KeyValuePairTraitsESC_NS_51MemoryCompactLookupOnlyRobinHoodHashTableSizePolicyESG_E4findINS_24HashMapTranslatorAdapterISI_N3JSC17CharBufferSeacherIDsEEEELSF_1ENS_24HashTranslatorCharBufferIDsEEEENS_22HashTableConstIteratorISK_S1_S5_S7_S9_SI_SC_EERKT1_
_ZN3JSC49promiseConstructorPromiseConstructorCodeGeneratorERNS_2VME
_ZN3JSC58disposableStackPrototypeAddDisposableResourceCodeGeneratorERNS_2VME
_ZNK3JSC12BuiltinNames17lookUpPrivateNameESt4spanIKhLm18446744073709551615EE
_ZN3JSC20ScopedArgumentsTable12trySetLengthERNS_2VMEj
_ZN3JSC20ScopedArgumentsTable6trySetERNS_2VMEjNS_11ScopeOffsetE
_ZN3JSC20ScopedArgumentsTable19trySetWatchpointSetEjPNS_13WatchpointSetE
_ZN3JSC20ScopedArgumentsTable15createStructureERNS_2VMEPNS_14JSGlobalObjectENS_7JSValueE
_ZN3WTF9HashTableINS_6RefPtrINS_10StringImplENS_12RawPtrTraitsIS2_EENS_21DefaultRefDerefTraitsIS2_EEEENS_12KeyValuePairIS7_St10unique_ptrI19StaticFunctionEntrySt14default_deleteISA_EEEENS_24KeyValuePairKeyExtractorISE_EENS_11DefaultHashIS7_EENS_7HashMapIS7_SD_SI_NS_10HashTraitsIS7_EENSK_ISD_EENS_15HashTableTraitsELNS_17ShouldValidateKeyE0ENS_10FastMallocEE18KeyValuePairTraitsESL_SP_E3addINS_17HashMapTranslatorISR_SI_EELSO_0ES7_TkSt9invocableZNSQ_9inlineAddIS7_SD_EENS_18HashTableAddResultINS_17HashTableIteratorISS_S7_SE_SG_SI_SR_SL_EEEEOT_OT0_EUlvE_EES10_OT1_RKT2_
_ZN3WTF9HashTableINS_6RefPtrINS_10StringImplENS_12RawPtrTraitsIS2_EENS_21DefaultRefDerefTraitsIS2_EEEENS_12KeyValuePairIS7_St10unique_ptrI19StaticFunctionEntrySt14default_deleteISA_EEEENS_24KeyValuePairKeyExtractorISE_EENS_11DefaultHashIS7_EENS_7HashMapIS7_SD_SI_NS_10HashTraitsIS7_EENSK_ISD_EENS_15HashTableTraitsELNS_17ShouldValidateKeyE0ENS_10FastMallocEE18KeyValuePairTraitsESL_SP_E6rehashENS_7CheckedIjNS_15CrashOnOverflowEEEPSE_
_ZN3WTF9HashTableINS_6StringENS_12KeyValuePairIS1_St10unique_ptrINS_23BoyerMooreHorspoolTableIhEESt14default_deleteIS5_EEEENS_24KeyValuePairKeyExtractorIS9_EENS_11DefaultHashIS1_EENS_7HashMapIS1_S8_SD_NS_10HashTraitsIS1_EENSF_IS8_EENS_15HashTableTraitsELNS_17ShouldValidateKeyE0ENS_10FastMallocEE18KeyValuePairTraitsESG_SK_E6rehashENS_7CheckedIjNS_15CrashOnOverflowEEEPS9_
_ZN3JSC16JSCallbackObjectINS_16JSNonFinalObjectEE4initEPNS_14JSGlobalObjectE
_ZN3JSC16JSCallbackObjectINS_16JSNonFinalObjectEE17customToPrimitiveEPNS_14JSGlobalObjectEPNS_9CallFrameE
_ZN3JSC24toPreferredPrimitiveTypeEPNS_14JSGlobalObjectENS_7JSValueE
_ZNK3JSC12JSRopeString4viewEPNS_14JSGlobalObjectE
_ZN3JSC14JSGlobalObject34shouldInterruptScriptBeforeTimeoutEPKS0_
_ZN3JSC14JSGlobalObject28reportViolationForUnsafeEvalEPS0_RKN3WTF6StringE
_ZN3JSC17JSAPIValueWrapper15createStructureERNS_2VMEPNS_14JSGlobalObjectENS_7JSValueE
_ZN3JSC21JSCallbackConstructor7destroyEPNS_6JSCellE
_ZN3JSC21JSCallbackConstructor16getConstructDataEPNS_6JSCellE
_ZN3JSCL30constructJSCallbackConstructorEPNS_14JSGlobalObjectEPNS_9CallFrameE
_ZN3JSCL22callJSCallbackFunctionEPNS_14JSGlobalObjectEPNS_9CallFrameE
_ZN3JSC18JSCallbackFunction6createERNS_2VMEPNS_14JSGlobalObjectEPFPK13OpaqueJSValuePK15OpaqueJSContextPS5_SB_mPKS7_PS7_ERKN3WTF6StringE
_ZN3JSC16JSCallbackObjectINS_16JSNonFinalObjectEE13visitChildrenEPNS_6JSCellERNS_19AbstractSlotVisitorE
_ZN3JSC16JSCallbackObjectINS_16JSNonFinalObjectEE13visitChildrenEPNS_6JSCellERNS_11SlotVisitorE
_ZN3JSC16JSCallbackObjectINS_16JSNonFinalObjectEE7destroyEPNS_6JSCellE
_ZN3JSC16JSCallbackObjectINS_16JSNonFinalObjectEE11getCallDataEPNS_6JSCellE
_ZN3JSC16JSCallbackObjectINS_16JSNonFinalObjectEE16getConstructDataEPNS_6JSCellE
_ZN3JSC16JSCallbackObjectINS_16JSNonFinalObjectEE3putEPNS_6JSCellEPNS_14JSGlobalObjectENS_12PropertyNameENS_7JSValueERNS_15PutPropertySlotE
_ZN3JSC22NativeErrorConstructorILNS_9ErrorTypeE4EEC1ERNS_2VMEPNS_9StructureE
_ZN3JSC22NativeErrorConstructorILNS_9ErrorTypeE4EEC2ERNS_2VMEPNS_9StructureE
_ZN3JSC22NativeErrorConstructorILNS_9ErrorTypeE5EE13constructImplEPNS_14JSGlobalObjectEPNS_9CallFrameE
_ZN3JSC22NativeErrorConstructorILNS_9ErrorTypeE5EEC1ERNS_2VMEPNS_9StructureE
_ZN3JSC22NativeErrorConstructorILNS_9ErrorTypeE5EEC2ERNS_2VMEPNS_9StructureE
_ZN3JSC22NativeErrorConstructorILNS_9ErrorTypeE6EE13constructImplEPNS_14JSGlobalObjectEPNS_9CallFrameE
_ZN3JSC22NativeErrorConstructorILNS_9ErrorTypeE6EEC1ERNS_2VMEPNS_9StructureE
_ZN3JSC22NativeErrorConstructorILNS_9ErrorTypeE6EEC2ERNS_2VMEPNS_9StructureE
_ZN3JSC16NativeExecutable7destroyEPNS_6JSCellE
_ZN3JSC16NativeExecutable13visitChildrenEPNS_6JSCellERNS_11SlotVisitorE
_ZN3JSC16NativeExecutable13visitChildrenEPNS_6JSCellERNS_19AbstractSlotVisitorE
_ZN3JSC16NativeExecutable6createERNS_2VMEON3WTF3RefINS_7JITCodeENS3_12RawPtrTraitsIS5_EENS3_21DefaultRefDerefTraitsIS5_EEEENS3_11FunctionPtrILNS3_6PtrTagE12563EFlPNS_14JSGlobalObjectEPNS_9CallFrameEELNS3_18FunctionAttributesE2EEESB_SK_NS_24ImplementationVisibilityEjRKNS3_6StringE
_ZN3JSC16NativeExecutable14finishCreationERNS_2VMEON3WTF3RefINS_7JITCodeENS3_12RawPtrTraitsIS5_EENS3_21DefaultRefDerefTraitsIS5_EEEESB_jRKNS3_6StringE
_ZN3JSC16NativeExecutable15createStructureERNS_2VMEPNS_14JSGlobalObjectENS_7JSValueE
_ZNK3JSC16NativeExecutable12signatureForENS_22CodeSpecializationKindE
_ZNK3JSC16NativeExecutable9intrinsicEv
_ZNK3JSC16NativeExecutable7hashForENS_22CodeSpecializationKindE
_ZN3JSC16NativeExecutable12toStringSlowEPNS_14JSGlobalObjectE
_ZNK3JSC16NativeExecutable12nameJSStringERNS_2VME
_ZN3JSC16NativeExecutable17visitChildrenImplINS_11SlotVisitorEEEvPNS_6JSCellERT_
