_napi_acquire_threadsafe_function
_napi_add_async_cleanup_hook
_napi_add_env_cleanup_hook
_napi_add_finalizer
_napi_adjust_external_memory
_napi_async_destroy
_napi_async_init
_napi_call_function
_napi_call_threadsafe_function
_napi_cancel_async_work
_napi_check_object_type_tag
_napi_close_callback_scope
_napi_close_escapable_handle_scope
_napi_close_handle_scope
_napi_coerce_to_bool
_napi_coerce_to_number
_napi_coerce_to_object
_napi_coerce_to_string
_napi_create_array
_napi_create_array_with_length
_napi_create_arraybuffer
_napi_create_async_work
_napi_create_bigint_int64
_napi_create_bigint_uint64
_napi_create_bigint_words
_napi_create_buffer
_napi_create_buffer_copy
_napi_create_dataview
_napi_create_date
_napi_create_double
_napi_create_error
_napi_create_external
_napi_create_external_arraybuffer
_napi_create_external_buffer
_napi_create_function
_napi_create_int32
_napi_create_int64
_napi_create_object
_napi_create_promise
_napi_create_range_error
_napi_create_reference
_napi_create_string_latin1
_napi_create_string_utf16
_napi_create_string_utf8
_napi_create_symbol
_napi_create_threadsafe_function
_napi_create_type_error
_napi_create_typedarray
_napi_create_uint32
_napi_define_class
_napi_define_properties
_napi_delete_async_work
_napi_delete_element
_napi_delete_property
_napi_delete_reference
_napi_detach_arraybuffer
_napi_escape_handle
_napi_fatal_error
_napi_fatal_exception
_napi_get_all_property_names
_napi_get_and_clear_last_exception
_napi_get_array_length
_napi_get_arraybuffer_info
_napi_get_boolean
_napi_get_buffer_info
_napi_get_cb_info
_napi_get_dataview_info
_napi_get_date_value
_napi_get_element
_napi_get_global
_napi_get_instance_data
_napi_get_last_error_info
_napi_get_named_property
_napi_get_new_target
_napi_get_node_version
_napi_get_null
_napi_get_property
_napi_get_property_names
_napi_get_prototype
_napi_get_reference_value
_napi_get_threadsafe_function_context
_napi_get_typedarray_info
_napi_get_undefined
_napi_get_uv_event_loop
_napi_get_value_bigint_int64
_napi_get_value_bigint_uint64
_napi_get_value_bigint_words
_napi_get_value_bool
_napi_get_value_double
_napi_get_value_external
_napi_get_value_int32
_napi_get_value_int64
_napi_get_value_string_latin1
_napi_get_value_string_utf16
_napi_get_value_string_utf8
_napi_get_value_uint32
_napi_get_version
_napi_has_element
_napi_has_named_property
_napi_has_own_property
_napi_has_property
_napi_instanceof
_napi_is_array
_napi_is_arraybuffer
_napi_is_buffer
_napi_is_dataview
_napi_is_date
_napi_is_detached_arraybuffer
_napi_is_error
_napi_is_exception_pending
_napi_is_promise
_napi_is_typedarray
_napi_make_callback
_napi_module_register
_napi_new_instance
_napi_object_freeze
_napi_object_seal
_napi_open_callback_scope
_napi_open_escapable_handle_scope
_napi_open_handle_scope
_napi_queue_async_work
_napi_ref_threadsafe_function
_napi_reference_ref
_napi_reference_unref
_napi_reject_deferred
_napi_release_threadsafe_function
_napi_remove_async_cleanup_hook
_napi_remove_env_cleanup_hook
_napi_remove_wrap
_napi_resolve_deferred
_napi_run_script
_napi_set_element
_napi_set_instance_data
_napi_set_named_property
_napi_set_property
_napi_strict_equals
_napi_throw
_napi_throw_error
_napi_throw_range_error
_napi_throw_type_error
_napi_type_tag_object
_napi_typeof
_napi_unref_threadsafe_function
_napi_unwrap
_napi_wrap
_node_api_create_external_string_latin1
_node_api_create_external_string_utf16
_node_api_create_syntax_error
_node_api_symbol_for
_node_api_throw_syntax_error
__ZN2v87Isolate10GetCurrentEv
__ZN2v87Isolate13TryGetCurrentEv
__ZN2v87Isolate17GetCurrentContextEv
__ZN4node25AddEnvironmentCleanupHookEPN2v87IsolateEPFvPvES3_
__ZN4node28RemoveEnvironmentCleanupHookEPN2v87IsolateEPFvPvES3_
__ZN2v86Number3NewEPNS_7IsolateEd
__ZNK2v86Number5ValueEv
__ZN2v86String11NewFromUtf8EPNS_7IsolateEPKcNS_13NewStringTypeEi
__ZNK2v86String9WriteUtf8EPNS_7IsolateEPciPii
__ZN2v812api_internal12ToLocalEmptyEv
__ZNK2v86String6LengthEv
__ZN2v88External3NewEPNS_7IsolateEPv
__ZNK2v88External5ValueEv
__ZN2v86Object3NewEPNS_7IsolateE
__ZN2v86Object3SetENS_5LocalINS_7ContextEEENS1_INS_5ValueEEES5_
__ZN2v86Object16SetInternalFieldEiNS_5LocalINS_4DataEEE
__ZN2v86Object20SlowGetInternalFieldEi
__ZN2v811HandleScope12CreateHandleEPNS_8internal7IsolateEm
__ZN2v811HandleScopeC1EPNS_7IsolateE
__ZN2v811HandleScopeD1Ev
__ZN2v811HandleScopeD2Ev
__ZN2v816FunctionTemplate11GetFunctionENS_5LocalINS_7ContextEEE
__ZN2v816FunctionTemplate3NewEPNS_7IsolateEPFvRKNS_20FunctionCallbackInfoINS_5ValueEEEENS_5LocalIS4_EENSA_INS_9SignatureEEEiNS_19ConstructorBehaviorENS_14SideEffectTypeEPKNS_9CFunctionEttt
__ZN2v814ObjectTemplate11NewInstanceENS_5LocalINS_7ContextEEE
__ZN2v814ObjectTemplate21SetInternalFieldCountEi
__ZNK2v814ObjectTemplate18InternalFieldCountEv
__ZN2v814ObjectTemplate3NewEPNS_7IsolateENS_5LocalINS_16FunctionTemplateEEE
__ZN2v824EscapableHandleScopeBase10EscapeSlotEPm
__ZN2v824EscapableHandleScopeBaseC2EPNS_7IsolateE
__ZN2v88internal35IsolateFromNeverReadOnlySpaceObjectEm
_node_module_register
__ZN3JSC9CallFrame13describeFrameEv
__ZN2v85Array3NewEPNS_7IsolateEPNS_5LocalINS_5ValueEEEm
__ZN2v88Function7SetNameENS_5LocalINS_6StringEEE
__ZNK2v85Value9IsBooleanEv
__ZNK2v87Boolean5ValueEv
__ZNK2v85Value10FullIsTrueEv
__ZNK2v85Value11FullIsFalseEv
__ZN2v820EscapableHandleScopeC1EPNS_7IsolateE
__ZN2v820EscapableHandleScopeC2EPNS_7IsolateE
__ZN2v820EscapableHandleScopeD1Ev
__ZN2v820EscapableHandleScopeD2Ev
__ZNK2v85Value8IsObjectEv
__ZNK2v85Value8IsNumberEv
__ZNK2v85Value8IsUint32Ev
__ZNK2v85Value11Uint32ValueENS_5LocalINS_7ContextEEE
__ZNK2v85Value11IsUndefinedEv
__ZNK2v85Value6IsNullEv
__ZNK2v85Value17IsNullOrUndefinedEv
__ZNK2v85Value6IsTrueEv
__ZNK2v85Value7IsFalseEv
__ZNK2v85Value8IsStringEv
__ZN2v87Boolean3NewEPNS_7IsolateEb
__ZN2v86Object16GetInternalFieldEi
__ZN2v87Context10GetIsolateEv
__ZN2v86String14NewFromOneByteEPNS_7IsolateEPKhNS_13NewStringTypeEi
__ZNK2v86String10Utf8LengthEPNS_7IsolateE
__ZNK2v86String10IsExternalEv
__ZNK2v86String17IsExternalOneByteEv
__ZNK2v86String17IsExternalTwoByteEv
__ZNK2v86String9IsOneByteEv
__ZNK2v86String19ContainsOnlyOneByteEv
__ZN2v812api_internal18GlobalizeReferenceEPNS_8internal7IsolateEm
__ZN2v812api_internal13DisposeGlobalEPm
__ZNK2v88Function7GetNameEv
__ZNK2v85Value10IsFunctionEv
__ZN2v812api_internal17FromJustIsNothingEv
__ZNK2v85Array6LengthEv
__ZNK2v810CpuProfile10GetEndTimeEv
__ZNK2v810CpuProfile12GetStartTimeEv
__ZNK2v810CpuProfile14GetSampleStateEi
__ZNK2v810CpuProfile14GetTopDownRootEv
__ZNK2v810CpuProfile15GetSamplesCountEv
__ZNK2v810CpuProfile18GetSampleTimestampEi
__ZNK2v810CpuProfile22GetSampleEmbedderStateEi
__ZNK2v810CpuProfile8GetTitleEv
__ZNK2v810CpuProfile9GetSampleEi
__ZNK2v810CpuProfile9SerializeEPNS_12OutputStreamENS0_19SerializationFormatE
__ZNK2v810FixedArray3GetENS_5LocalINS_7ContextEEEi
__ZNK2v810FixedArray6LengthEv
__ZNK2v810StackFrame11GetLocationEv
__ZNK2v810StackFrame11GetScriptIdEv
__ZNK2v810StackFrame13GetScriptNameEv
__ZNK2v810StackFrame13IsConstructorEv
__ZNK2v810StackFrame15GetFunctionNameEv
__ZNK2v810StackFrame15GetScriptSourceEv
__ZNK2v810StackFrame16IsUserJavaScriptEv
__ZNK2v810StackFrame24GetScriptNameOrSourceURLEv
__ZNK2v810StackFrame25GetScriptSourceMappingURLEv
__ZNK2v810StackFrame6IsEvalEv
__ZNK2v810StackFrame6IsWasmEv
__ZNK2v810StackTrace13GetFrameCountEv
__ZNK2v810StackTrace8GetFrameEPNS_7IsolateEj
__ZNK2v811ArrayBuffer10ByteLengthEv
__ZNK2v811ArrayBuffer11WasDetachedEv
__ZNK2v811ArrayBuffer12IsDetachableEv
__ZNK2v811ArrayBuffer13MaxByteLengthEv
__ZNK2v811ArrayBuffer27IsResizableByUserJavaScriptEv
__ZNK2v811ArrayBuffer4DataEv
__ZNK2v811StartupData13CanBeRehashedEv
__ZNK2v811StartupData7IsValidEv
__ZNK2v812BackingStore10ByteLengthEv
__ZNK2v812BackingStore13MaxByteLengthEv
__ZNK2v812BackingStore27IsResizableByUserJavaScriptEv
__ZNK2v812BackingStore4DataEv
__ZNK2v812BackingStore8IsSharedEv
__ZNK2v812BigIntObject7ValueOfEv
__ZNK2v812HeapSnapshot11GetNodeByIdEj
__ZNK2v812HeapSnapshot13GetNodesCountEv
__ZNK2v812HeapSnapshot24GetMaxSnapshotJSObjectIdEv
__ZNK2v812HeapSnapshot7GetNodeEi
__ZNK2v812HeapSnapshot7GetRootEv
__ZNK2v812HeapSnapshot9SerializeEPNS_12OutputStreamENS0_19SerializationFormatE
__ZNK2v812NumberObject7ValueOfEv
__ZNK2v812ScriptOrigin24VerifyHostDefinedOptionsEv
__ZNK2v812StringObject7ValueOfEv
__ZNK2v812SymbolObject7ValueOfEv
__ZNK2v812api_internal14StackAllocatedILb1EE13VerifyOnStackEv
__ZNK2v813BooleanObject7ValueOfEv
__ZNK2v813CFunctionInfo12ArgumentInfoEj
__ZNK2v813HeapGraphEdge11GetFromNodeEv
__ZNK2v813HeapGraphEdge7GetNameEv
__ZNK2v813HeapGraphEdge7GetTypeEv
__ZNK2v813HeapGraphEdge9GetToNodeEv
__ZNK2v813HeapGraphNode14GetShallowSizeEv
__ZNK2v813HeapGraphNode16GetChildrenCountEv
__ZNK2v813HeapGraphNode5GetIdEv
__ZNK2v813HeapGraphNode7GetNameEv
__ZNK2v813HeapGraphNode7GetTypeEv
__ZNK2v813HeapGraphNode8GetChildEi
__ZNK2v813ModuleRequest12GetSpecifierEv
__ZNK2v813ModuleRequest15GetSourceOffsetEv
__ZNK2v813ModuleRequest19GetImportAttributesEv
__ZNK2v813UnboundScript5GetIdEv
__ZNK2v814CpuProfileNode11GetHitCountEv
__ZNK2v814CpuProfileNode11GetScriptIdEv
__ZNK2v814CpuProfileNode12GetLineTicksEPNS0_8LineTickEj
__ZNK2v814CpuProfileNode13GetDeoptInfosEv
__ZNK2v814CpuProfileNode13GetLineNumberEv
__ZNK2v814CpuProfileNode13GetSourceTypeEv
__ZNK2v814CpuProfileNode15GetColumnNumberEv
__ZNK2v814CpuProfileNode15GetFunctionNameEv
__ZNK2v814CpuProfileNode15GetHitLineCountEv
__ZNK2v814CpuProfileNode16GetBailoutReasonEv
__ZNK2v814CpuProfileNode16GetChildrenCountEv
__ZNK2v814CpuProfileNode18GetFunctionNameStrEv
__ZNK2v814CpuProfileNode21GetScriptResourceNameEv
__ZNK2v814CpuProfileNode24GetScriptResourceNameStrEv
__ZNK2v814CpuProfileNode25IsScriptSharedCrossOriginEv
__ZNK2v814CpuProfileNode8GetChildEi
__ZNK2v814CpuProfileNode9GetNodeIdEv
__ZNK2v814CpuProfileNode9GetParentEv
__ZNK2v814ObjectTemplate10IsCodeLikeEv
__ZNK2v814ObjectTemplate16IsImmutableProtoEv
__ZNK2v814ObjectTemplate18InternalFieldCountEv
__ZNK2v814PrimitiveArray6LengthEv
__ZNK2v814ScriptCompiler20ConsumeCodeCacheTask29ShouldMergeWithExistingScriptEv
__ZNK2v814SourceLocation8ToStringB5cxx11Ev
__ZNK2v815ArrayBufferView9HasBufferEv
__ZNK2v816FunctionTemplate26IsLeafTemplateForApiObjectENS_5LocalINS_5ValueEEE
__ZNK2v817SharedArrayBuffer10ByteLengthEv
__ZNK2v817SharedArrayBuffer13MaxByteLengthEv
__ZNK2v817SharedArrayBuffer4DataEv
__ZNK2v817ValueDeserializer20GetWireFormatVersionEv
__ZNK2v818PropertyDescriptor10enumerableEv
__ZNK2v818PropertyDescriptor12configurableEv
__ZNK2v818PropertyDescriptor12has_writableEv
__ZNK2v818PropertyDescriptor14has_enumerableEv
__ZNK2v818PropertyDescriptor16has_configurableEv
__ZNK2v818PropertyDescriptor3getEv
__ZNK2v818PropertyDescriptor3setEv
__ZNK2v818PropertyDescriptor5valueEv
__ZNK2v818PropertyDescriptor7has_getEv
__ZNK2v818PropertyDescriptor7has_setEv
__ZNK2v818PropertyDescriptor8writableEv
__ZNK2v818PropertyDescriptor9has_valueEv
__ZNK2v819CpuProfilingOptions18raw_filter_contextEv
__ZNK2v819TracedReferenceBase10CheckValueEv
__ZNK2v821FastApiTypedArrayBase13ValidateIndexEm
__ZNK2v83Map4SizeEv
__ZNK2v83Map7AsArrayEv
__ZNK2v83Set4SizeEv
__ZNK2v83Set7AsArrayEv
__ZNK2v84Data12IsFixedArrayEv
__ZNK2v84Data16IsObjectTemplateEv
__ZNK2v84Data18IsFunctionTemplateEv
__ZNK2v84Data7IsValueEv
__ZNK2v84Data8IsModuleEv
__ZNK2v84Data9IsContextEv
__ZNK2v84Data9IsPrivateEv
__ZNK2v84Date11ToISOStringEv
__ZNK2v84Date7ValueOfEv
__ZNK2v84base15RegionAllocator5PrintERSo
__ZNK2v84base15RegionAllocator6Region5PrintERSo
__ZNK2v84base20BoundedPageAllocator4sizeEv
__ZNK2v84base20BoundedPageAllocator5beginEv
__ZNK2v84base4Time10ToTimespecEv
__ZNK2v84base4Time8ToJsTimeEv
__ZNK2v84base4Time9ToTimevalEv
__ZNK2v84base5debug10StackTrace14OutputToStreamEPSo
__ZNK2v84base5debug10StackTrace5PrintEv
__ZNK2v84base5debug10StackTrace8ToStringB5cxx11Ev
__ZNK2v84base5debug10StackTrace9AddressesEPm
__ZNK2v84base6Bignum11ToHexStringEPci
__ZNK2v84base6Bignum7BigitAtEi
__ZNK2v84base6Bignum9IsClampedEv
__ZNK2v84base9TimeDelta10InSecondsFEv
__ZNK2v84base9TimeDelta10ToTimespecEv
__ZNK2v84base9TimeDelta13InNanosecondsEv
__ZNK2v84base9TimeDelta14InMicrosecondsEv
__ZNK2v84base9TimeDelta14InMillisecondsEv
__ZNK2v84base9TimeDelta15InMillisecondsFEv
__ZNK2v84base9TimeDelta23InMillisecondsRoundedUpEv
__ZNK2v84base9TimeDelta6InDaysEv
__ZNK2v84base9TimeDelta7InHoursEv
__ZNK2v84base9TimeDelta9InMinutesEv
__ZNK2v84base9TimeDelta9InSecondsEv
__ZNK2v85Array6LengthEv
__ZNK2v85Int325ValueEv
__ZNK2v85Proxy9IsRevokedEv
__ZNK2v85Value10FullIsNullEv
__ZNK2v85Value10FullIsTrueEv
__ZNK2v85Value10Int32ValueENS_5LocalINS_7ContextEEE
__ZNK2v85Value10IsDataViewEv
__ZNK2v85Value10IsExternalEv
__ZNK2v85Value10IsFunctionEv
__ZNK2v85Value10IsWasmNullEv
__ZNK2v85Value11FullIsFalseEv
__ZNK2v85Value11IsInt8ArrayEv
__ZNK2v85Value11NumberValueENS_5LocalINS_7ContextEEE
__ZNK2v85Value11ToPrimitiveENS_5LocalINS_7ContextEEE
__ZNK2v85Value11Uint32ValueENS_5LocalINS_7ContextEEE
__ZNK2v85Value12BooleanValueEPNS_7IsolateE
__ZNK2v85Value12FullIsStringEv
__ZNK2v85Value12IntegerValueENS_5LocalINS_7ContextEEE
__ZNK2v85Value12IsInt16ArrayEv
__ZNK2v85Value12IsInt32ArrayEv
__ZNK2v85Value12IsTypedArrayEv
__ZNK2v85Value12IsUint8ArrayEv
__ZNK2v85Value12StrictEqualsENS_5LocalIS0_EE
__ZNK2v85Value12ToArrayIndexENS_5LocalINS_7ContextEEE
__ZNK2v85Value13IsArrayBufferEv
__ZNK2v85Value13IsMapIteratorEv
__ZNK2v85Value13IsNativeErrorEv
__ZNK2v85Value13IsSetIteratorEv
__ZNK2v85Value13IsUint16ArrayEv
__ZNK2v85Value13IsUint32ArrayEv
__ZNK2v85Value14IsBigIntObjectEv
__ZNK2v85Value14IsFloat16ArrayEv
__ZNK2v85Value14IsFloat32ArrayEv
__ZNK2v85Value14IsFloat64ArrayEv
__ZNK2v85Value14IsNumberObjectEv
__ZNK2v85Value14IsStringObjectEv
__ZNK2v85Value14IsSymbolObjectEv
__ZNK2v85Value14ToDetailStringENS_5LocalINS_7ContextEEE
__ZNK2v85Value15FullIsUndefinedEv
__ZNK2v85Value15IsAsyncFunctionEv
__ZNK2v85Value15IsBigInt64ArrayEv
__ZNK2v85Value15IsBooleanObjectEv
__ZNK2v85Value16IsBigUint64ArrayEv
__ZNK2v85Value17IsArgumentsObjectEv
__ZNK2v85Value17IsArrayBufferViewEv
__ZNK2v85Value17IsGeneratorObjectEv
__ZNK2v85Value18IsWasmMemoryObjectEv
__ZNK2v85Value18IsWasmModuleObjectEv
__ZNK2v85Value19IsGeneratorFunctionEv
__ZNK2v85Value19IsSharedArrayBufferEv
__ZNK2v85Value19IsUint8ClampedArrayEv
__ZNK2v85Value23IsModuleNamespaceObjectEv
__ZNK2v85Value5IsMapEv
__ZNK2v85Value5IsSetEv
__ZNK2v85Value6EqualsENS_5LocalINS_7ContextEEENS1_IS0_EE
__ZNK2v85Value6IsDateEv
__ZNK2v85Value6IsNameEv
__ZNK2v85Value7IsArrayEv
__ZNK2v85Value7IsInt32Ev
__ZNK2v85Value7IsProxyEv
__ZNK2v85Value7ToInt32ENS_5LocalINS_7ContextEEE
__ZNK2v85Value8IsBigIntEv
__ZNK2v85Value8IsNumberEv
__ZNK2v85Value8IsObjectEv
__ZNK2v85Value8IsRegExpEv
__ZNK2v85Value8IsSymbolEv
__ZNK2v85Value8IsUint32Ev
__ZNK2v85Value8ToBigIntENS_5LocalINS_7ContextEEE
__ZNK2v85Value8ToNumberENS_5LocalINS_7ContextEEE
__ZNK2v85Value8ToObjectENS_5LocalINS_7ContextEEE
__ZNK2v85Value8ToStringENS_5LocalINS_7ContextEEE
__ZNK2v85Value8ToUint32ENS_5LocalINS_7ContextEEE
__ZNK2v85Value9IsBooleanEv
__ZNK2v85Value9IsPromiseEv
__ZNK2v85Value9IsWeakMapEv
__ZNK2v85Value9IsWeakRefEv
__ZNK2v85Value9IsWeakSetEv
__ZNK2v85Value9SameValueENS_5LocalIS0_EE
__ZNK2v85Value9ToBooleanEPNS_7IsolateE
__ZNK2v85Value9ToIntegerENS_5LocalINS_7ContextEEE
__ZNK2v85Value9ToNumericENS_5LocalINS_7ContextEEE
__ZNK2v85debug10WasmScript10CodeOffsetEv
__ZNK2v85debug10WasmScript12NumFunctionsEv
__ZNK2v85debug10WasmScript16GetFunctionRangeEi
__ZNK2v85debug10WasmScript18ExternalSymbolsURLEv
__ZNK2v85debug10WasmScript18GetDebugSymbolTypeEv
__ZNK2v85debug10WasmScript20NumImportedFunctionsEv
__ZNK2v85debug10WasmScript21GetContainingFunctionEi
__ZNK2v85debug12ScriptSource12WasmBytecodeEv
__ZNK2v85debug12ScriptSource14JavaScriptCodeEv
__ZNK2v85debug12ScriptSource4SizeEv
__ZNK2v85debug12ScriptSource6LengthEv
__ZNK2v85debug15WasmValueObject4typeEv
__ZNK2v85debug6Script10GetIsolateEv
__ZNK2v85debug6Script10IsEmbeddedEv
__ZNK2v85debug6Script11StartColumnEv
__ZNK2v85debug6Script11WasCompiledEv
__ZNK2v85debug6Script13GetSha256HashEv
__ZNK2v85debug6Script13OriginOptionsEv
__ZNK2v85debug6Script13SetBreakpointENS_5LocalINS_6StringEEEPNS0_8LocationEPi
__ZNK2v85debug6Script15GetSourceOffsetERKNS0_8LocationENS1_19GetSourceOffsetModeE
__ZNK2v85debug6Script15SetScriptSourceENS_5LocalINS_6StringEEEbbPNS0_14LiveEditResultE
__ZNK2v85debug6Script16SourceMappingURLEv
__ZNK2v85debug6Script17GetSourceLocationEi
__ZNK2v85debug6Script22GetPossibleBreakpointsERKNS0_8LocationES4_bPSt6vectorINS0_13BreakLocationESaIS6_EE
__ZNK2v85debug6Script28SetInstrumentationBreakpointEPi
__ZNK2v85debug6Script2IdEv
__ZNK2v85debug6Script4NameEv
__ZNK2v85debug6Script6IsWasmEv
__ZNK2v85debug6Script6SourceEv
__ZNK2v85debug6Script7EndLineEv
__ZNK2v85debug6Script8IsModuleEv
__ZNK2v85debug6Script9ContextIdEv
__ZNK2v85debug6Script9EndColumnEv
__ZNK2v85debug6Script9SourceURLEv
__ZNK2v85debug6Script9StartLineEv
__ZNK2v85debug8Coverage10ScriptData13FunctionCountEv
__ZNK2v85debug8Coverage10ScriptData15GetFunctionDataEm
__ZNK2v85debug8Coverage10ScriptData9GetScriptEv
__ZNK2v85debug8Coverage11ScriptCountEv
__ZNK2v85debug8Coverage12FunctionData10BlockCountEv
__ZNK2v85debug8Coverage12FunctionData11StartOffsetEv
__ZNK2v85debug8Coverage12FunctionData12GetBlockDataEm
__ZNK2v85debug8Coverage12FunctionData16HasBlockCoverageEv
__ZNK2v85debug8Coverage12FunctionData4NameEv
__ZNK2v85debug8Coverage12FunctionData5CountEv
__ZNK2v85debug8Coverage12FunctionData9EndOffsetEv
__ZNK2v85debug8Coverage13GetScriptDataEm
__ZNK2v85debug8Coverage9BlockData11StartOffsetEv
__ZNK2v85debug8Coverage9BlockData5CountEv
__ZNK2v85debug8Coverage9BlockData9EndOffsetEv
__ZNK2v85debug8Location13GetLineNumberEv
__ZNK2v85debug8Location15GetColumnNumberEv
__ZNK2v85debug8Location7IsEmptyEv
__ZNK2v86BigInt10Int64ValueEPb
__ZNK2v86BigInt11Uint64ValueEPb
__ZNK2v86BigInt12ToWordsArrayEPiS1_Pm
__ZNK2v86BigInt9WordCountEv
__ZNK2v86Module12GetExceptionEv
__ZNK2v86Module12IsGraphAsyncEv
__ZNK2v86Module15GetIdentityHashEv
__ZNK2v86Module17GetModuleRequestsEv
__ZNK2v86Module17IsSyntheticModuleEv
__ZNK2v86Module18IsSourceTextModuleEv
__ZNK2v86Module22SourceOffsetToLocationEi
__ZNK2v86Module8ScriptIdEv
__ZNK2v86Module9GetStatusEv
__ZNK2v86Number5ValueEv
__ZNK2v86Object10IsCallableEv
__ZNK2v86Object10IsCodeLikeEPNS_7IsolateE
__ZNK2v86Object12IsApiWrapperEv
__ZNK2v86Object13IsConstructorEv
__ZNK2v86Object14IsUndetectableEv
__ZNK2v86Object18InternalFieldCountEv
__ZNK2v86Object25HasNamedLookupInterceptorEv
__ZNK2v86Object27HasIndexedLookupInterceptorEv
__ZNK2v86RegExp8GetFlagsEv
__ZNK2v86RegExp9GetSourceEv
__ZNK2v86Script23GetProducedCompileHintsEv
__ZNK2v86String10IsExternalEv
__ZNK2v86String10Utf8LengthEPNS_7IsolateE
__ZNK2v86String12StringEqualsENS_5LocalIS0_EE
__ZNK2v86String12WriteOneByteEPNS_7IsolateEPhiii
__ZNK2v86String15CanMakeExternalENS0_8EncodingE
__ZNK2v86String17IsExternalOneByteEv
__ZNK2v86String17IsExternalTwoByteEv
__ZNK2v86String19ContainsOnlyOneByteEv
__ZNK2v86String22ExternalStringResource25CheckCachedDataInvariantsEv
__ZNK2v86String28VerifyExternalStringResourceEPNS0_22ExternalStringResourceE
__ZNK2v86String29ExternalOneByteStringResource25CheckCachedDataInvariantsEv
__ZNK2v86String29GetExternalStringResourceSlowEv
__ZNK2v86String32GetExternalOneByteStringResourceEv
__ZNK2v86String32VerifyExternalStringResourceBaseEPNS0_26ExternalStringResourceBaseENS0_8EncodingE
__ZNK2v86String33GetExternalStringResourceBaseSlowEPNS0_8EncodingE
__ZNK2v86String5WriteEPNS_7IsolateEPtiii
__ZNK2v86String6LengthEv
__ZNK2v86String9IsOneByteEv
__ZNK2v86String9WriteUtf8EPNS_7IsolateEPciPii
__ZNK2v86Symbol11DescriptionEPNS_7IsolateE
__ZNK2v86Uint325ValueEv
__ZNK2v87Boolean5ValueEv
__ZNK2v87Context34IsCodeGenerationFromStringsAllowedEv
__ZNK2v87CppHeap18wrapper_descriptorEv
__ZNK2v87Integer5ValueEv
__ZNK2v87Isolate10GetCppHeapEv
__ZNK2v87Isolate19GetMicrotasksPolicyEv
__ZNK2v87Isolate9IsCurrentEv
__ZNK2v87Message10ErrorLevelEv
__ZNK2v87Message10GetIsolateEv
__ZNK2v87Message12GetEndColumnENS_5LocalINS_7ContextEEE
__ZNK2v87Message12GetEndColumnEv
__ZNK2v87Message13GetLineNumberENS_5LocalINS_7ContextEEE
__ZNK2v87Message13GetSourceLineENS_5LocalINS_7ContextEEE
__ZNK2v87Message13GetStackTraceEv
__ZNK2v87Message14GetEndPositionEv
__ZNK2v87Message14GetStartColumnENS_5LocalINS_7ContextEEE
__ZNK2v87Message14GetStartColumnEv
__ZNK2v87Message15GetScriptOriginEv
__ZNK2v87Message16GetStartPositionEv
__ZNK2v87Message19IsSharedCrossOriginEv
__ZNK2v87Message20GetWasmFunctionIndexEv
__ZNK2v87Message21GetScriptResourceNameEv
__ZNK2v87Message3GetEv
__ZNK2v87Message8IsOpaqueEv
__ZNK2v87Message9GetSourceENS_5LocalINS_7ContextEEE
__ZNK2v87Private4NameEv
__ZNK2v87Promise10HasHandlerEv
__ZNK2v87sampler11AtomicGuard10is_successEv
__ZNK2v87tracing11TracedValue19AppendAsTraceFormatEPNSt7__cxx1112basic_stringIcSt11char_traitsIcESaIcEEE
__ZNK2v88External5ValueEv
__ZNK2v88Function11NewInstanceENS_5LocalINS_7ContextEEEiPNS1_INS_5ValueEEE
__ZNK2v88Function12GetDebugNameEv
__ZNK2v88Function15GetInferredNameEv
__ZNK2v88Function15GetScriptOriginEv
__ZNK2v88Function16GetBoundFunctionEv
__ZNK2v88Function16GetUnboundScriptEv
__ZNK2v88Function19GetScriptLineNumberEv
__ZNK2v88Function21GetScriptColumnNumberEv
__ZNK2v88Function22GetScriptStartPositionEv
__ZNK2v88Function26Experimental_IsNopFunctionEv
__ZNK2v88Function29NewInstanceWithSideEffectTypeENS_5LocalINS_7ContextEEEiPNS1_INS_5ValueEEENS_14SideEffectTypeE
__ZNK2v88Function7GetNameEv
__ZNK2v88Function8ScriptIdEv
__ZNK2v88TryCatch10StackTraceENS_5LocalINS_7ContextEEE
__ZNK2v88TryCatch11CanContinueEv
__ZNK2v88TryCatch13HasTerminatedEv
__ZNK2v88TryCatch7MessageEv
__ZNK2v88TryCatch9ExceptionEv
__ZNK2v88TryCatch9HasCaughtEv
__ZNK2v88TryCatch9IsVerboseEv
_uv_os_getpid
_uv_os_getppid
